(dp0
Vdata
p1
(dp2
I0
(dp3
Vdata
p4
(dp5
Vcompeting
p6
(dp7
Vmed
p8
(lp9
sVmech
p10
(lp11
(lp12
(dp13
Vsmiles
p14
VO=Cc1ccccc1O>>Oc1ccccc1C=[OH+]
p15
sVrxid
p16
(lp17
Vrx109
p18
asVsideProducts
p19
(lp20
sVmappedRx
p21
V[O:7]=[CH:8][c:9]1[cH:10][cH:11][cH:12][cH:13][c:14]1[OH:15]>>[OH+:7]=[CH:8][c:9]1[cH:10][cH:11][cH:12][cH:13][c:14]1[OH:15]
p22
sVdescription
p23
VAldehyde protonation
p24
sVreference
p25
VOrganic Chemistry, 7th Edition L. G. Wade, Jr p. 842 and 10.1021/jm00110a008
p26
sVconditions
p27
VH2SO4<BR> allow temp:L.rt.H.VH, allow AB: WA
p28
sVspeed
p29
VFI
p30
sValterConditions
p31
V
p32
sVsolvent
p33
VEtOH
p34
sValterSolvent
p35
g32
sVfullRxSmiles
p36
g15
sVisShortcut
p37
I00
sVisDeprot
p38
I00
saa(lp39
(dp40
g14
VOc1ccccc1C(O)[NH+]1CCCCC1>>O=Cc1ccccc1O
p41
sg16
(lp42
Vrx222
p43
asg19
(lp44
VC1CCNCC1
p45
asg21
V[CH2:1]1[CH2:2][CH2:3][NH+:4]([CH:8]([OH:7])[c:9]2[cH:10][cH:11][cH:12][cH:13][c:14]2[OH:15])[CH2:5][CH2:6]1>>[O:7]=[CH:8][c:9]1[cH:10][cH:11][cH:12][cH:13][c:14]1[OH:15].[CH2:1]1[CH2:2][CH2:3][NH:4][CH2:5][CH2:6]1
p46
sg23
VHydrolysis of hemiaminal
p47
sg25
V10.1021/cr068388p
p48
sg27
VMeCN<BR> allow temp:L.rt.H, allow AB: WA.N.WB
p49
sg29
VF
p50
sg31
g32
sg33
VTHF
p51
sg35
(lp52
Vt-Butyl ethyl ether
p53
asg36
VOc1ccccc1C(O)[NH+]1CCCCC1>>O=Cc1ccccc1O.C1CCNCC1
p54
sg37
I00
sg38
I00
sVDE
p55
F-17.045050000000003
sVisSideFromTarget
p56
I00
saa(lp57
a(lp58
a(lp59
a(lp60
assg27
(dp61
Vtemperatures
p62
(lp63
Vhigh
p64
aVlow
p65
aVRT
p66
ag66
asg27
c__builtin__
set
p67
((lp68
VN
p69
aVSA
p70
aVA
p71
aVB
p72
aVWB
p73
aVWA
p74
aVSB
p75
aVLA
p76
atp77
Rp78
sVfixed
p79
g67
((lp80
VO
p81
atp82
Rp83
ssVrxToFullDict
p84
(dp85
(VCC(C)(C)c1ccc(C(c2ccccc2OB(O)O)N2CCCCC2)cc1>>CC(C)(C)c1ccc(C(c2ccccc2O)N2CCCCC2)cc1
p86
(Vrx525
p87
tp88
tp89
(dp90
g14
g86
sVadditionalInfo
p91
(dp92
VdG
p93
F0.0
sVdH
p94
I0
sVdS
p95
I0
sVdoneRx
p96
(lp97
g87
asVallRxes
p98
(lp99
(lp100
(lp101
V[CH2:1]1[CH2:2][CH2:3][N:4]([CH:8]([c:9]2[cH:10][cH:11][cH:12][cH:13][c:14]2[O:15][B:24]([OH:25])[OH:26])[c:23]2[cH:22][cH:21][c:20]([C:17]([CH3:16])([CH3:18])[CH3:19])[cH:28][cH:27]2)[CH2:5][CH2:6]1
p102
aV[OH2:43]
p103
aa(lp104
(lp105
V[CH2:1]1[CH2:2][CH2:3][N:4]([CH:8]([c:9]2[cH:10][cH:11][cH:12][cH:13][c:14]2[OH:15])[c:23]2[cH:22][cH:21][c:20]([C:17]([CH3:16])([CH3:18])[CH3:19])[cH:28][cH:27]2)[CH2:5][CH2:6]1
p106
aV[B:24]([OH:25])([OH:26])[OH:43]
p107
aaaasg21
V[CH2:1]1[CH2:2][CH2:3][N:4]([CH:8]([c:9]2[cH:10][cH:11][cH:12][cH:13][c:14]2[O:15][B:24]([OH:25])[OH:26])[c:23]2[cH:22][cH:21][c:20]([C:17]([CH3:16])([CH3:18])[CH3:19])[cH:28][cH:27]2)[CH2:5][CH2:6]1.[OH2:43]>>[CH2:1]1[CH2:2][CH2:3][N:4]([CH:8]([c:9]2[cH:10][cH:11][cH:12][cH:13][c:14]2[OH:15])[c:23]2[cH:22][cH:21][c:20]([C:17]([CH3:16])([CH3:18])[CH3:19])[cH:28][cH:27]2)[CH2:5][CH2:6]1.[B:24]([OH:25])([OH:26])[OH:43]
p108
sVincoInfo
p109
I-2
ssg16
(lp110
g87
asVidnum
p111
I0
sVprev
p112
(lp113
I1
aI2
aI3
aI4
aI5
asVbyproducts
p114
(dp115
Vreactants
p116
(lp117
VOB(O)O
p118
asVadditives
p119
(lp120
(lp121
g32
aassVdirectPrev
p122
(lp123
I1
asg36
VCC(C)(C)c1ccc(C(c2ccccc2OB(O)O)N2CCCCC2)cc1.O>>CC(C)(C)c1ccc(C(c2ccccc2O)N2CCCCC2)cc1.OB(O)O
p124
sg37
I00
sg38
I00
sg55
F-8.77229999999986
sg56
I00
ss(VCC(C)(C)c1ccc([B-](O)(O)Oc2ccccc2C=[N+]2CCCCC2)cc1>>CC(C)(C)c1ccc(C(c2ccccc2OB(O)O)N2CCCCC2)cc1
p125
(Vrx331
p126
tp127
tp128
(dp129
g14
g125
sg91
(dp130
g93
F0.0
sg94
I0
sg95
I0
sg96
(lp131
g126
asg98
(lp132
(lp133
(lp134
V[CH2:1]1[CH2:2][CH2:3][N+:4](=[CH:8][c:9]2[cH:10][cH:11][cH:12][cH:13][c:14]2[O:15][B-:24]([c:23]2[cH:22][cH:21][c:20]([C:17]([CH3:16])([CH3:18])[CH3:19])[cH:28][cH:27]2)([OH:25])[OH:26])[CH2:5][CH2:6]1
p135
aa(lp136
(lp137
g102
aaaasg21
V[CH2:1]1[CH2:2][CH2:3][N+:4](=[CH:8][c:9]2[cH:10][cH:11][cH:12][cH:13][c:14]2[O:15][B-:24]([c:23]2[cH:22][cH:21][c:20]([C:17]([CH3:16])([CH3:18])[CH3:19])[cH:28][cH:27]2)([OH:25])[OH:26])[CH2:5][CH2:6]1>>[CH2:1]1[CH2:2][CH2:3][N:4]([CH:8]([c:9]2[cH:10][cH:11][cH:12][cH:13][c:14]2[O:15][B:24]([OH:25])[OH:26])[c:23]2[cH:22][cH:21][c:20]([C:17]([CH3:16])([CH3:18])[CH3:19])[cH:28][cH:27]2)[CH2:5][CH2:6]1
p138
sg109
I-2
ssg16
(lp139
g126
asg111
I1
sg112
(lp140
I2
aI3
aI4
aI5
asg114
(dp141
g116
(lp142
sg119
(lp143
(lp144
g32
aassg122
(lp145
I2
asg36
g125
sg37
I00
sg38
I00
sg55
F-75.65669000000003
sg56
I00
ss(V[O-]c1ccccc1C=[N+]1CCCCC1.CC(C)(C)c1ccc(B(O)O)cc1>>CC(C)(C)c1ccc([B-](O)(O)Oc2ccccc2C=[N+]2CCCCC2)cc1
p146
(Vrx439
p147
tp148
tp149
(dp150
g14
g146
sg91
(dp151
g93
F0.0
sg94
I0
sg95
I0
sg96
(lp152
g147
asg98
(lp153
(lp154
(lp155
V[CH3:16][C:17]([CH3:18])([CH3:19])[c:20]1[cH:21][cH:22][c:23]([B:24]([OH:25])[OH:26])[cH:27][cH:28]1
p156
aV[CH2:1]1[CH2:2][CH2:3][N+:4](=[CH:8][c:9]2[cH:10][cH:11][cH:12][cH:13][c:14]2[O-:15])[CH2:5][CH2:6]1
p157
aa(lp158
(lp159
g135
aaaasg21
V[CH2:1]1[CH2:2][CH2:3][N+:4](=[CH:8][c:9]2[cH:10][cH:11][cH:12][cH:13][c:14]2[O:15][B-:24]([c:23]2[cH:22][cH:21][c:20]([C:17]([CH3:16])([CH3:18])[CH3:19])[cH:28][cH:27]2)([OH:25])[OH:26])[CH2:5][CH2:6]1>>[CH3:16][C:17]([CH3:18])([CH3:19])[c:20]1[cH:21][cH:22][c:23]([B:24]([OH:25])[OH:26])[cH:27][cH:28]1.[CH2:1]1[CH2:2][CH2:3][N+:4](=[CH:8][c:9]2[cH:10][cH:11][cH:12][cH:13][c:14]2[O-:15])[CH2:5][CH2:6]1
p160
sg109
I-2
ssg16
(lp161
g147
asg111
I2
sg112
(lp162
I3
aI4
aI5
asg114
(dp163
g116
(lp164
sg119
(lp165
(lp166
g32
aassg122
(lp167
I3
asg36
VCC(C)(C)c1ccc(B(O)O)cc1.[O-]c1ccccc1C=[N+]1CCCCC1>>CC(C)(C)c1ccc([B-](O)(O)Oc2ccccc2C=[N+]2CCCCC2)cc1
p168
sg37
I00
sg38
I00
sg55
F-35.27230999999995
sg56
I00
ss(VOc1ccccc1C=[N+]1CCCCC1>>[O-]c1ccccc1C=[N+]1CCCCC1
p169
(Vrx85
p170
tp171
tp172
(dp173
g14
g169
sg91
(dp174
g93
F0.0
sg94
I0
sg95
I0
sg96
(lp175
g170
asg98
(lp176
(lp177
(lp178
V[CH2:1]1[CH2:2][CH2:3][N+:4](=[CH:8][c:9]2[cH:10][cH:11][cH:12][cH:13][c:14]2[OH:15])[CH2:5][CH2:6]1
p179
aa(lp180
(lp181
g157
aaaasg21
V[CH2:1]1[CH2:2][CH2:3][N+:4](=[CH:8][c:9]2[cH:10][cH:11][cH:12][cH:13][c:14]2[OH:15])[CH2:5][CH2:6]1>>[CH2:1]1[CH2:2][CH2:3][N+:4](=[CH:8][c:9]2[cH:10][cH:11][cH:12][cH:13][c:14]2[O-:15])[CH2:5][CH2:6]1
p182
sg109
I-2
ssg16
(lp183
g170
asg111
I3
sg112
(lp184
I4
aI5
asg114
(dp185
g116
(lp186
sg119
(lp187
(lp188
VOC([O-])=O
p189
aV[K+]
p190
ag190
aassg122
(lp191
I4
asg36
g169
sg37
I00
sg38
(lp192
VSimple
p193
a(dp194
Vsubstrate
p195
VOc1ccccc1C=[N+]1CCCCC1
p196
sVmappedSubstrate
p197
g179
sVproduct
p198
V[O-]c1ccccc1C=[N+]1CCCCC1
p199
sVmappedProduct
p200
g157
sVdeprotNomapSubstrate
p201
g199
sasg55
F36.94552
sg56
I00
ss(VOc1ccccc1C(O)[NH+]1CCCCC1>>Oc1ccccc1C=[N+]1CCCCC1
p202
(Vrx226
p203
tp204
tp205
(dp206
g14
g202
sg91
(dp207
g93
F0.0
sg94
I0
sg95
I0
sg96
(lp208
g203
asg98
(lp209
(lp210
(lp211
V[CH2:1]1[CH2:2][CH2:3][NH+:4]([CH:8]([OH:7])[c:9]2[cH:10][cH:11][cH:12][cH:13][c:14]2[OH:15])[CH2:5][CH2:6]1
p212
aa(lp213
(lp214
g179
aV[OH2:7]
p215
aaaasg21
V[CH2:1]1[CH2:2][CH2:3][N+:4](=[CH:8][c:9]2[cH:10][cH:11][cH:12][cH:13][c:14]2[OH:15])[CH2:5][CH2:6]1.[OH2:7]>>[CH2:1]1[CH2:2][CH2:3][NH+:4]([CH:8]([OH:7])[c:9]2[cH:10][cH:11][cH:12][cH:13][c:14]2[OH:15])[CH2:5][CH2:6]1
p216
sg109
I-2
ssg16
(lp217
g203
asg111
I4
sg112
(lp218
I5
asg114
(dp219
g116
(lp220
g81
asg119
(lp221
(lp222
g32
aassg122
(lp223
I5
asg36
VOc1ccccc1C(O)[NH+]1CCCCC1>>Oc1ccccc1C=[N+]1CCCCC1.O
p224
sg37
I00
sg38
I00
sg55
F-47.96627999999998
sg56
I00
ss(VO=Cc1ccccc1O.C1CCNCC1>>Oc1ccccc1C(O)[NH+]1CCCCC1
p225
(Vrx363
p226
tp227
tp228
(dp229
g14
g225
sg91
(dp230
g93
F0.0
sg94
I0
sg95
I0
sg96
(lp231
g226
asg98
(lp232
(lp233
(lp234
V[CH2:1]1[CH2:2][CH2:3][NH:4][CH2:5][CH2:6]1
p235
aV[O:7]=[CH:8][c:9]1[cH:10][cH:11][cH:12][cH:13][c:14]1[OH:15]
p236
aa(lp237
(lp238
g212
aaaasg21
V[CH2:1]1[CH2:2][CH2:3][NH:4][CH2:5][CH2:6]1.[O:7]=[CH:8][c:9]1[cH:10][cH:11][cH:12][cH:13][c:14]1[OH:15]>>[CH2:1]1[CH2:2][CH2:3][NH+:4]([CH:8]([OH:7])[c:9]2[cH:10][cH:11][cH:12][cH:13][c:14]2[OH:15])[CH2:5][CH2:6]1
p239
sg109
I-2
ssg16
(lp240
g226
asg111
I5
sg112
(lp241
sg114
(dp242
g116
(lp243
sg119
(lp244
(lp245
g32
aassg122
(lp246
sg36
VC1CCNCC1.O=Cc1ccccc1O>>Oc1ccccc1C(O)[NH+]1CCCCC1
p247
sg37
I00
sg38
I00
sVrate
p248
F4.290000000000001
sg55
F17.045050000000003
sg56
I00
sssVgraph
p249
(lp250
(I1
VCC(C)(C)c1ccc(C(c2ccccc2O)N2CCCCC2)cc1
p251
tp252
a(I1
g118
tp253
a(VCC(C)(C)c1ccc(C(c2ccccc2OB(O)O)N2CCCCC2)cc1
p254
I1
tp255
a(I2
g254
tp256
a(VCC(C)(C)c1ccc([B-](O)(O)Oc2ccccc2C=[N+]2CCCCC2)cc1
p257
I2
tp258
a(I3
g257
tp259
a(g199
I3
tp260
a(VCC(C)(C)c1ccc(B(O)O)cc1
p261
I3
tp262
a(I4
g199
tp263
a(I4
g190
tp264
a(I4
VO=C([O-])O
p265
tp266
a(g196
I4
tp267
a(I5
g196
tp268
a(I5
g81
tp269
a(VOc1ccccc1C(O)[NH+]1CCCCC1
p270
I5
tp271
a(g270
I8
tp272
a(I6
g270
tp273
a(VO=Cc1ccccc1O
p274
I6
tp275
a(g274
I7
tp276
a(g45
I6
tp277
a(g81
I1
tp278
a(I7
VOc1ccccc1C=[OH+]
p279
tp280
a(I8
g274
tp281
asVrxtupleToId
p282
(dp283
((g254
tp284
g251
g88
tp285
I1
s((g257
tp286
g254
g127
tp287
I2
s((g261
g199
tp288
g257
g148
tp289
I3
s((g196
tp290
g199
g171
tp291
I4
s((g270
tp292
g196
g204
tp293
I5
s((g45
g274
tp294
g270
g227
tp295
I6
s(g292
g274
(g43
tp296
tp297
I8
ssVallSmiles
p298
(dp299
g45
(dp300
Vgeneration
p301
I0
sVparents
p302
(lp303
sVmol
p304
V\u000a     RDKit          2D\u000a\u000a  6  6  0  0  0  0  0  0  0  0999 V2000\u000a    0.3664   -0.3666    0.0000 C   0  0  0  0  0  0  0  0  0  0  0  0\u000a   -0.4992    0.1340    0.0000 C   0  0  0  0  0  0  0  0  0  0  0  0\u000a   -1.3656   -0.3654    0.0000 C   0  0  0  0  0  0  0  0  0  0  0  0\u000a   -1.3664   -1.3654    0.0000 N   0  0  0  0  0  0  0  0  0  0  0  0\u000a   -0.5008   -1.8660    0.0000 C   0  0  0  0  0  0  0  0  0  0  0  0\u000a    0.3656   -1.3666    0.0000 C   0  0  0  0  0  0  0  0  0  0  0  0\u000a  1  2  1  0\u000a  2  3  1  0\u000a  3  4  1  0\u000a  4  5  1  0\u000a  5  6  1  0\u000a  6  1  1  0\u000aM  END\u000a
p305
sVformula
p306
VC5H11N
p307
sVnoisoSmles
p308
g45
sVnodeType
p309
Vnormal
p310
ssg274
(dp311
g301
I0
sg302
(lp312
sg304
V\u000a     RDKit          2D\u000a\u000a  9  9  0  0  0  0  0  0  0  0999 V2000\u000a    0.2438    2.1756    0.0000 O   0  0  0  0  0  0  0  0  0  0  0  0\u000a   -0.6232    1.6774    0.0000 C   0  0  0  0  0  0  0  0  0  0  0  0\u000a   -0.6252    0.6774    0.0000 C   0  0  0  0  0  0  0  0  0  0  0  0\u000a    0.2398    0.1756    0.0000 C   0  0  0  0  0  0  0  0  0  0  0  0\u000a    0.2378   -0.8244    0.0000 C   0  0  0  0  0  0  0  0  0  0  0  0\u000a   -0.6292   -1.3226    0.0000 C   0  0  0  0  0  0  0  0  0  0  0  0\u000a   -1.4942   -0.8208    0.0000 C   0  0  0  0  0  0  0  0  0  0  0  0\u000a   -1.4922    0.1790    0.0000 C   0  0  0  0  0  0  0  0  0  0  0  0\u000a   -2.3572    0.6808    0.0000 O   0  0  0  0  0  0  0  0  0  0  0  0\u000a  1  2  2  0\u000a  2  3  1  0\u000a  3  4  2  0\u000a  4  5  1  0\u000a  5  6  2  0\u000a  6  7  1  0\u000a  7  8  2  0\u000a  8  9  1  0\u000a  8  3  1  0\u000aM  END\u000a
p313
sg306
VC7H6O2
p314
sg308
g274
sg309
VcompetingNormal
p315
sValterConnections
p316
(lp317
(lp318
g270
aassg261
(dp319
g301
I0
sg302
(lp320
sg304
V\u000a     RDKit          2D\u000a\u000a 13 13  0  0  0  0  0  0  0  0999 V2000\u000a    0.7334   -2.4646    0.0000 C   0  0  0  0  0  0  0  0  0  0  0  0\u000a    1.2326   -1.5982    0.0000 C   0  0  0  0  0  0  0  0  0  0  0  0\u000a    1.7334   -2.4638    0.0000 C   0  0  0  0  0  0  0  0  0  0  0  0\u000a    2.0982   -1.0976    0.0000 C   0  0  0  0  0  0  0  0  0  0  0  0\u000a    0.3662   -1.0990    0.0000 C   0  0  0  0  0  0  0  0  0  0  0  0\u000a    0.3654   -0.0990    0.0000 C   0  0  0  0  0  0  0  0  0  0  0  0\u000a   -0.5010    0.4004    0.0000 C   0  0  0  0  0  0  0  0  0  0  0  0\u000a   -1.3666   -0.1004    0.0000 C   0  0  0  0  0  0  0  0  0  0  0  0\u000a   -2.2330    0.3990    0.0000 B   0  0  0  0  0  0  0  0  0  0  0  0\u000a   -2.2336    1.3990    0.0000 O   0  0  0  0  0  0  0  0  0  0  0  0\u000a   -3.0986   -0.1018    0.0000 O   0  0  0  0  0  0  0  0  0  0  0  0\u000a   -1.3658   -1.1004    0.0000 C   0  0  0  0  0  0  0  0  0  0  0  0\u000a   -0.4994   -1.5996    0.0000 C   0  0  0  0  0  0  0  0  0  0  0  0\u000a  1  2  1  0\u000a  2  3  1  0\u000a  2  4  1  0\u000a  2  5  1  0\u000a  5  6  2  0\u000a  6  7  1  0\u000a  7  8  2  0\u000a  8  9  1  0\u000a  9 10  1  0\u000a  9 11  1  0\u000a  8 12  1  0\u000a 12 13  2  0\u000a 13  5  1  0\u000aM  END\u000a
p321
sg306
VC10H15BO2
p322
sg308
g261
sg309
g310
ssg251
(dp323
g301
I6
sg302
(lp324
g254
ag81
asg304
V\u000a     RDKit          2D\u000a\u000a 24 26  0  0  0  0  0  0  0  0999 V2000\u000a   -1.2876   -1.6258    0.0000 C   0  0  0  0  0  0  0  0  0  0  0  0\u000a   -1.7860   -0.7588    0.0000 C   0  0  0  0  0  0  0  0  0  0  0  0\u000a   -2.2876   -1.6238    0.0000 C   0  0  0  0  0  0  0  0  0  0  0  0\u000a   -2.6510   -0.2570    0.0000 C   0  0  0  0  0  0  0  0  0  0  0  0\u000a   -0.9188   -0.2604    0.0000 C   0  0  0  0  0  0  0  0  0  0  0  0\u000a   -0.9168    0.7396    0.0000 C   0  0  0  0  0  0  0  0  0  0  0  0\u000a   -0.0498    1.2378    0.0000 C   0  0  0  0  0  0  0  0  0  0  0  0\u000a    0.8152    0.7360    0.0000 C   0  0  0  0  0  0  0  0  0  0  0  0\u000a    1.6822    1.2344    0.0000 C   0  0  0  0  0  0  0  0  0  0  0  0\u000a    1.6842    2.2344    0.0000 C   0  0  0  0  0  0  0  0  0  0  0  0\u000a    0.8192    2.7360    0.0000 C   0  0  0  0  0  0  0  0  0  0  0  0\u000a    0.8212    3.7360    0.0000 C   0  0  0  0  0  0  0  0  0  0  0  0\u000a    1.6882    4.2342    0.0000 C   0  0  0  0  0  0  0  0  0  0  0  0\u000a    2.5532    3.7326    0.0000 C   0  0  0  0  0  0  0  0  0  0  0  0\u000a    2.5512    2.7326    0.0000 C   0  0  0  0  0  0  0  0  0  0  0  0\u000a    3.4162    2.2308    0.0000 O   0  0  0  0  0  0  0  0  0  0  0  0\u000a    2.5472    0.7326    0.0000 N   0  0  0  0  0  0  0  0  0  0  0  0\u000a    2.5452   -0.2674    0.0000 C   0  0  0  0  0  0  0  0  0  0  0  0\u000a    3.4102   -0.7690    0.0000 C   0  0  0  0  0  0  0  0  0  0  0  0\u000a    4.2772   -0.2708    0.0000 C   0  0  0  0  0  0  0  0  0  0  0  0\u000a    4.2792    0.7292    0.0000 C   0  0  0  0  0  0  0  0  0  0  0  0\u000a    3.4142    1.2308    0.0000 C   0  0  0  0  0  0  0  0  0  0  0  0\u000a    0.8132   -0.2640    0.0000 C   0  0  0  0  0  0  0  0  0  0  0  0\u000a   -0.0538   -0.7622    0.0000 C   0  0  0  0  0  0  0  0  0  0  0  0\u000a  1  2  1  0\u000a  2  3  1  0\u000a  2  4  1  0\u000a  2  5  1  0\u000a  5  6  2  0\u000a  6  7  1  0\u000a  7  8  2  0\u000a  8  9  1  0\u000a  9 10  1  0\u000a 10 11  2  0\u000a 11 12  1  0\u000a 12 13  2  0\u000a 13 14  1  0\u000a 14 15  2  0\u000a 15 16  1  0\u000a  9 17  1  0\u000a 17 18  1  0\u000a 18 19  1  0\u000a 19 20  1  0\u000a 20 21  1  0\u000a 21 22  1  0\u000a  8 23  1  0\u000a 23 24  2  0\u000a 24  5  1  0\u000a 15 10  1  0\u000a 22 17  1  0\u000aM  END\u000a
p325
sg306
VC22H29NO
p326
sVnoisoSmiles
p327
g251
sg309
g310
ssg254
(dp328
g301
I5
sg302
(lp329
g257
asg304
V\u000a     RDKit          2D\u000a\u000a 27 29  0  0  0  0  0  0  0  0999 V2000\u000a   -2.1104   -1.8512    0.0000 C   0  0  0  0  0  0  0  0  0  0  0  0\u000a   -2.6088   -0.9842    0.0000 C   0  0  0  0  0  0  0  0  0  0  0  0\u000a   -3.1104   -1.8492    0.0000 C   0  0  0  0  0  0  0  0  0  0  0  0\u000a   -3.4738   -0.4824    0.0000 C   0  0  0  0  0  0  0  0  0  0  0  0\u000a   -1.7418   -0.4860    0.0000 C   0  0  0  0  0  0  0  0  0  0  0  0\u000a   -1.7396    0.5140    0.0000 C   0  0  0  0  0  0  0  0  0  0  0  0\u000a   -0.8726    1.0124    0.0000 C   0  0  0  0  0  0  0  0  0  0  0  0\u000a   -0.0076    0.5106    0.0000 C   0  0  0  0  0  0  0  0  0  0  0  0\u000a    0.8594    1.0088    0.0000 C   0  0  0  0  0  0  0  0  0  0  0  0\u000a    0.8614    2.0088    0.0000 C   0  0  0  0  0  0  0  0  0  0  0  0\u000a   -0.0036    2.5106    0.0000 C   0  0  0  0  0  0  0  0  0  0  0  0\u000a   -0.0016    3.5106    0.0000 C   0  0  0  0  0  0  0  0  0  0  0  0\u000a    0.8654    4.0088    0.0000 C   0  0  0  0  0  0  0  0  0  0  0  0\u000a    1.7304    3.5070    0.0000 C   0  0  0  0  0  0  0  0  0  0  0  0\u000a    1.7284    2.5070    0.0000 C   0  0  0  0  0  0  0  0  0  0  0  0\u000a    2.5934    2.0054    0.0000 O   0  0  0  0  0  0  0  0  0  0  0  0\u000a    3.4604    2.5036    0.0000 B   0  0  0  0  0  0  0  0  0  0  0  0\u000a    4.3254    2.0020    0.0000 O   0  0  0  0  0  0  0  0  0  0  0  0\u000a    3.4624    3.5036    0.0000 O   0  0  0  0  0  0  0  0  0  0  0  0\u000a    1.7244    0.5072    0.0000 N   0  0  0  0  0  0  0  0  0  0  0  0\u000a    1.7224   -0.4928    0.0000 C   0  0  0  0  0  0  0  0  0  0  0  0\u000a    2.5874   -0.9946    0.0000 C   0  0  0  0  0  0  0  0  0  0  0  0\u000a    3.4544   -0.4962    0.0000 C   0  0  0  0  0  0  0  0  0  0  0  0\u000a    3.4564    0.5038    0.0000 C   0  0  0  0  0  0  0  0  0  0  0  0\u000a    2.5914    1.0054    0.0000 C   0  0  0  0  0  0  0  0  0  0  0  0\u000a   -0.0098   -0.4894    0.0000 C   0  0  0  0  0  0  0  0  0  0  0  0\u000a   -0.8768   -0.9876    0.0000 C   0  0  0  0  0  0  0  0  0  0  0  0\u000a  1  2  1  0\u000a  2  3  1  0\u000a  2  4  1  0\u000a  2  5  1  0\u000a  5  6  2  0\u000a  6  7  1  0\u000a  7  8  2  0\u000a  8  9  1  0\u000a  9 10  1  0\u000a 10 11  2  0\u000a 11 12  1  0\u000a 12 13  2  0\u000a 13 14  1  0\u000a 14 15  2  0\u000a 15 16  1  0\u000a 16 17  1  0\u000a 17 18  1  0\u000a 17 19  1  0\u000a  9 20  1  0\u000a 20 21  1  0\u000a 21 22  1  0\u000a 22 23  1  0\u000a 23 24  1  0\u000a 24 25  1  0\u000a  8 26  1  0\u000a 26 27  2  0\u000a 27  5  1  0\u000a 15 10  1  0\u000a 25 20  1  0\u000aM  END\u000a
p330
sg306
VC22H30BNO3
p331
sg327
g254
sg309
g310
ssg257
(dp332
g301
I4
sg302
(lp333
g199
ag261
asg304
V\u000a     RDKit          2D\u000a\u000a 27 29  0  0  0  0  0  0  0  0999 V2000\u000a   -4.1818   -3.7108    0.0000 C   0  0  0  0  0  0  0  0  0  0  0  0\u000a   -4.6824   -2.8452    0.0000 C   0  0  0  0  0  0  0  0  0  0  0  0\u000a   -5.1818   -3.7116    0.0000 C   0  0  0  0  0  0  0  0  0  0  0  0\u000a   -5.5488   -2.3458    0.0000 C   0  0  0  0  0  0  0  0  0  0  0  0\u000a   -3.8168   -2.3444    0.0000 C   0  0  0  0  0  0  0  0  0  0  0  0\u000a   -3.8176   -1.3444    0.0000 C   0  0  0  0  0  0  0  0  0  0  0  0\u000a   -2.9520   -0.8438    0.0000 C   0  0  0  0  0  0  0  0  0  0  0  0\u000a   -2.0856   -1.3430    0.0000 C   0  0  0  0  0  0  0  0  0  0  0  0\u000a   -1.2200   -0.8424    0.0000 B   0  0  0  0  0  4  0  0  0  0  0  0\u000a   -1.7206    0.0232    0.0000 O   0  0  0  0  0  0  0  0  0  0  0  0\u000a   -0.7206    0.0240    0.0000 O   0  0  0  0  0  0  0  0  0  0  0  0\u000a   -0.3536   -1.3416    0.0000 O   0  0  0  0  0  0  0  0  0  0  0  0\u000a    0.5120   -0.8410    0.0000 C   0  0  0  0  0  0  0  0  0  0  0  0\u000a    0.5112    0.1590    0.0000 C   0  0  0  0  0  0  0  0  0  0  0  0\u000a    1.3768    0.6598    0.0000 C   0  0  0  0  0  0  0  0  0  0  0  0\u000a    2.2432    0.1604    0.0000 C   0  0  0  0  0  0  0  0  0  0  0  0\u000a    2.2440   -0.8396    0.0000 C   0  0  0  0  0  0  0  0  0  0  0  0\u000a    1.3784   -1.3402    0.0000 C   0  0  0  0  0  0  0  0  0  0  0  0\u000a    1.3792   -2.3402    0.0000 C   0  0  0  0  0  0  0  0  0  0  0  0\u000a    2.2456   -2.8396    0.0000 N   0  0  0  0  0  4  0  0  0  0  0  0\u000a    2.2464   -3.8396    0.0000 C   0  0  0  0  0  0  0  0  0  0  0  0\u000a    3.1128   -4.3390    0.0000 C   0  0  0  0  0  0  0  0  0  0  0  0\u000a    3.9784   -3.8382    0.0000 C   0  0  0  0  0  0  0  0  0  0  0  0\u000a    3.9776   -2.8382    0.0000 C   0  0  0  0  0  0  0  0  0  0  0  0\u000a    3.1112   -2.3390    0.0000 C   0  0  0  0  0  0  0  0  0  0  0  0\u000a   -2.0848   -2.3430    0.0000 C   0  0  0  0  0  0  0  0  0  0  0  0\u000a   -2.9504   -2.8438    0.0000 C   0  0  0  0  0  0  0  0  0  0  0  0\u000a  1  2  1  0\u000a  2  3  1  0\u000a  2  4  1  0\u000a  2  5  1  0\u000a  5  6  2  0\u000a  6  7  1  0\u000a  7  8  2  0\u000a  8  9  1  0\u000a  9 10  1  0\u000a  9 11  1  0\u000a  9 12  1  0\u000a 12 13  1  0\u000a 13 14  2  0\u000a 14 15  1  0\u000a 15 16  2  0\u000a 16 17  1  0\u000a 17 18  2  0\u000a 18 19  1  0\u000a 19 20  2  3\u000a 20 21  1  0\u000a 21 22  1  0\u000a 22 23  1  0\u000a 23 24  1  0\u000a 24 25  1  0\u000a  8 26  1  0\u000a 26 27  2  0\u000a 27  5  1  0\u000a 18 13  1  0\u000a 25 20  1  0\u000aM  CHG  2   9  -1  20   1\u000aM  END\u000a
p334
sg306
g331
sg327
g257
sg309
g310
ssg199
(dp335
g301
I3
sg302
(lp336
g196
asg304
V\u000a     RDKit          2D\u000a\u000a 14 15  0  0  0  0  0  0  0  0999 V2000\u000a   -0.4936   -1.8660    0.0000 O   0  0  0  0  0  1  0  0  0  0  0  0\u000a   -1.3628   -1.3716    0.0000 C   0  0  0  0  0  0  0  0  0  0  0  0\u000a   -2.2256   -1.8770    0.0000 C   0  0  0  0  0  0  0  0  0  0  0  0\u000a   -3.0948   -1.3826    0.0000 C   0  0  0  0  0  0  0  0  0  0  0  0\u000a   -3.1012   -0.3826    0.0000 C   0  0  0  0  0  0  0  0  0  0  0  0\u000a   -2.2384    0.1228    0.0000 C   0  0  0  0  0  0  0  0  0  0  0  0\u000a   -1.3692   -0.3716    0.0000 C   0  0  0  0  0  0  0  0  0  0  0  0\u000a   -0.5064    0.1340    0.0000 C   0  0  0  0  0  0  0  0  0  0  0  0\u000a    0.3628   -0.3604    0.0000 N   0  0  0  0  0  4  0  0  0  0  0  0\u000a    1.2256    0.1450    0.0000 C   0  0  0  0  0  0  0  0  0  0  0  0\u000a    2.0948   -0.3494    0.0000 C   0  0  0  0  0  0  0  0  0  0  0  0\u000a    2.1012   -1.3494    0.0000 C   0  0  0  0  0  0  0  0  0  0  0  0\u000a    1.2384   -1.8548    0.0000 C   0  0  0  0  0  0  0  0  0  0  0  0\u000a    0.3692   -1.3604    0.0000 C   0  0  0  0  0  0  0  0  0  0  0  0\u000a  1  2  1  0\u000a  2  3  2  0\u000a  3  4  1  0\u000a  4  5  2  0\u000a  5  6  1  0\u000a  6  7  2  0\u000a  7  8  1  0\u000a  8  9  2  3\u000a  9 10  1  0\u000a 10 11  1  0\u000a 11 12  1  0\u000a 12 13  1  0\u000a 13 14  1  0\u000a  7  2  1  0\u000a 14  9  1  0\u000aM  CHG  2   1  -1   9   1\u000aM  END\u000a
p337
sg306
VC12H15NO
p338
sg327
g199
sg309
g310
ssg196
(dp339
g301
I2
sg302
(lp340
g270
asg304
V\u000a     RDKit          2D\u000a\u000a 14 15  0  0  0  0  0  0  0  0999 V2000\u000a   -0.4936   -1.8660    0.0000 O   0  0  0  0  0  0  0  0  0  0  0  0\u000a   -1.3628   -1.3716    0.0000 C   0  0  0  0  0  0  0  0  0  0  0  0\u000a   -2.2256   -1.8770    0.0000 C   0  0  0  0  0  0  0  0  0  0  0  0\u000a   -3.0948   -1.3826    0.0000 C   0  0  0  0  0  0  0  0  0  0  0  0\u000a   -3.1012   -0.3826    0.0000 C   0  0  0  0  0  0  0  0  0  0  0  0\u000a   -2.2384    0.1228    0.0000 C   0  0  0  0  0  0  0  0  0  0  0  0\u000a   -1.3692   -0.3716    0.0000 C   0  0  0  0  0  0  0  0  0  0  0  0\u000a   -0.5064    0.1340    0.0000 C   0  0  0  0  0  0  0  0  0  0  0  0\u000a    0.3628   -0.3604    0.0000 N   0  0  0  0  0  4  0  0  0  0  0  0\u000a    1.2256    0.1450    0.0000 C   0  0  0  0  0  0  0  0  0  0  0  0\u000a    2.0948   -0.3494    0.0000 C   0  0  0  0  0  0  0  0  0  0  0  0\u000a    2.1012   -1.3494    0.0000 C   0  0  0  0  0  0  0  0  0  0  0  0\u000a    1.2384   -1.8548    0.0000 C   0  0  0  0  0  0  0  0  0  0  0  0\u000a    0.3692   -1.3604    0.0000 C   0  0  0  0  0  0  0  0  0  0  0  0\u000a  1  2  1  0\u000a  2  3  2  0\u000a  3  4  1  0\u000a  4  5  2  0\u000a  5  6  1  0\u000a  6  7  2  0\u000a  7  8  1  0\u000a  8  9  2  3\u000a  9 10  1  0\u000a 10 11  1  0\u000a 11 12  1  0\u000a 12 13  1  0\u000a 13 14  1  0\u000a  7  2  1  0\u000a 14  9  1  0\u000aM  CHG  1   9   1\u000aM  END\u000a
p341
sg306
VC12H16NO+
p342
sg327
g196
sg309
g310
ssg270
(dp343
g301
I1
sg302
(lp344
g274
ag45
asg304
V\u000a     RDKit          2D\u000a\u000a 15 16  0  0  0  0  0  0  0  0999 V2000\u000a    1.3666   -2.4648    0.0000 O   0  0  0  0  0  0  0  0  0  0  0  0\u000a    0.5010   -1.9640    0.0000 C   0  0  0  0  0  0  0  0  0  0  0  0\u000a   -0.3654   -2.4634    0.0000 C   0  0  0  0  0  0  0  0  0  0  0  0\u000a   -1.2310   -1.9628    0.0000 C   0  0  0  0  0  0  0  0  0  0  0  0\u000a   -1.2302   -0.9628    0.0000 C   0  0  0  0  0  0  0  0  0  0  0  0\u000a   -0.3638   -0.4634    0.0000 C   0  0  0  0  0  0  0  0  0  0  0  0\u000a    0.5018   -0.9640    0.0000 C   0  0  0  0  0  0  0  0  0  0  0  0\u000a    1.3682   -0.4648    0.0000 C   0  0  0  0  0  0  0  0  0  0  0  0\u000a    2.2338   -0.9654    0.0000 O   0  0  0  0  0  0  0  0  0  0  0  0\u000a    1.3690    0.5352    0.0000 N   0  0  0  0  0  4  0  0  0  0  0  0\u000a    0.5034    1.0360    0.0000 C   0  0  0  0  0  0  0  0  0  0  0  0\u000a    0.5042    2.0360    0.0000 C   0  0  0  0  0  0  0  0  0  0  0  0\u000a    1.3706    2.5352    0.0000 C   0  0  0  0  0  0  0  0  0  0  0  0\u000a    2.2362    2.0346    0.0000 C   0  0  0  0  0  0  0  0  0  0  0  0\u000a    2.2354    1.0346    0.0000 C   0  0  0  0  0  0  0  0  0  0  0  0\u000a  1  2  1  0\u000a  2  3  2  0\u000a  3  4  1  0\u000a  4  5  2  0\u000a  5  6  1  0\u000a  6  7  2  0\u000a  7  8  1  0\u000a  8  9  1  0\u000a  8 10  1  0\u000a 10 11  1  0\u000a 11 12  1  0\u000a 12 13  1  0\u000a 13 14  1  0\u000a 14 15  1  0\u000a  7  2  1  0\u000a 15 10  1  0\u000aM  CHG  1  10   1\u000aM  END\u000a
p345
sg306
VC12H18NO2+
p346
sg327
g270
sg309
g310
ssg81
(dp347
g301
I0
sg302
(lp348
sg304
V\u000a     RDKit          2D\u000a\u000a  1  0  0  0  0  0  0  0  0  0999 V2000\u000a    0.0000    0.0000    0.0000 O   0  0  0  0  0  0  0  0  0  0  0  0\u000aM  END\u000a
p349
sg306
VH2O
p350
sg309
g79
sg316
(lp351
(lp352
g270
aassg118
(dp353
g301
I6
sg302
(lp354
g254
ag81
asg306
VH3BO3
p355
sg304
V\u000a     RDKit          2D\u000a\u000a  4  3  0  0  0  0  0  0  0  0999 V2000\u000a   -0.9992    1.0000    0.0000 O   0  0  0  0  0  0  0  0  0  0  0  0\u000a   -1.0000    0.0000    0.0000 B   0  0  0  0  0  0  0  0  0  0  0  0\u000a   -0.1344   -0.5006    0.0000 O   0  0  0  0  0  0  0  0  0  0  0  0\u000a   -1.8664   -0.4994    0.0000 O   0  0  0  0  0  0  0  0  0  0  0  0\u000a  1  2  1  0\u000a  2  3  1  0\u000a  2  4  1  0\u000aM  END\u000a
p356
sg327
g118
sg309
Vbyprod
p357
ssg190
(dp358
g301
I3
sg302
(lp359
g196
asg306
VK+
p360
sg304
V\u000a     RDKit          2D\u000a\u000a  1  0  0  0  0  0  0  0  0  0999 V2000\u000a    0.0000    0.0000    0.0000 K   0  0  0  0  0 15  0  0  0  0  0  0\u000aM  CHG  1   1   1\u000aM  END\u000a
p361
sg327
g190
sg309
g357
ssg265
(dp362
g301
I3
sg302
(lp363
g196
asg306
VCHO3-
p364
sg304
V\u000a     RDKit          2D\u000a\u000a  4  3  0  0  0  0  0  0  0  0999 V2000\u000a   -0.9992    1.0000    0.0000 O   0  0  0  0  0  0  0  0  0  0  0  0\u000a   -1.0000    0.0000    0.0000 C   0  0  0  0  0  0  0  0  0  0  0  0\u000a   -0.1344   -0.5006    0.0000 O   0  0  0  0  0  1  0  0  0  0  0  0\u000a   -1.8664   -0.4994    0.0000 O   0  0  0  0  0  0  0  0  0  0  0  0\u000a  1  2  2  0\u000a  2  3  1  0\u000a  2  4  1  0\u000aM  CHG  1   3  -1\u000aM  END\u000a
p365
sg327
g265
sg309
g357
ssg279
(dp366
g301
I1
sg302
(lp367
g274
asg306
VC7H7O2+
p368
sg304
V\u000a     RDKit          2D\u000a\u000a  9  9  0  0  0  0  0  0  0  0999 V2000\u000a    0.8760   -0.9344    0.0000 O   0  0  0  0  0  0  0  0  0  0  0  0\u000a    0.0104   -0.4338    0.0000 C   0  0  0  0  0  0  0  0  0  0  0  0\u000a   -0.8560   -0.9330    0.0000 C   0  0  0  0  0  0  0  0  0  0  0  0\u000a   -1.7216   -0.4324    0.0000 C   0  0  0  0  0  0  0  0  0  0  0  0\u000a   -1.7208    0.5676    0.0000 C   0  0  0  0  0  0  0  0  0  0  0  0\u000a   -0.8544    1.0670    0.0000 C   0  0  0  0  0  0  0  0  0  0  0  0\u000a    0.0112    0.5662    0.0000 C   0  0  0  0  0  0  0  0  0  0  0  0\u000a    0.8776    1.0656    0.0000 C   0  0  0  0  0  0  0  0  0  0  0  0\u000a    0.8784    2.0656    0.0000 O   0  0  0  0  0  3  0  0  0  0  0  0\u000a  1  2  1  0\u000a  2  3  2  0\u000a  3  4  1  0\u000a  4  5  2  0\u000a  5  6  1  0\u000a  6  7  2  0\u000a  7  8  1  0\u000a  8  9  2  0\u000a  7  2  1  0\u000aM  CHG  1   9   1\u000aM  END\u000a
p369
sg327
g279
sg309
g6
sssVallSteps
p370
(dp371
g285
(dp372
VlinkType
p373
Vmain
p374
ssg287
(dp375
g373
g374
ssg289
(dp376
g373
g374
ssg291
(dp377
g373
g374
ssg293
(dp378
g373
g374
ssg295
(dp379
g373
g374
ss((g274
tp380
g279
(g18
tp381
tp382
(dp383
g373
g374
ssg297
(dp384
g373
Valter
p385
sssVallLink
p386
(dp387
(g254
g118
VHydrolysis of boronic esters
p388
tp389
(lp390
(dp391
Vtarget
p392
g118
sVsource
p393
g254
sg23
g388
sVrxsmiles
p394
g124
sg27
VDCM, rt<BR> allow temp:rt, allow AB: SB.B.N.A.SA
p395
sg33
VDCM
p396
sVtype
p397
g374
sas(g81
g118
g388
tp398
(lp399
(dp400
g392
g118
sg393
g81
sg23
g388
sg394
g124
sg27
g395
sg33
g396
sg397
g374
sas(g254
g251
g388
tp401
(lp402
(dp403
g392
g251
sg393
g254
sg23
g388
sg394
g124
sg27
g395
sg33
g396
sg397
g374
sas(g81
g251
g388
tp404
(lp405
(dp406
g392
g251
sg393
g81
sg23
g388
sg394
g124
sg27
g395
sg33
g396
sg397
g374
sas(g257
g254
VAddition of boronates to iminium cations
p407
tp408
(lp409
(dp410
g392
g254
sg393
g257
sg23
g407
sg394
VCC(C)(C)c1ccc([B-](O)(O)Oc2ccccc2C=[N+]2CCCCC2)cc1>>CC(C)(C)c1ccc(C(c2ccccc2OB(O)O)N2CCCCC2)cc1.
p411
sg27
VDCM, rt<BR> allow temp:rt, allow AB: N.WB.B.SB
p412
sg33
g396
sg397
g374
sas(g199
g257
VAddition of alcohol/phenol to boronic acids
p413
tp414
(lp415
(dp416
g392
g257
sg393
g199
sg23
g413
sg394
V[O-]c1ccccc1C=[N+]1CCCCC1.CC(C)(C)c1ccc(B(O)O)cc1>>CC(C)(C)c1ccc([B-](O)(O)Oc2ccccc2C=[N+]2CCCCC2)cc1.
p417
sg27
g412
sg33
g396
sg397
g374
sas(g261
g257
g413
tp418
(lp419
(dp420
g392
g257
sg393
g261
sg23
g413
sg394
g417
sg27
g412
sg33
g396
sg397
g374
sas(g196
g190
VPhenol deprotonation
p421
tp422
(lp423
(dp424
g392
g190
sg393
g196
sg23
g421
sg394
VOc1ccccc1C=[N+]1CCCCC1>>[O-]c1ccccc1C=[N+]1CCCCC1.OC([O-])=O.[K+].[K+]
p425
sg27
VK2CO3<BR> allow temp:L.rt.H, allow AB: WB.B.SB
p426
sg33
VDMF
p427
sg397
g374
sas(g196
g265
g421
tp428
(lp429
(dp430
g392
g265
sg393
g196
sg23
g421
sg394
g425
sg27
g426
sg33
g427
sg397
g374
sas(g196
g199
g421
tp431
(lp432
(dp433
g392
g199
sg393
g196
sg23
g421
sg394
g425
sg27
g426
sg33
g427
sg397
g374
sas(g270
g81
VIminium cation formation
p434
tp435
(lp436
(dp437
g392
g81
sg393
g270
sg23
g434
sg394
g224
sg27
VAcOH, EtOH<BR> allow temp:RT.H, allow AB: WA.N.WB.LA
p438
sg33
g34
sg397
g385
sas(g270
g196
g434
tp439
(lp440
(dp441
g392
g196
sg393
g270
sg23
g434
sg394
g224
sg27
g438
sg33
g34
sg397
g374
sas(g274
g270
VAddition of secondary amine to aldehyde
p442
tp443
(lp444
(dp445
g392
g270
sg393
g274
sg23
g442
sg394
VO=Cc1ccccc1O.C1CCNCC1>>Oc1ccccc1C(O)[NH+]1CCCCC1.
p446
sg27
g438
sg33
g34
sg397
g374
sas(g45
g270
g442
tp447
(lp448
(dp449
g392
g270
sg393
g45
sg23
g442
sg394
g446
sg27
g438
sg33
g34
sg397
g374
sas(g274
g279
g24
tp450
(lp451
(dp452
g392
g279
sg393
g274
sg23
g24
sg27
g28
sg33
g34
sg397
g374
sas(g270
g274
g47
tp453
(lp454
(dp455
g392
g274
sg393
g270
sg23
g47
sg27
g49
sg33
g51
sg397
g385
sassVtargetSmiles
p456
g251
sVidToFullRx
p457
(dp458
I1
(dp459
g14
g86
sg91
(dp460
g93
F0.0
sg94
I0
sg95
I0
sg96
(lp461
g87
asg98
(lp462
(lp463
(lp464
g102
ag103
aa(lp465
(lp466
g106
ag107
aaaasg21
g108
sg109
I-2
ssg16
(lp467
g87
asg111
I0
sg112
(lp468
I1
aI2
aI3
aI4
aI5
asg114
(dp469
g116
(lp470
g118
asg119
(lp471
(lp472
g32
aassg122
(lp473
I1
asg36
g124
sg37
I00
sg38
I00
sg55
F-8.77229999999986
sg56
I00
ssI2
(dp474
g14
g125
sg91
(dp475
g93
F0.0
sg94
I0
sg95
I0
sg96
(lp476
g126
asg98
(lp477
(lp478
(lp479
g135
aa(lp480
(lp481
g102
aaaasg21
g138
sg109
I-2
ssg16
(lp482
g126
asg111
I1
sg112
(lp483
I2
aI3
aI4
aI5
asg114
(dp484
g116
(lp485
sg119
(lp486
(lp487
g32
aassg122
(lp488
I2
asg36
g125
sg37
I00
sg38
I00
sg55
F-75.65669000000003
sg56
I00
ssI3
(dp489
g14
g146
sg91
(dp490
g93
F0.0
sg94
I0
sg95
I0
sg96
(lp491
g147
asg98
(lp492
(lp493
(lp494
g156
ag157
aa(lp495
(lp496
g135
aaaasg21
g160
sg109
I-2
ssg16
(lp497
g147
asg111
I2
sg112
(lp498
I3
aI4
aI5
asg114
(dp499
g116
(lp500
sg119
(lp501
(lp502
g32
aassg122
(lp503
I3
asg36
g168
sg37
I00
sg38
I00
sg55
F-35.27230999999995
sg56
I00
ssI4
(dp504
g14
g169
sg91
(dp505
g93
F0.0
sg94
I0
sg95
I0
sg96
(lp506
g170
asg98
(lp507
(lp508
(lp509
g179
aa(lp510
(lp511
g157
aaaasg21
g182
sg109
I-2
ssg16
(lp512
g170
asg111
I3
sg112
(lp513
I4
aI5
asg114
(dp514
g116
(lp515
sg119
(lp516
(lp517
g189
ag190
ag190
aassg122
(lp518
I4
asg36
g169
sg37
I00
sg38
(lp519
g193
a(dp520
g195
g196
sg197
g179
sg198
g199
sg200
g157
sg201
g199
sasg55
F36.94552
sg56
I00
ssI5
(dp521
g14
g202
sg91
(dp522
g93
F0.0
sg94
I0
sg95
I0
sg96
(lp523
g203
asg98
(lp524
(lp525
(lp526
g212
aa(lp527
(lp528
g179
ag215
aaaasg21
g216
sg109
I-2
ssg16
(lp529
g203
asg111
I4
sg112
(lp530
I5
asg114
(dp531
g116
(lp532
g81
asg119
(lp533
(lp534
g32
aassg122
(lp535
I5
asg36
g224
sg37
I00
sg38
I00
sg55
F-47.96627999999998
sg56
I00
ssI6
(dp536
g14
g225
sg91
(dp537
g93
F0.0
sg94
I0
sg95
I0
sg96
(lp538
g226
asg98
(lp539
(lp540
(lp541
g235
ag236
aa(lp542
(lp543
g212
aaaasg21
g239
sg109
I-2
ssg16
(lp544
g226
asg111
I5
sg112
(lp545
sg114
(dp546
g116
(lp547
sg119
(lp548
(lp549
g32
aassg122
(lp550
sg36
g247
sg37
I00
sg38
I00
sg248
F4.290000000000001
sg55
F17.045050000000003
sg56
I00
ssI8
(dp551
g14
g41
sg16
(lp552
g43
asg19
(lp553
g45
asg21
g46
sg23
g47
sg25
g48
sg27
g49
sg29
g50
sg31
g32
sg33
g51
sg35
(lp554
g53
asg36
g54
sg37
I00
sg38
I00
sg55
F-17.045050000000003
sg56
I00
ssV3_REV
p555
(dp556
g14
VCC(C)(C)c1ccc([B-](O)(O)Oc2ccccc2C=[N+]2CCCCC2)cc1>>[O-]c1ccccc1C=[N+]1CCCCC1.CC(C)(C)c1ccc(B(O)O)cc1
p557
sg91
(dp558
g93
F0.0
sg94
I0
sg95
I0
sg96
(lp559
g147
asg98
(lp560
(lp561
(lp562
g156
ag157
aa(lp563
(lp564
g135
aaaasg21
g160
sg109
I-2
ssg16
(lp565
g147
asg111
I2
sg112
(lp566
I3
aI4
aI5
asg114
(dp567
g116
(lp568
sg119
(lp569
(lp570
g32
aassg122
(lp571
I3
asg36
VCC(C)(C)c1ccc([B-](O)(O)Oc2ccccc2C=[N+]2CCCCC2)cc1>>CC(C)(C)c1ccc(B(O)O)cc1.[O-]c1ccccc1C=[N+]1CCCCC1
p572
sg37
I00
sg38
I00
sVorigin
p573
Vhand-made reverse rx
p574
sg55
F35.27230999999995
sg56
I00
ssV5_REV
p575
(dp576
g14
VOc1ccccc1C=[N+]1CCCCC1>>Oc1ccccc1C(O)[NH+]1CCCCC1
p577
sg91
(dp578
g93
F0.0
sg94
I0
sg95
I0
sg96
(lp579
g203
asg98
(lp580
(lp581
(lp582
g212
aa(lp583
(lp584
g179
ag215
aaaasg21
g216
sg109
I-2
ssg16
(lp585
g203
asg111
I4
sg112
(lp586
I5
asg114
(dp587
g116
(lp588
g81
asg119
(lp589
(lp590
g32
aassg122
(lp591
I5
asg36
VOc1ccccc1C=[N+]1CCCCC1.O>>Oc1ccccc1C(O)[NH+]1CCCCC1
p592
sg37
I00
sg38
I00
sg573
g574
sg55
F47.96627999999998
sg56
I00
sssVacidBase
p593
(dp594
VwildForms
p595
g67
((lp596
g199
ag270
ag279
atp597
Rp598
ssVrxAvail
p599
(dp600
Vgen
p601
(dp602
sVcmd
p603
(dp604
g254
g67
((lp605
I1
atp606
Rp607
sssVtargetWildForms
p608
g67
((lp609
VCC(C)(C)c1ccc(C(c2ccccc2[O-])N2CCCCC2)cc1
p610
atp611
Rp612
ssVcommon
p613
(dp614
Vfixed
p615
(dp616
(VCC(C)(C)c1ccc(C(c2ccccc2OB(O)O)N2CCCCC2)cc1>>CC(C)(C)c1ccc(C(c2ccccc2O)N2CCCCC2)cc1
p617
(g87
tp618
tp619
(lp620
ssVallowedCond
p621
(dp622
Vfull
p623
(lp624
(lp625
(VWA.N.WB.LA
p626
VRT.H
p627
tp628
ag628
a(VWB.B.SB
p629
VL.rt.H
p630
tp631
a(VN.WB.B.SB
p632
Vrt
p633
tp634
ag634
a(VSB.B.N.A.SA
p635
g633
tp636
aasVminimalVariants
p637
(lp638
(lp639
(c__builtin__
frozenset
p640
((lp641
g73
atp642
Rp643
g640
((lp644
g66
atp645
Rp646
tp647
a(g640
((lp648
g73
atp649
Rp650
g640
((lp651
g66
atp652
Rp653
tp654
a(g640
((lp655
g73
atp656
Rp657
g640
((lp658
g66
atp659
Rp660
tp661
a(g640
((lp662
g73
atp663
Rp664
g640
((lp665
g66
atp666
Rp667
tp668
a(g640
((lp669
g73
atp670
Rp671
g640
((lp672
g66
atp673
Rp674
tp675
a(g640
((lp676
g70
ag71
ag75
ag72
ag69
atp677
Rp678
g640
((lp679
g66
atp680
Rp681
tp682
aasVstepsVariants
p683
(lp684
(lp685
(VO=Cc1ccccc1O.C1CCNCC1>>Oc1ccccc1C(O)[NH+]1CCCCC1
p686
(g226
tp687
tp688
a(VOc1ccccc1C(O)[NH+]1CCCCC1>>Oc1ccccc1C=[N+]1CCCCC1
p689
(g203
tp690
tp691
a(VOc1ccccc1C=[N+]1CCCCC1>>[O-]c1ccccc1C=[N+]1CCCCC1
p692
(g170
tp693
tp694
a(V[O-]c1ccccc1C=[N+]1CCCCC1.CC(C)(C)c1ccc(B(O)O)cc1>>CC(C)(C)c1ccc([B-](O)(O)Oc2ccccc2C=[N+]2CCCCC2)cc1
p695
(g147
tp696
tp697
a(VCC(C)(C)c1ccc([B-](O)(O)Oc2ccccc2C=[N+]2CCCCC2)cc1>>CC(C)(C)c1ccc(C(c2ccccc2OB(O)O)N2CCCCC2)cc1
p698
(g126
tp699
tp700
a(VCC(C)(C)c1ccc(C(c2ccccc2OB(O)O)N2CCCCC2)cc1>>CC(C)(C)c1ccc(C(c2ccccc2O)N2CCCCC2)cc1
p701
(g87
tp702
tp703
aasVcatUsage
p704
(lp705
(lp706
I5
aasVconditionsOcc
p707
(lp708
(dp709
Vtemp
p710
(dp711
g66
(lp712
I0
aI1
aI2
aI3
aI4
aI5
assVAB
p713
(dp714
g73
(lp715
I0
aI1
aI2
aI3
aI4
asg69
(lp716
I5
asg71
(lp717
I5
asg70
(lp718
I5
asg75
(lp719
I5
asg72
(lp720
I5
assasVminimalPozBeforeChangeToTarget
p721
(lp722
(dp723
I4
VCC(C)(C)c1ccc(C(c2ccccc2OB(O)O)N2CCCCC2)cc1
p724
sasVrxToGenSbs
p725
(dp726
g700
I5
sg703
I6
sg697
I4
sg694
I3
sg691
I2
sg688
I1
ssVrxToGenProd
p727
(dp728
g700
I1
sg703
I0
sg697
I2
sg694
I3
sg691
I4
sg688
I5
sssVworkingCond
p729
(lp730
((I0
(g640
((lp731
g73
atp732
Rp733
g640
((lp734
g66
atp735
Rp736
tp737
tp738
(I5
(g640
((lp739
g70
ag71
ag75
ag72
ag69
atp740
Rp741
g640
((lp742
g66
atp743
Rp744
tp745
tp746
tp747
asVallInitSbs
p748
g67
((lp749
g45
aVCC(C)(C)c1ccc(B(O)O)cc1
p750
aVO=Cc1ccccc1O
p751
atp752
Rp753
sVisOnepot
p754
I00
sVrxEnableCmd
p755
(dp756
VCC(C)(C)c1ccc(C(c2ccccc2OB(O)O)N2CCCCC2)cc1
p757
(lp758
(dp759
Vrx
p760
(VCC(C)(C)c1ccc(C(c2ccccc2OB(O)O)N2CCCCC2)cc1>>CC(C)(C)c1ccc(C(c2ccccc2O)N2CCCCC2)cc1
p761
(g87
tp762
tp763
sVcat
p764
(g81
tp765
sassVonePot
p766
(dp767
V[O-]c1ccccc1C=[N+]1CCCCC1
p768
(lp769
(dp770
g760
(V[O-]c1ccccc1C=[N+]1CCCCC1.CC(C)(C)c1ccc(B(O)O)cc1>>CC(C)(C)c1ccc([B-](O)(O)Oc2ccccc2C=[N+]2CCCCC2)cc1
p771
(g147
tp772
tp773
sVsubs
p774
VCC(C)(C)c1ccc(B(O)O)cc1
p775
sasVCC(C)(C)c1ccc(C(c2ccccc2OB(O)O)N2CCCCC2)cc1
p776
(lp777
(dp778
g760
(VCC(C)(C)c1ccc(C(c2ccccc2OB(O)O)N2CCCCC2)cc1>>CC(C)(C)c1ccc(C(c2ccccc2O)N2CCCCC2)cc1
p779
(g87
tp780
tp781
sg774
g81
sassVacidBase
p782
(dp783
VnoMainForm
p784
g67
((lp785
VO=Cc1ccccc1O
p786
aVCC(C)(C)c1ccc([B-](O)(O)Oc2ccccc2C=O)cc1
p787
aVCC(C)(C)c1ccc(C(c2ccccc2O[B-](O)(O)c2ccc(C(C)(C)C)cc2)N2CCCCC2)cc1
p788
ag45
aVCC(C)(C)c1ccc(C(c2ccccc2OB(O)O)N2CCCCC2)cc1
p789
aVCC(C)(C)c1ccc([B-](O)(O)Oc2ccccc2C=[N+]2CCCCC2)cc1
p790
aVCC(C)(C)c1ccc(C(c2ccccc2O)N2CCCCC2)cc1
p791
aVCC(C)(C)c1ccc(B(O)O)cc1
p792
atp793
Rp794
sVwildToMain
p795
(dp796
V[O-]c1ccccc1C=[N+]1CCCCC1
p797
VOc1ccccc1C=[N+]1CCCCC1
p798
sVOc1ccccc1C(O)[NH+]1CCCCC1
p799
VOc1ccccc1C(O)N1CCCCC1
p800
sVOc1ccccc1C=[OH+]
p801
g786
sVO=Cc1ccccc1[O-]
p802
g786
sV[O-]c1ccccc1C(O)N1CCCCC1
p803
g800
sVO=C([O-])O
p804
VO=C(O)O
p805
sVCC(C)(C)c1ccc(C(c2ccccc2[O-])N2CCCCC2)cc1
p806
g791
sV[O-]C(c1ccccc1O)N1CCCCC1
p807
g800
sV[O-]c1ccccc1C(O)[NH+]1CCCCC1
p808
g800
sVOc1ccccc1C([OH2+])N1CCCCC1
p809
g800
ssVmainToWild
p810
(dp811
g798
g67
((lp812
g797
atp813
Rp814
sg800
g67
((lp815
g799
ag809
ag808
ag807
ag803
atp816
Rp817
sg786
g67
((lp818
g802
ag801
atp819
Rp820
sg805
g67
((lp821
g804
atp822
Rp823
sg791
g67
((lp824
g806
atp825
Rp826
ssVwildFormType
p827
(dp828
g797
VM
p829
sg799
g71
sg801
g71
sg802
g72
sg803
g72
sg804
g72
sg806
g72
sg807
g72
sg808
g829
sg809
g71
sssVmainPathInfo
p830
(dp831
VisWaterSbs
p832
I00
sVisWaterCondNeeded
p833
I01
sVreactiveSubstrates
p834
(dp835
sVrxes
p836
(lp837
(VCC(C)(C)c1ccc(C(c2ccccc2OB(O)O)N2CCCCC2)cc1>>CC(C)(C)c1ccc(C(c2ccccc2O)N2CCCCC2)cc1
p838
(g87
tp839
tp840
a(VCC(C)(C)c1ccc([B-](O)(O)Oc2ccccc2C=[N+]2CCCCC2)cc1>>CC(C)(C)c1ccc(C(c2ccccc2OB(O)O)N2CCCCC2)cc1
p841
(g126
tp842
tp843
a(V[O-]c1ccccc1C=[N+]1CCCCC1.CC(C)(C)c1ccc(B(O)O)cc1>>CC(C)(C)c1ccc([B-](O)(O)Oc2ccccc2C=[N+]2CCCCC2)cc1
p844
(g147
tp845
tp846
a(VOc1ccccc1C=[N+]1CCCCC1>>[O-]c1ccccc1C=[N+]1CCCCC1
p847
(g170
tp848
tp849
a(VOc1ccccc1C(O)[NH+]1CCCCC1>>Oc1ccccc1C=[N+]1CCCCC1
p850
(g203
tp851
tp852
a(VO=Cc1ccccc1O.C1CCNCC1>>Oc1ccccc1C(O)[NH+]1CCCCC1
p853
(g226
tp854
tp855
asVbyprods
p856
(dp857
Vmain
p858
(dp859
VCl[Ti](Cl)(Cl)Cl
p860
g67
((lp861
Vrx455
p862
atp863
Rp864
sg81
g67
((lp865
Vrx141
p866
aVrx49
p867
aVrx123
p868
aVrx406
p869
atp870
Rp871
sV[Na+]
p872
g67
((lp873
Vrx401
p874
aVrx284
p875
ag869
aVrx465
p876
aVrx353
p877
aVrx34
p878
aVrx224
p879
aVrx239
p880
aVrx249
p881
aVrx500
p882
atp883
Rp884
sV[Na+];;;[Na+]
p885
g67
((lp886
g866
ag867
ag868
atp887
Rp888
sV[H][H]
p889
g67
((lp890
Vrx124
p891
ag866
aVrx481
p892
ag867
aVrx333
p893
ag881
aVrx369
p894
ag868
atp895
Rp896
sVOC([O-])=O
p897
g67
((lp898
Vrx72
p899
aVrx271
p900
aVrx189
p901
aVrx358
p902
aVrx389
p903
aVrx149
p904
aVrx336
p905
aVrx365
p906
aVrx89
p907
aVrx171
p908
aVrx131
p909
aVrx85
p910
atp911
Rp912
sV[K+]
p913
g67
((lp914
g899
ag900
ag901
ag891
aVrx207
p915
ag904
ag905
ag907
ag908
ag906
ag893
aVrx168
p916
aVrx185
p917
aVrx477
p918
ag910
atp919
Rp920
sVOS(O)(=O)=O
p921
g67
((lp922
Vrx528
p923
aVrx151
p924
aVrx102
p925
aVrx321
p926
aVrx258
p927
aVrx252
p928
atp929
Rp930
sV[O-]S([O-])(=O)=O
p931
g67
((lp932
g926
ag928
atp933
Rp934
sV[Mg++]
p935
g67
((lp936
g926
ag928
atp937
Rp938
sVO=C=O
p939
g67
((lp940
g869
atp941
Rp942
sVCC[NH+](CC)CC
p943
g67
((lp944
Vrx245
p945
aVrx199
p946
aVrx259
p947
aVrx518
p948
aVrx86
p949
atp950
Rp951
sVCl
p952
g67
((lp953
Vrx313
p954
aVrx302
p955
aVrx472
p956
aVrx107
p957
aVrx204
p958
aVrx430
p959
aVrx64
p960
aVrx280
p961
atp962
Rp963
sVC1CCNCC1;;;[K+]
p964
g67
((lp965
g902
ag903
ag909
atp966
Rp967
sVCCN(CC)CC
p968
g67
((lp969
Vrx262
p970
aVrx263
p971
atp972
Rp973
sVCC(C)(C)O
p974
g67
((lp975
Vrx347
p976
aVrx464
p977
aVrx412
p978
atp979
Rp980
sV[K+];;;CCCC
p981
g67
((lp982
g976
atp983
Rp984
sV[Li+]
p985
g67
((lp986
Vrx186
p987
aVrx431
p988
aVrx104
p989
aVrx232
p990
ag894
ag976
aVrx368
p991
ag879
ag892
aVrx323
p992
aVrx282
p993
aVrx346
p994
aVrx294
p995
aVrx57
p996
aVrx99
p997
aVrx91
p998
atp999
Rp1000
sV[K+];;;[H][N+]1=C2CCCCCN2CCC1
p1001
g67
((lp1002
g978
ag977
atp1003
Rp1004
sV[Na+];;;[K+]
p1005
g67
((lp1006
Vrx487
p1007
aVrx461
p1008
atp1009
Rp1010
sVCCCC
p1011
g67
((lp1012
Vrx344
p1013
ag987
atp1014
Rp1015
sVCC(C)NC(C)C
p1016
g67
((lp1017
g992
ag875
ag997
atp1018
Rp1019
sVCN(C)P(=O)(N(C)C)N(C)C
p1020
g67
((lp1021
g997
atp1022
Rp1023
sV[H][N+]1([H])CCCCC1;;;[NH4+]
p1024
g67
((lp1025
Vrx354
p1026
atp1027
Rp1028
sVCC(=O)O
p1029
g67
((lp1030
g874
aVrx103
p1031
aVrx126
p1032
ag876
ag877
ag882
aVrx343
p1033
ag1026
atp1034
Rp1035
sVO;;;O
p1036
g67
((lp1037
g880
atp1038
Rp1039
sVC1C[NH+]=C2CCCCCN2C1
p1040
g67
((lp1041
Vrx190
p1042
aVrx36
p1043
atp1044
Rp1045
sVc1cc[nH+]cc1
p1046
g67
((lp1047
Vrx95
p1048
atp1049
Rp1050
sVCl[Al](Cl)Cl
p1051
g67
((lp1052
Vrx223
p1053
atp1054
Rp1055
sVCC(=O)[O-]
p1056
g67
((lp1057
Vrx466
p1058
aVrx315
p1059
aVrx385
p1060
aVrx136
p1061
atp1062
Rp1063
sV[I-]
p1064
g67
((lp1065
g990
ag993
atp1066
Rp1067
sVOC(C)(C)C
p1068
g67
((lp1069
g918
ag916
atp1070
Rp1071
sVOS(=O)(=O)[O-]
p1072
g67
((lp1073
Vrx450
p1074
aVrx109
p1075
aVrx288
p1076
aVrx494
p1077
atp1078
Rp1079
sV[Li+];;;CC(C)NC(C)C
p1080
g67
((lp1081
g987
atp1082
Rp1083
sV[H][H];;;CCCC
p1084
g67
((lp1085
g879
atp1086
Rp1087
sV[Li+];;;[H][N+]1=C2CCCCCN2CCC1
p1088
g67
((lp1089
g1013
atp1090
Rp1091
sVO=P(N(C)C)(N(C)C)N(C)C
p1092
g67
((lp1093
Vrx278
p1094
atp1095
Rp1096
sVOC(=O)[O-]
p1097
g67
((lp1098
g917
atp1099
Rp1100
sVCC(C)NC(C)C;;;C1C[NH+]=C2CCCCCN2C1
p1101
g67
((lp1102
g995
ag998
atp1103
Rp1104
sVCC(C)NC(C)C;;;C[Si](C)(C)N[Si](C)(C)C
p1105
g67
((lp1106
g991
atp1107
Rp1108
sV[Na+];;;C1C[NH+]=C2CCCCCN2C1
p1109
g67
((lp1110
g991
atp1111
Rp1112
sVCCCC;;;[Na+]
p1113
g67
((lp1114
g892
ag894
atp1115
Rp1116
sV[H][H];;;[Li+]
p1117
g67
((lp1118
g875
atp1119
Rp1120
sVOC(=O)C
p1121
g67
((lp1122
Vrx507
p1123
aVrx350
p1124
atp1125
Rp1126
sVCCCC[N+](CCCC)(CCCC)CCCC;;;[Cs+]
p1127
g67
((lp1128
Vrx513
p1129
atp1130
Rp1131
sVC[Si](C)(C)N[Si](C)(C)C
p1132
g67
((lp1133
g878
atp1134
Rp1135
sV[O-]S(=O)(=O)C(F)(F)F
p1136
g67
((lp1137
g996
ag994
atp1138
Rp1139
sVOC(=O)C(F)(F)F;;;Cl[Ti](Cl)(Cl)Cl
p1140
g67
((lp1141
g862
atp1142
Rp1143
sVCCN(CC)CC;;;c1ccncc1
p1144
g67
((lp1145
Vrx378
p1146
atp1147
Rp1148
sVCc1ccc(cc1)S(O)(=O)=O
p1149
g67
((lp1150
Vrx94
p1151
aVrx337
p1152
aVrx305
p1153
aVrx277
p1154
aVrx92
p1155
atp1156
Rp1157
sVCl;;;OS(=O)(=O)O
p1158
g67
((lp1159
Vrx21
p1160
atp1161
Rp1162
sV-;;;-
p1163
g67
((lp1164
Vrx426
p1165
aVrx409
p1166
aVrx47
p1167
aVrx170
p1168
aVrx325
p1169
aVrx150
p1170
atp1171
Rp1172
sVCC(=O)O;;;CC(=O)O
p1173
g67
((lp1174
g961
atp1175
Rp1176
sVOc1c(Cl)c(Cl)c(O)c(C#N)c1C#N
p1177
g67
((lp1178
Vrx231
p1179
atp1180
Rp1181
sV-;;;[La];;;CCN(CC)CC
p1182
g67
((lp1183
Vrx219
p1184
atp1185
Rp1186
sVOC(=O)C(F)(F)F
p1187
g67
((lp1188
Vrx140
p1189
atp1190
Rp1191
sV[Fe+3]
p1192
g67
((lp1193
Vrx427
p1194
atp1195
Rp1196
sV-;;;Cl[Zn]Cl
p1197
g67
((lp1198
Vrx216
p1199
atp1200
Rp1201
sVP(=O)(O)(O)O
p1202
g67
((lp1203
Vrx309
p1204
aVrx211
p1205
atp1206
Rp1207
sVC(F)(F)(F)S(=O)(=O)[O-]
p1208
g67
((lp1209
g958
ag955
ag960
ag956
atp1210
Rp1211
sV[Sc+3];;;CNC
p1212
g67
((lp1213
g958
ag955
ag960
ag956
atp1214
Rp1215
sVB(F)(F)F
p1216
g67
((lp1217
Vrx308
p1218
atp1219
Rp1220
sVCCOCC;;;-
p1221
g67
((lp1222
g1218
atp1223
Rp1224
ssValter
p1225
(dp1226
ssVredox
p1227
g67
((lp1228
tp1229
Rp1230
sVhasCat
p1231
(dp1232
(VCC(C)(C)c1ccc(C(c2ccccc2OB(O)O)N2CCCCC2)cc1>>CC(C)(C)c1ccc(C(c2ccccc2O)N2CCCCC2)cc1
p1233
(VKM6386
p1234
tp1235
tp1236
(g81
tp1237
ssVinitSubstrates
p1238
g67
((lp1239
VC1CCNCC1
p1240
aVCC(C)(C)c1ccc(B(O)O)cc1
p1241
aVO=Cc1ccccc1O
p1242
atp1243
Rp1244
sVsmilesToGen
p1245
(dp1246
VCC(C)(C)c1ccc(B(O)O)cc1
p1247
I0
sVC1CCNCC1
p1248
I0
sVO=Cc1ccccc1O
p1249
I0
sg81
I0
sVOc1ccccc1C(O)[NH+]1CCCCC1
p1250
I1
sVOc1ccccc1C=[N+]1CCCCC1
p1251
I2
sV[O-]c1ccccc1C=[N+]1CCCCC1
p1252
I3
sVCC(C)(C)c1ccc([B-](O)(O)Oc2ccccc2C=[N+]2CCCCC2)cc1
p1253
I4
sVCC(C)(C)c1ccc(C(c2ccccc2OB(O)O)N2CCCCC2)cc1
p1254
I5
sVCC(C)(C)c1ccc(C(c2ccccc2O)N2CCCCC2)cc1
p1255
I6
sVOB(O)O
p1256
I6
ssVgraph
p1257
ccopy_reg
_reconstructor
p1258
(cnetworkx.classes.digraph
DiGraph
p1259
c__builtin__
object
p1260
Ntp1261
Rp1262
(dp1263
Vgraph_attr_dict_factory
p1264
c__builtin__
dict
p1265
sVnode_dict_factory
p1266
g1265
sVnode_attr_dict_factory
p1267
g1265
sVadjlist_outer_dict_factory
p1268
g1265
sVadjlist_inner_dict_factory
p1269
g1265
sVedge_attr_dict_factory
p1270
g1265
sg249
(dp1271
sV_node
p1272
(dp1273
VCC(C)(C)c1ccc(C(c2ccccc2OB(O)O)N2CCCCC2)cc1
p1274
(dp1275
sg1236
(dp1276
sg81
(dp1277
sg1255
(dp1278
sg1256
(dp1279
sVCC(C)(C)c1ccc([B-](O)(O)Oc2ccccc2C=[N+]2CCCCC2)cc1
p1280
(dp1281
s(VCC(C)(C)c1ccc([B-](O)(O)Oc2ccccc2C=[N+]2CCCCC2)cc1>>CC(C)(C)c1ccc(C(c2ccccc2OB(O)O)N2CCCCC2)cc1
p1282
(VKM6370
p1283
tp1284
tp1285
(dp1286
sg1247
(dp1287
s(V[O-]c1ccccc1C=[N+]1CCCCC1.CC(C)(C)c1ccc(B(O)O)cc1>>CC(C)(C)c1ccc([B-](O)(O)Oc2ccccc2C=[N+]2CCCCC2)cc1
p1288
(VKM6368
p1289
tp1290
tp1291
(dp1292
sV[O-]c1ccccc1C=[N+]1CCCCC1
p1293
(dp1294
sVOc1ccccc1C=[N+]1CCCCC1
p1295
(dp1296
s(VOc1ccccc1C=[N+]1CCCCC1>>[O-]c1ccccc1C=[N+]1CCCCC1
p1297
(VAW14
p1298
tp1299
tp1300
(dp1301
sVOc1ccccc1C(O)[NH+]1CCCCC1
p1302
(dp1303
s(VOc1ccccc1C(O)[NH+]1CCCCC1>>Oc1ccccc1C=[N+]1CCCCC1
p1304
(VAW5895
p1305
tp1306
tp1307
(dp1308
sg1248
(dp1309
s(VO=Cc1ccccc1O.C1CCNCC1>>Oc1ccccc1C(O)[NH+]1CCCCC1
p1310
(VAW5893
p1311
tp1312
tp1313
(dp1314
sg1249
(dp1315
ssV_adj
p1316
(dp1317
g1274
(dp1318
g1236
(dp1319
ssg1236
(dp1320
g1255
(dp1321
sg1256
(dp1322
ssg81
(dp1323
g1236
(dp1324
ssg1255
(dp1325
sg1256
(dp1326
sg1280
(dp1327
g1285
(dp1328
ssg1285
(dp1329
g1254
(dp1330
ssg1247
(dp1331
g1291
(dp1332
ssg1291
(dp1333
g1253
(dp1334
ssg1293
(dp1335
g1291
(dp1336
ssg1295
(dp1337
g1300
(dp1338
ssg1300
(dp1339
g1252
(dp1340
ssg1302
(dp1341
g1307
(dp1342
ssg1307
(dp1343
g1251
(dp1344
sg81
(dp1345
ssg1248
(dp1346
g1313
(dp1347
ssg1313
(dp1348
g1250
(dp1349
ssg1249
(dp1350
g1313
(dp1351
sssV_pred
p1352
(dp1353
g1274
(dp1354
g1285
g1330
ssg1236
(dp1355
g1274
g1319
sg81
g1324
ssg81
(dp1356
g1307
g1345
ssg1255
(dp1357
g1236
g1321
ssg1256
(dp1358
g1236
g1322
ssg1280
(dp1359
g1291
g1334
ssg1285
(dp1360
g1280
g1328
ssg1247
(dp1361
sg1291
(dp1362
g1247
g1332
sg1293
g1336
ssg1293
(dp1363
g1300
g1340
ssg1295
(dp1364
g1307
g1344
ssg1300
(dp1365
g1295
g1338
ssg1302
(dp1366
g1313
g1349
ssg1307
(dp1367
g1302
g1342
ssg1248
(dp1368
sg1313
(dp1369
g1248
g1347
sg1249
g1351
ssg1249
(dp1370
ssV_succ
p1371
g1317
sVnodes
p1372
g1258
(cnetworkx.classes.reportviews
NodeView
p1373
g1260
Ntp1374
Rp1375
(dp1376
V_nodes
p1377
g1273
sbsbsssg1257
g1258
(g1259
g1260
Ntp1378
Rp1379
(dp1380
g1264
g1265
sg1266
g1265
sg1267
g1265
sg1268
g1265
sg1269
g1265
sg1270
g1265
sg249
(dp1381
sg1272
(dp1382
I1
(dp1383
sVCC(C)(C)c1ccc(C(c2ccccc2O)N2CCCCC2)cc1
p1384
(dp1385
sVOB(O)O
p1386
(dp1387
sVCC(C)(C)c1ccc(C(c2ccccc2OB(O)O)N2CCCCC2)cc1
p1388
(dp1389
sI2
(dp1390
sVCC(C)(C)c1ccc([B-](O)(O)Oc2ccccc2C=[N+]2CCCCC2)cc1
p1391
(dp1392
sI3
(dp1393
sV[O-]c1ccccc1C=[N+]1CCCCC1
p1394
(dp1395
sVCC(C)(C)c1ccc(B(O)O)cc1
p1396
(dp1397
sI4
(dp1398
sV[K+]
p1399
(dp1400
sVO=C([O-])O
p1401
(dp1402
sVOc1ccccc1C=[N+]1CCCCC1
p1403
(dp1404
sI5
(dp1405
sg81
(dp1406
sVOc1ccccc1C(O)[NH+]1CCCCC1
p1407
(dp1408
sI8
(dp1409
sI6
(dp1410
sVO=Cc1ccccc1O
p1411
(dp1412
sVC1CCNCC1
p1413
(dp1414
sV3_REV
p1415
(dp1416
sV5_REV
p1417
(dp1418
ssg1316
(dp1419
I1
(dp1420
g1384
(dp1421
sg1386
(dp1422
ssg1384
(dp1423
sg1386
(dp1424
sg1388
(dp1425
I1
(dp1426
ssI2
(dp1427
VCC(C)(C)c1ccc(C(c2ccccc2OB(O)O)N2CCCCC2)cc1
p1428
(dp1429
ssg1391
(dp1430
I2
(dp1431
sg1415
(dp1432
ssI3
(dp1433
VCC(C)(C)c1ccc([B-](O)(O)Oc2ccccc2C=[N+]2CCCCC2)cc1
p1434
(dp1435
ssg1394
(dp1436
I3
(dp1437
ssg1396
(dp1438
I3
(dp1439
ssI4
(dp1440
V[O-]c1ccccc1C=[N+]1CCCCC1
p1441
(dp1442
sg1399
(dp1443
sg1401
(dp1444
ssg1399
(dp1445
sg1401
(dp1446
sg1403
(dp1447
I4
(dp1448
sg1417
(dp1449
ssI5
(dp1450
VOc1ccccc1C=[N+]1CCCCC1
p1451
(dp1452
sg81
(dp1453
ssg81
(dp1454
I1
(dp1455
sg1417
(dp1456
ssg1407
(dp1457
I5
(dp1458
sI8
(dp1459
ssI8
(dp1460
VO=Cc1ccccc1O
p1461
(dp1462
sVC1CCNCC1
p1463
(dp1464
ssI6
(dp1465
VOc1ccccc1C(O)[NH+]1CCCCC1
p1466
(dp1467
ssg1411
(dp1468
I6
(dp1469
ssg1413
(dp1470
I6
(dp1471
ssg1415
(dp1472
VCC(C)(C)c1ccc(B(O)O)cc1
p1473
(dp1474
sV[O-]c1ccccc1C=[N+]1CCCCC1
p1475
(dp1476
ssg1417
(dp1477
VOc1ccccc1C(O)[NH+]1CCCCC1
p1478
(dp1479
sssg1352
(dp1480
I1
(dp1481
g1388
g1426
sg81
g1455
ssg1384
(dp1482
I1
g1421
ssg1386
(dp1483
I1
g1422
ssg1388
(dp1484
I2
g1429
ssI2
(dp1485
g1391
g1431
ssg1391
(dp1486
I3
g1435
ssI3
(dp1487
g1394
g1437
sg1396
g1439
ssg1394
(dp1488
I4
g1442
sg1415
g1476
ssg1396
(dp1489
g1415
g1474
ssI4
(dp1490
g1403
g1448
ssg1399
(dp1491
I4
g1443
ssg1401
(dp1492
I4
g1444
ssg1403
(dp1493
I5
g1452
ssI5
(dp1494
g1407
g1458
ssg81
(dp1495
I5
g1453
ssg1407
(dp1496
I6
g1467
sg1417
g1479
ssI8
(dp1497
g1407
g1459
ssI6
(dp1498
g1411
g1469
sg1413
g1471
ssg1411
(dp1499
I8
g1462
ssg1413
(dp1500
I8
g1464
ssg1415
(dp1501
VCC(C)(C)c1ccc([B-](O)(O)Oc2ccccc2C=[N+]2CCCCC2)cc1
p1502
g1432
ssg1417
(dp1503
VOc1ccccc1C=[N+]1CCCCC1
p1504
g1449
sg81
g1456
sssg1371
g1419
sg1372
g1258
(g1373
g1260
Ntp1505
Rp1506
(dp1507
g1377
g1382
sbsbssI1
(dp1508
g4
(dp1509
g6
(dp1510
g8
(lp1511
sg10
(lp1512
(lp1513
(dp1514
g14
VO=Cc1ccccc1O>>Oc1ccccc1C=[OH+]
p1515
sg16
(lp1516
g18
asg19
(lp1517
sg21
V[O:7]=[CH:8][c:9]1[cH:10][cH:11][cH:12][cH:13][c:14]1[OH:15]>>[OH+:7]=[CH:8][c:9]1[cH:10][cH:11][cH:12][cH:13][c:14]1[OH:15]
p1518
sg23
VAldehyde protonation
p1519
sg25
VOrganic Chemistry, 7th Edition L. G. Wade, Jr p. 842 and 10.1021/jm00110a008
p1520
sg27
VH2SO4<BR> allow temp:L.rt.H.VH, allow AB: WA
p1521
sg29
g30
sg31
g32
sg33
g34
sg35
g32
sg36
g1515
sg37
I00
sg38
I00
saa(lp1522
(dp1523
g14
VOc1ccccc1C(O)[NH+]1CCCCC1>>O=Cc1ccccc1O
p1524
sg16
(lp1525
g43
asg19
(lp1526
g45
asg21
V[CH2:1]1[CH2:2][CH2:3][NH+:4]([CH:8]([OH:7])[c:9]2[cH:10][cH:11][cH:12][cH:13][c:14]2[OH:15])[CH2:5][CH2:6]1>>[O:7]=[CH:8][c:9]1[cH:10][cH:11][cH:12][cH:13][c:14]1[OH:15].[CH2:1]1[CH2:2][CH2:3][NH:4][CH2:5][CH2:6]1
p1527
sg23
VHydrolysis of hemiaminal
p1528
sg25
V10.1021/cr068388p
p1529
sg27
VMeCN<BR> allow temp:L.rt.H, allow AB: WA.N.WB
p1530
sg29
g50
sg31
g32
sg33
g51
sg35
(lp1531
Vt-Butyl ethyl ether
p1532
asg36
VOc1ccccc1C(O)[NH+]1CCCCC1>>O=Cc1ccccc1O.C1CCNCC1
p1533
sg37
I00
sg38
I00
sg55
F-17.045050000000003
sg56
I00
saa(lp1534
a(lp1535
a(lp1536
a(lp1537
asVsmiMolMap
p1538
(dp1539
VO=Cc1ccccc1O
p1540
V\u000a     RDKit          2D\u000a\u000a  9  9  0  0  0  0  0  0  0  0999 V2000\u000a    0.2438    2.1756    0.0000 O   0  0  0  0  0  0  0  0  0  0  0  0\u000a   -0.6232    1.6774    0.0000 C   0  0  0  0  0  0  0  0  0  0  0  0\u000a   -0.6252    0.6774    0.0000 C   0  0  0  0  0  0  0  0  0  0  0  0\u000a    0.2398    0.1756    0.0000 C   0  0  0  0  0  0  0  0  0  0  0  0\u000a    0.2378   -0.8244    0.0000 C   0  0  0  0  0  0  0  0  0  0  0  0\u000a   -0.6292   -1.3226    0.0000 C   0  0  0  0  0  0  0  0  0  0  0  0\u000a   -1.4942   -0.8208    0.0000 C   0  0  0  0  0  0  0  0  0  0  0  0\u000a   -1.4922    0.1790    0.0000 C   0  0  0  0  0  0  0  0  0  0  0  0\u000a   -2.3572    0.6808    0.0000 O   0  0  0  0  0  0  0  0  0  0  0  0\u000a  1  2  2  0\u000a  2  3  1  0\u000a  3  4  2  0\u000a  4  5  1  0\u000a  5  6  2  0\u000a  6  7  1  0\u000a  7  8  2  0\u000a  8  9  1  0\u000a  8  3  1  0\u000aM  END\u000a
p1541
sVCC(C)(C)c1ccc(C(c2ccccc2[O-])N2CCCCC2)cc1
p1542
V\u000a     RDKit          2D\u000a\u000a 24 26  0  0  0  0  0  0  0  0999 V2000\u000a   -1.2876   -1.6258    0.0000 C   0  0  0  0  0  0  0  0  0  0  0  0\u000a   -1.7860   -0.7588    0.0000 C   0  0  0  0  0  0  0  0  0  0  0  0\u000a   -2.2876   -1.6238    0.0000 C   0  0  0  0  0  0  0  0  0  0  0  0\u000a   -2.6510   -0.2570    0.0000 C   0  0  0  0  0  0  0  0  0  0  0  0\u000a   -0.9188   -0.2604    0.0000 C   0  0  0  0  0  0  0  0  0  0  0  0\u000a   -0.9168    0.7396    0.0000 C   0  0  0  0  0  0  0  0  0  0  0  0\u000a   -0.0498    1.2378    0.0000 C   0  0  0  0  0  0  0  0  0  0  0  0\u000a    0.8152    0.7360    0.0000 C   0  0  0  0  0  0  0  0  0  0  0  0\u000a    1.6822    1.2344    0.0000 C   0  0  0  0  0  0  0  0  0  0  0  0\u000a    1.6842    2.2344    0.0000 C   0  0  0  0  0  0  0  0  0  0  0  0\u000a    0.8192    2.7360    0.0000 C   0  0  0  0  0  0  0  0  0  0  0  0\u000a    0.8212    3.7360    0.0000 C   0  0  0  0  0  0  0  0  0  0  0  0\u000a    1.6882    4.2342    0.0000 C   0  0  0  0  0  0  0  0  0  0  0  0\u000a    2.5532    3.7326    0.0000 C   0  0  0  0  0  0  0  0  0  0  0  0\u000a    2.5512    2.7326    0.0000 C   0  0  0  0  0  0  0  0  0  0  0  0\u000a    3.4162    2.2308    0.0000 O   0  0  0  0  0  1  0  0  0  0  0  0\u000a    2.5472    0.7326    0.0000 N   0  0  0  0  0  0  0  0  0  0  0  0\u000a    2.5452   -0.2674    0.0000 C   0  0  0  0  0  0  0  0  0  0  0  0\u000a    3.4102   -0.7690    0.0000 C   0  0  0  0  0  0  0  0  0  0  0  0\u000a    4.2772   -0.2708    0.0000 C   0  0  0  0  0  0  0  0  0  0  0  0\u000a    4.2792    0.7292    0.0000 C   0  0  0  0  0  0  0  0  0  0  0  0\u000a    3.4142    1.2308    0.0000 C   0  0  0  0  0  0  0  0  0  0  0  0\u000a    0.8132   -0.2640    0.0000 C   0  0  0  0  0  0  0  0  0  0  0  0\u000a   -0.0538   -0.7622    0.0000 C   0  0  0  0  0  0  0  0  0  0  0  0\u000a  1  2  1  0\u000a  2  3  1  0\u000a  2  4  1  0\u000a  2  5  1  0\u000a  5  6  2  0\u000a  6  7  1  0\u000a  7  8  2  0\u000a  8  9  1  0\u000a  9 10  1  0\u000a 10 11  2  0\u000a 11 12  1  0\u000a 12 13  2  0\u000a 13 14  1  0\u000a 14 15  2  0\u000a 15 16  1  0\u000a  9 17  1  0\u000a 17 18  1  0\u000a 18 19  1  0\u000a 19 20  1  0\u000a 20 21  1  0\u000a 21 22  1  0\u000a  8 23  1  0\u000a 23 24  2  0\u000a 24  5  1  0\u000a 15 10  1  0\u000a 22 17  1  0\u000aM  CHG  1  16  -1\u000aM  END\u000a
p1543
sVCC(C)(C)c1ccc([B-](O)(O)Oc2ccccc2C=[N+]2CCCCC2)cc1
p1544
V\u000a     RDKit          2D\u000a\u000a 27 29  0  0  0  0  0  0  0  0999 V2000\u000a   -4.1818   -3.7108    0.0000 C   0  0  0  0  0  0  0  0  0  0  0  0\u000a   -4.6824   -2.8452    0.0000 C   0  0  0  0  0  0  0  0  0  0  0  0\u000a   -5.1818   -3.7116    0.0000 C   0  0  0  0  0  0  0  0  0  0  0  0\u000a   -5.5488   -2.3458    0.0000 C   0  0  0  0  0  0  0  0  0  0  0  0\u000a   -3.8168   -2.3444    0.0000 C   0  0  0  0  0  0  0  0  0  0  0  0\u000a   -3.8176   -1.3444    0.0000 C   0  0  0  0  0  0  0  0  0  0  0  0\u000a   -2.9520   -0.8438    0.0000 C   0  0  0  0  0  0  0  0  0  0  0  0\u000a   -2.0856   -1.3430    0.0000 C   0  0  0  0  0  0  0  0  0  0  0  0\u000a   -1.2200   -0.8424    0.0000 B   0  0  0  0  0  4  0  0  0  0  0  0\u000a   -1.7206    0.0232    0.0000 O   0  0  0  0  0  0  0  0  0  0  0  0\u000a   -0.7206    0.0240    0.0000 O   0  0  0  0  0  0  0  0  0  0  0  0\u000a   -0.3536   -1.3416    0.0000 O   0  0  0  0  0  0  0  0  0  0  0  0\u000a    0.5120   -0.8410    0.0000 C   0  0  0  0  0  0  0  0  0  0  0  0\u000a    0.5112    0.1590    0.0000 C   0  0  0  0  0  0  0  0  0  0  0  0\u000a    1.3768    0.6598    0.0000 C   0  0  0  0  0  0  0  0  0  0  0  0\u000a    2.2432    0.1604    0.0000 C   0  0  0  0  0  0  0  0  0  0  0  0\u000a    2.2440   -0.8396    0.0000 C   0  0  0  0  0  0  0  0  0  0  0  0\u000a    1.3784   -1.3402    0.0000 C   0  0  0  0  0  0  0  0  0  0  0  0\u000a    1.3792   -2.3402    0.0000 C   0  0  0  0  0  0  0  0  0  0  0  0\u000a    2.2456   -2.8396    0.0000 N   0  0  0  0  0  4  0  0  0  0  0  0\u000a    2.2464   -3.8396    0.0000 C   0  0  0  0  0  0  0  0  0  0  0  0\u000a    3.1128   -4.3390    0.0000 C   0  0  0  0  0  0  0  0  0  0  0  0\u000a    3.9784   -3.8382    0.0000 C   0  0  0  0  0  0  0  0  0  0  0  0\u000a    3.9776   -2.8382    0.0000 C   0  0  0  0  0  0  0  0  0  0  0  0\u000a    3.1112   -2.3390    0.0000 C   0  0  0  0  0  0  0  0  0  0  0  0\u000a   -2.0848   -2.3430    0.0000 C   0  0  0  0  0  0  0  0  0  0  0  0\u000a   -2.9504   -2.8438    0.0000 C   0  0  0  0  0  0  0  0  0  0  0  0\u000a  1  2  1  0\u000a  2  3  1  0\u000a  2  4  1  0\u000a  2  5  1  0\u000a  5  6  2  0\u000a  6  7  1  0\u000a  7  8  2  0\u000a  8  9  1  0\u000a  9 10  1  0\u000a  9 11  1  0\u000a  9 12  1  0\u000a 12 13  1  0\u000a 13 14  2  0\u000a 14 15  1  0\u000a 15 16  2  0\u000a 16 17  1  0\u000a 17 18  2  0\u000a 18 19  1  0\u000a 19 20  2  3\u000a 20 21  1  0\u000a 21 22  1  0\u000a 22 23  1  0\u000a 23 24  1  0\u000a 24 25  1  0\u000a  8 26  1  0\u000a 26 27  2  0\u000a 27  5  1  0\u000a 18 13  1  0\u000a 25 20  1  0\u000aM  CHG  2   9  -1  20   1\u000aM  END\u000a
p1545
sVOc1ccccc1C=[N+]1CCCCC1
p1546
V\u000a     RDKit          2D\u000a\u000a 14 15  0  0  0  0  0  0  0  0999 V2000\u000a   -0.4936   -1.8660    0.0000 O   0  0  0  0  0  0  0  0  0  0  0  0\u000a   -1.3628   -1.3716    0.0000 C   0  0  0  0  0  0  0  0  0  0  0  0\u000a   -2.2256   -1.8770    0.0000 C   0  0  0  0  0  0  0  0  0  0  0  0\u000a   -3.0948   -1.3826    0.0000 C   0  0  0  0  0  0  0  0  0  0  0  0\u000a   -3.1012   -0.3826    0.0000 C   0  0  0  0  0  0  0  0  0  0  0  0\u000a   -2.2384    0.1228    0.0000 C   0  0  0  0  0  0  0  0  0  0  0  0\u000a   -1.3692   -0.3716    0.0000 C   0  0  0  0  0  0  0  0  0  0  0  0\u000a   -0.5064    0.1340    0.0000 C   0  0  0  0  0  0  0  0  0  0  0  0\u000a    0.3628   -0.3604    0.0000 N   0  0  0  0  0  4  0  0  0  0  0  0\u000a    1.2256    0.1450    0.0000 C   0  0  0  0  0  0  0  0  0  0  0  0\u000a    2.0948   -0.3494    0.0000 C   0  0  0  0  0  0  0  0  0  0  0  0\u000a    2.1012   -1.3494    0.0000 C   0  0  0  0  0  0  0  0  0  0  0  0\u000a    1.2384   -1.8548    0.0000 C   0  0  0  0  0  0  0  0  0  0  0  0\u000a    0.3692   -1.3604    0.0000 C   0  0  0  0  0  0  0  0  0  0  0  0\u000a  1  2  1  0\u000a  2  3  2  0\u000a  3  4  1  0\u000a  4  5  2  0\u000a  5  6  1  0\u000a  6  7  2  0\u000a  7  8  1  0\u000a  8  9  2  3\u000a  9 10  1  0\u000a 10 11  1  0\u000a 11 12  1  0\u000a 12 13  1  0\u000a 13 14  1  0\u000a  7  2  1  0\u000a 14  9  1  0\u000aM  CHG  1   9   1\u000aM  END\u000a
p1547
sVCC(C)(C)c1ccc(C(c2ccccc2OB(O)O)N2CCCCC2)cc1
p1548
V\u000a     RDKit          2D\u000a\u000a 27 29  0  0  0  0  0  0  0  0999 V2000\u000a   -2.1104   -1.8512    0.0000 C   0  0  0  0  0  0  0  0  0  0  0  0\u000a   -2.6088   -0.9842    0.0000 C   0  0  0  0  0  0  0  0  0  0  0  0\u000a   -3.1104   -1.8492    0.0000 C   0  0  0  0  0  0  0  0  0  0  0  0\u000a   -3.4738   -0.4824    0.0000 C   0  0  0  0  0  0  0  0  0  0  0  0\u000a   -1.7418   -0.4860    0.0000 C   0  0  0  0  0  0  0  0  0  0  0  0\u000a   -1.7396    0.5140    0.0000 C   0  0  0  0  0  0  0  0  0  0  0  0\u000a   -0.8726    1.0124    0.0000 C   0  0  0  0  0  0  0  0  0  0  0  0\u000a   -0.0076    0.5106    0.0000 C   0  0  0  0  0  0  0  0  0  0  0  0\u000a    0.8594    1.0088    0.0000 C   0  0  0  0  0  0  0  0  0  0  0  0\u000a    0.8614    2.0088    0.0000 C   0  0  0  0  0  0  0  0  0  0  0  0\u000a   -0.0036    2.5106    0.0000 C   0  0  0  0  0  0  0  0  0  0  0  0\u000a   -0.0016    3.5106    0.0000 C   0  0  0  0  0  0  0  0  0  0  0  0\u000a    0.8654    4.0088    0.0000 C   0  0  0  0  0  0  0  0  0  0  0  0\u000a    1.7304    3.5070    0.0000 C   0  0  0  0  0  0  0  0  0  0  0  0\u000a    1.7284    2.5070    0.0000 C   0  0  0  0  0  0  0  0  0  0  0  0\u000a    2.5934    2.0054    0.0000 O   0  0  0  0  0  0  0  0  0  0  0  0\u000a    3.4604    2.5036    0.0000 B   0  0  0  0  0  0  0  0  0  0  0  0\u000a    4.3254    2.0020    0.0000 O   0  0  0  0  0  0  0  0  0  0  0  0\u000a    3.4624    3.5036    0.0000 O   0  0  0  0  0  0  0  0  0  0  0  0\u000a    1.7244    0.5072    0.0000 N   0  0  0  0  0  0  0  0  0  0  0  0\u000a    1.7224   -0.4928    0.0000 C   0  0  0  0  0  0  0  0  0  0  0  0\u000a    2.5874   -0.9946    0.0000 C   0  0  0  0  0  0  0  0  0  0  0  0\u000a    3.4544   -0.4962    0.0000 C   0  0  0  0  0  0  0  0  0  0  0  0\u000a    3.4564    0.5038    0.0000 C   0  0  0  0  0  0  0  0  0  0  0  0\u000a    2.5914    1.0054    0.0000 C   0  0  0  0  0  0  0  0  0  0  0  0\u000a   -0.0098   -0.4894    0.0000 C   0  0  0  0  0  0  0  0  0  0  0  0\u000a   -0.8768   -0.9876    0.0000 C   0  0  0  0  0  0  0  0  0  0  0  0\u000a  1  2  1  0\u000a  2  3  1  0\u000a  2  4  1  0\u000a  2  5  1  0\u000a  5  6  2  0\u000a  6  7  1  0\u000a  7  8  2  0\u000a  8  9  1  0\u000a  9 10  1  0\u000a 10 11  2  0\u000a 11 12  1  0\u000a 12 13  2  0\u000a 13 14  1  0\u000a 14 15  2  0\u000a 15 16  1  0\u000a 16 17  1  0\u000a 17 18  1  0\u000a 17 19  1  0\u000a  9 20  1  0\u000a 20 21  1  0\u000a 21 22  1  0\u000a 22 23  1  0\u000a 23 24  1  0\u000a 24 25  1  0\u000a  8 26  1  0\u000a 26 27  2  0\u000a 27  5  1  0\u000a 15 10  1  0\u000a 25 20  1  0\u000aM  END\u000a
p1549
sVCC(C)(C)c1ccc(C(c2ccccc2O)N2CCCCC2)cc1
p1550
V\u000a     RDKit          2D\u000a\u000a 24 26  0  0  0  0  0  0  0  0999 V2000\u000a   -1.2876   -1.6258    0.0000 C   0  0  0  0  0  0  0  0  0  0  0  0\u000a   -1.7860   -0.7588    0.0000 C   0  0  0  0  0  0  0  0  0  0  0  0\u000a   -2.2876   -1.6238    0.0000 C   0  0  0  0  0  0  0  0  0  0  0  0\u000a   -2.6510   -0.2570    0.0000 C   0  0  0  0  0  0  0  0  0  0  0  0\u000a   -0.9188   -0.2604    0.0000 C   0  0  0  0  0  0  0  0  0  0  0  0\u000a   -0.9168    0.7396    0.0000 C   0  0  0  0  0  0  0  0  0  0  0  0\u000a   -0.0498    1.2378    0.0000 C   0  0  0  0  0  0  0  0  0  0  0  0\u000a    0.8152    0.7360    0.0000 C   0  0  0  0  0  0  0  0  0  0  0  0\u000a    1.6822    1.2344    0.0000 C   0  0  0  0  0  0  0  0  0  0  0  0\u000a    1.6842    2.2344    0.0000 C   0  0  0  0  0  0  0  0  0  0  0  0\u000a    0.8192    2.7360    0.0000 C   0  0  0  0  0  0  0  0  0  0  0  0\u000a    0.8212    3.7360    0.0000 C   0  0  0  0  0  0  0  0  0  0  0  0\u000a    1.6882    4.2342    0.0000 C   0  0  0  0  0  0  0  0  0  0  0  0\u000a    2.5532    3.7326    0.0000 C   0  0  0  0  0  0  0  0  0  0  0  0\u000a    2.5512    2.7326    0.0000 C   0  0  0  0  0  0  0  0  0  0  0  0\u000a    3.4162    2.2308    0.0000 O   0  0  0  0  0  0  0  0  0  0  0  0\u000a    2.5472    0.7326    0.0000 N   0  0  0  0  0  0  0  0  0  0  0  0\u000a    2.5452   -0.2674    0.0000 C   0  0  0  0  0  0  0  0  0  0  0  0\u000a    3.4102   -0.7690    0.0000 C   0  0  0  0  0  0  0  0  0  0  0  0\u000a    4.2772   -0.2708    0.0000 C   0  0  0  0  0  0  0  0  0  0  0  0\u000a    4.2792    0.7292    0.0000 C   0  0  0  0  0  0  0  0  0  0  0  0\u000a    3.4142    1.2308    0.0000 C   0  0  0  0  0  0  0  0  0  0  0  0\u000a    0.8132   -0.2640    0.0000 C   0  0  0  0  0  0  0  0  0  0  0  0\u000a   -0.0538   -0.7622    0.0000 C   0  0  0  0  0  0  0  0  0  0  0  0\u000a  1  2  1  0\u000a  2  3  1  0\u000a  2  4  1  0\u000a  2  5  1  0\u000a  5  6  2  0\u000a  6  7  1  0\u000a  7  8  2  0\u000a  8  9  1  0\u000a  9 10  1  0\u000a 10 11  2  0\u000a 11 12  1  0\u000a 12 13  2  0\u000a 13 14  1  0\u000a 14 15  2  0\u000a 15 16  1  0\u000a  9 17  1  0\u000a 17 18  1  0\u000a 18 19  1  0\u000a 19 20  1  0\u000a 20 21  1  0\u000a 21 22  1  0\u000a  8 23  1  0\u000a 23 24  2  0\u000a 24  5  1  0\u000a 15 10  1  0\u000a 22 17  1  0\u000aM  END\u000a
p1551
sV[O-]c1ccccc1C=[N+]1CCCCC1
p1552
V\u000a     RDKit          2D\u000a\u000a 14 15  0  0  0  0  0  0  0  0999 V2000\u000a   -0.4936   -1.8660    0.0000 O   0  0  0  0  0  1  0  0  0  0  0  0\u000a   -1.3628   -1.3716    0.0000 C   0  0  0  0  0  0  0  0  0  0  0  0\u000a   -2.2256   -1.8770    0.0000 C   0  0  0  0  0  0  0  0  0  0  0  0\u000a   -3.0948   -1.3826    0.0000 C   0  0  0  0  0  0  0  0  0  0  0  0\u000a   -3.1012   -0.3826    0.0000 C   0  0  0  0  0  0  0  0  0  0  0  0\u000a   -2.2384    0.1228    0.0000 C   0  0  0  0  0  0  0  0  0  0  0  0\u000a   -1.3692   -0.3716    0.0000 C   0  0  0  0  0  0  0  0  0  0  0  0\u000a   -0.5064    0.1340    0.0000 C   0  0  0  0  0  0  0  0  0  0  0  0\u000a    0.3628   -0.3604    0.0000 N   0  0  0  0  0  4  0  0  0  0  0  0\u000a    1.2256    0.1450    0.0000 C   0  0  0  0  0  0  0  0  0  0  0  0\u000a    2.0948   -0.3494    0.0000 C   0  0  0  0  0  0  0  0  0  0  0  0\u000a    2.1012   -1.3494    0.0000 C   0  0  0  0  0  0  0  0  0  0  0  0\u000a    1.2384   -1.8548    0.0000 C   0  0  0  0  0  0  0  0  0  0  0  0\u000a    0.3692   -1.3604    0.0000 C   0  0  0  0  0  0  0  0  0  0  0  0\u000a  1  2  1  0\u000a  2  3  2  0\u000a  3  4  1  0\u000a  4  5  2  0\u000a  5  6  1  0\u000a  6  7  2  0\u000a  7  8  1  0\u000a  8  9  2  3\u000a  9 10  1  0\u000a 10 11  1  0\u000a 11 12  1  0\u000a 12 13  1  0\u000a 13 14  1  0\u000a  7  2  1  0\u000a 14  9  1  0\u000aM  CHG  2   1  -1   9   1\u000aM  END\u000a
p1553
sVOc1ccccc1C(O)[NH+]1CCCCC1
p1554
V\u000a     RDKit          2D\u000a\u000a 15 16  0  0  0  0  0  0  0  0999 V2000\u000a    1.3666   -2.4648    0.0000 O   0  0  0  0  0  0  0  0  0  0  0  0\u000a    0.5010   -1.9640    0.0000 C   0  0  0  0  0  0  0  0  0  0  0  0\u000a   -0.3654   -2.4634    0.0000 C   0  0  0  0  0  0  0  0  0  0  0  0\u000a   -1.2310   -1.9628    0.0000 C   0  0  0  0  0  0  0  0  0  0  0  0\u000a   -1.2302   -0.9628    0.0000 C   0  0  0  0  0  0  0  0  0  0  0  0\u000a   -0.3638   -0.4634    0.0000 C   0  0  0  0  0  0  0  0  0  0  0  0\u000a    0.5018   -0.9640    0.0000 C   0  0  0  0  0  0  0  0  0  0  0  0\u000a    1.3682   -0.4648    0.0000 C   0  0  0  0  0  0  0  0  0  0  0  0\u000a    2.2338   -0.9654    0.0000 O   0  0  0  0  0  0  0  0  0  0  0  0\u000a    1.3690    0.5352    0.0000 N   0  0  0  0  0  4  0  0  0  0  0  0\u000a    0.5034    1.0360    0.0000 C   0  0  0  0  0  0  0  0  0  0  0  0\u000a    0.5042    2.0360    0.0000 C   0  0  0  0  0  0  0  0  0  0  0  0\u000a    1.3706    2.5352    0.0000 C   0  0  0  0  0  0  0  0  0  0  0  0\u000a    2.2362    2.0346    0.0000 C   0  0  0  0  0  0  0  0  0  0  0  0\u000a    2.2354    1.0346    0.0000 C   0  0  0  0  0  0  0  0  0  0  0  0\u000a  1  2  1  0\u000a  2  3  2  0\u000a  3  4  1  0\u000a  4  5  2  0\u000a  5  6  1  0\u000a  6  7  2  0\u000a  7  8  1  0\u000a  8  9  1  0\u000a  8 10  1  0\u000a 10 11  1  0\u000a 11 12  1  0\u000a 12 13  1  0\u000a 13 14  1  0\u000a 14 15  1  0\u000a  7  2  1  0\u000a 15 10  1  0\u000aM  CHG  1  10   1\u000aM  END\u000a
p1555
sVCC(C)(C)c1ccc(B(O)O)cc1
p1556
V\u000a     RDKit          2D\u000a\u000a 13 13  0  0  0  0  0  0  0  0999 V2000\u000a    0.7334   -2.4646    0.0000 C   0  0  0  0  0  0  0  0  0  0  0  0\u000a    1.2326   -1.5982    0.0000 C   0  0  0  0  0  0  0  0  0  0  0  0\u000a    1.7334   -2.4638    0.0000 C   0  0  0  0  0  0  0  0  0  0  0  0\u000a    2.0982   -1.0976    0.0000 C   0  0  0  0  0  0  0  0  0  0  0  0\u000a    0.3662   -1.0990    0.0000 C   0  0  0  0  0  0  0  0  0  0  0  0\u000a    0.3654   -0.0990    0.0000 C   0  0  0  0  0  0  0  0  0  0  0  0\u000a   -0.5010    0.4004    0.0000 C   0  0  0  0  0  0  0  0  0  0  0  0\u000a   -1.3666   -0.1004    0.0000 C   0  0  0  0  0  0  0  0  0  0  0  0\u000a   -2.2330    0.3990    0.0000 B   0  0  0  0  0  0  0  0  0  0  0  0\u000a   -2.2336    1.3990    0.0000 O   0  0  0  0  0  0  0  0  0  0  0  0\u000a   -3.0986   -0.1018    0.0000 O   0  0  0  0  0  0  0  0  0  0  0  0\u000a   -1.3658   -1.1004    0.0000 C   0  0  0  0  0  0  0  0  0  0  0  0\u000a   -0.4994   -1.5996    0.0000 C   0  0  0  0  0  0  0  0  0  0  0  0\u000a  1  2  1  0\u000a  2  3  1  0\u000a  2  4  1  0\u000a  2  5  1  0\u000a  5  6  2  0\u000a  6  7  1  0\u000a  7  8  2  0\u000a  8  9  1  0\u000a  9 10  1  0\u000a  9 11  1  0\u000a  8 12  1  0\u000a 12 13  2  0\u000a 13  5  1  0\u000aM  END\u000a
p1557
sVOc1ccccc1C=[OH+]
p1558
V\u000a     RDKit          2D\u000a\u000a  9  9  0  0  0  0  0  0  0  0999 V2000\u000a    0.8760   -0.9344    0.0000 O   0  0  0  0  0  0  0  0  0  0  0  0\u000a    0.0104   -0.4338    0.0000 C   0  0  0  0  0  0  0  0  0  0  0  0\u000a   -0.8560   -0.9330    0.0000 C   0  0  0  0  0  0  0  0  0  0  0  0\u000a   -1.7216   -0.4324    0.0000 C   0  0  0  0  0  0  0  0  0  0  0  0\u000a   -1.7208    0.5676    0.0000 C   0  0  0  0  0  0  0  0  0  0  0  0\u000a   -0.8544    1.0670    0.0000 C   0  0  0  0  0  0  0  0  0  0  0  0\u000a    0.0112    0.5662    0.0000 C   0  0  0  0  0  0  0  0  0  0  0  0\u000a    0.8776    1.0656    0.0000 C   0  0  0  0  0  0  0  0  0  0  0  0\u000a    0.8784    2.0656    0.0000 O   0  0  0  0  0  3  0  0  0  0  0  0\u000a  1  2  1  0\u000a  2  3  2  0\u000a  3  4  1  0\u000a  4  5  2  0\u000a  5  6  1  0\u000a  6  7  2  0\u000a  7  8  1  0\u000a  8  9  2  0\u000a  7  2  1  0\u000aM  CHG  1   9   1\u000aM  END\u000a
p1559
sssg27
(dp1560
g62
(lp1561
g64
ag65
ag66
ag66
asg27
g67
((lp1562
g69
ag70
ag71
ag72
ag73
ag74
ag75
ag76
atp1563
Rp1564
sg79
g67
((lp1565
g32
aV[K+]
p1566
ag1540
ag1552
ag1556
aVOB(O)O
p1567
ag45
ag1548
ag1544
ag1550
ag1546
ag81
ag1554
aVO=C([O-])O
p1568
ag1558
atp1569
Rp1570
sVaddedSbs
p1571
g32
sVincompatMode
p1572
Vconservative
p1573
ssg84
(dp1574
(VCC(C)(C)c1ccc(C(c2ccccc2OB(O)O)N2CCCCC2)cc1>>CC(C)(C)c1ccc(C(c2ccccc2O)N2CCCCC2)cc1
p1575
(g87
tp1576
tp1577
(dp1578
g14
g1575
sg91
(dp1579
g93
F0.0
sg94
I0
sg95
I0
sg96
(lp1580
g87
asg98
(lp1581
((lp1582
V[CH3:99][C:100]([CH3:101])([CH3:102])[c:103]1[cH:104][cH:105][c:106]([CH:107]([c:108]2[cH:109][cH:110][cH:111][cH:112][c:113]2[O:114][B:115]([OH:116])[OH:117])[N:118]2[CH2:119][CH2:120][CH2:121][CH2:122][CH2:123]2)[cH:124][cH:125]1
p1583
aV[OH2:126]
p1584
a(lp1585
(V[CH3:99][C:100]([CH3:101])([CH3:102])[c:103]1[cH:104][cH:105][c:106]([CH:107]([c:108]2[cH:109][cH:110][cH:111][cH:112][c:113]2[OH:114])[N:118]2[CH2:119][CH2:120][CH2:121][CH2:122][CH2:123]2)[cH:124][cH:125]1
p1586
V[B:115]([OH:116])([OH:117])[OH:126]
p1587
tp1588
atp1589
asg21
V[CH3:99][C:100]([CH3:101])([CH3:102])[c:103]1[cH:104][cH:105][c:106]([CH:107]([c:108]2[cH:109][cH:110][cH:111][cH:112][c:113]2[O:114][B:115]([OH:116])[OH:117])[N:118]2[CH2:119][CH2:120][CH2:121][CH2:122][CH2:123]2)[cH:124][cH:125]1.[OH2:126]>>[CH3:99][C:100]([CH3:101])([CH3:102])[c:103]1[cH:104][cH:105][c:106]([CH:107]([c:108]2[cH:109][cH:110][cH:111][cH:112][c:113]2[OH:114])[N:118]2[CH2:119][CH2:120][CH2:121][CH2:122][CH2:123]2)[cH:124][cH:125]1.[B:115]([OH:116])([OH:117])[OH:126]
p1590
sg109
I-2
ssg16
(lp1591
g87
asg36
VCC(C)(C)c1ccc(C(c2ccccc2OB(O)O)N2CCCCC2)cc1.O>>CC(C)(C)c1ccc(C(c2ccccc2O)N2CCCCC2)cc1.OB(O)O
p1592
sg37
I00
sg38
I00
sg55
F-8.77229999999986
sg56
I00
ss(VCC(C)(C)c1ccc([B-](O)(O)Oc2ccccc2C=[N+]2CCCCC2)cc1>>CC(C)(C)c1ccc(C(c2ccccc2OB(O)O)N2CCCCC2)cc1
p1593
(g126
tp1594
tp1595
(dp1596
g14
g1593
sg91
(dp1597
g93
F0.0
sg94
I0
sg95
I0
sg96
(lp1598
g126
asg98
(lp1599
((lp1600
V[CH3:72][C:73]([CH3:74])([CH3:75])[c:76]1[cH:77][cH:78][c:79]([B-:80]([OH:81])([OH:82])[O:83][c:84]2[cH:85][cH:86][cH:87][cH:88][c:89]2[CH:90]=[N+:91]2[CH2:92][CH2:93][CH2:94][CH2:95][CH2:96]2)[cH:97][cH:98]1
p1601
a(lp1602
(V[CH3:72][C:73]([CH3:74])([CH3:75])[c:76]1[cH:77][cH:78][c:79]([CH:90]([c:89]2[c:84]([O:83][B:80]([OH:81])[OH:82])[cH:85][cH:86][cH:87][cH:88]2)[N:91]2[CH2:92][CH2:93][CH2:94][CH2:95][CH2:96]2)[cH:97][cH:98]1
p1603
tp1604
atp1605
asg21
V[CH3:72][C:73]([CH3:74])([CH3:75])[c:76]1[cH:77][cH:78][c:79]([B-:80]([OH:81])([OH:82])[O:83][c:84]2[cH:85][cH:86][cH:87][cH:88][c:89]2[CH:90]=[N+:91]2[CH2:92][CH2:93][CH2:94][CH2:95][CH2:96]2)[cH:97][cH:98]1>>[CH3:72][C:73]([CH3:74])([CH3:75])[c:76]1[cH:77][cH:78][c:79]([CH:90]([c:89]2[c:84]([O:83][B:80]([OH:81])[OH:82])[cH:85][cH:86][cH:87][cH:88]2)[N:91]2[CH2:92][CH2:93][CH2:94][CH2:95][CH2:96]2)[cH:97][cH:98]1
p1606
sg109
I-2
ssg16
(lp1607
g126
asg36
g1593
sg37
I00
sg38
I00
sg55
F-75.65669000000003
sg56
I00
ss(V[O-]c1ccccc1C=[N+]1CCCCC1.CC(C)(C)c1ccc(B(O)O)cc1>>CC(C)(C)c1ccc([B-](O)(O)Oc2ccccc2C=[N+]2CCCCC2)cc1
p1608
(g147
tp1609
tp1610
(dp1611
g14
g1608
sg91
(dp1612
g93
F0.0
sg94
I0
sg95
I0
sg96
(lp1613
g147
asg98
(lp1614
((lp1615
V[CH3:16][C:17]([CH3:18])([CH3:19])[c:20]1[cH:21][cH:22][c:23]([B:24]([OH:25])[OH:26])[cH:27][cH:28]1
p1616
aV[O-:58][c:59]1[cH:60][cH:61][cH:62][cH:63][c:64]1[CH:65]=[N+:66]1[CH2:67][CH2:68][CH2:69][CH2:70][CH2:71]1
p1617
a(lp1618
(V[CH3:16][C:17]([CH3:18])([CH3:19])[c:20]1[cH:21][cH:22][c:23]([B-:24]([OH:25])([OH:26])[O:58][c:59]2[cH:60][cH:61][cH:62][cH:63][c:64]2[CH:65]=[N+:66]2[CH2:67][CH2:68][CH2:69][CH2:70][CH2:71]2)[cH:27][cH:28]1
p1619
tp1620
atp1621
asg21
V[CH3:16][C:17]([CH3:18])([CH3:19])[c:20]1[cH:21][cH:22][c:23]([B-:24]([OH:25])([OH:26])[O:58][c:59]2[cH:60][cH:61][cH:62][cH:63][c:64]2[CH:65]=[N+:66]2[CH2:67][CH2:68][CH2:69][CH2:70][CH2:71]2)[cH:27][cH:28]1>>[CH3:16][C:17]([CH3:18])([CH3:19])[c:20]1[cH:21][cH:22][c:23]([B:24]([OH:25])[OH:26])[cH:27][cH:28]1.[O-:58][c:59]1[cH:60][cH:61][cH:62][cH:63][c:64]1[CH:65]=[N+:66]1[CH2:67][CH2:68][CH2:69][CH2:70][CH2:71]1
p1622
sg109
I-2
ssg16
(lp1623
g147
asg36
VCC(C)(C)c1ccc(B(O)O)cc1.[O-]c1ccccc1C=[N+]1CCCCC1>>CC(C)(C)c1ccc([B-](O)(O)Oc2ccccc2C=[N+]2CCCCC2)cc1
p1624
sg37
I00
sg38
I00
sg55
F-35.27230999999995
sg56
I00
ss(VOc1ccccc1C=[N+]1CCCCC1>>[O-]c1ccccc1C=[N+]1CCCCC1
p1625
(g170
tp1626
tp1627
(dp1628
g14
g1625
sg91
(dp1629
g93
F0.0
sg94
I0
sg95
I0
sg96
(lp1630
g170
asg98
(lp1631
((lp1632
V[OH:44][c:45]1[cH:46][cH:47][cH:48][cH:49][c:50]1[CH:51]=[N+:52]1[CH2:53][CH2:54][CH2:55][CH2:56][CH2:57]1
p1633
a(lp1634
(V[O-:44][c:45]1[cH:46][cH:47][cH:48][cH:49][c:50]1[CH:51]=[N+:52]1[CH2:53][CH2:54][CH2:55][CH2:56][CH2:57]1
p1635
tp1636
atp1637
asg21
V[OH:44][c:45]1[cH:46][cH:47][cH:48][cH:49][c:50]1[CH:51]=[N+:52]1[CH2:53][CH2:54][CH2:55][CH2:56][CH2:57]1>>[O-:44][c:45]1[cH:46][cH:47][cH:48][cH:49][c:50]1[CH:51]=[N+:52]1[CH2:53][CH2:54][CH2:55][CH2:56][CH2:57]1
p1638
sg109
I-2
ssg16
(lp1639
g170
asg36
g1625
sg37
I00
sg38
(lp1640
g193
a(dp1641
g195
g1546
sg197
g1633
sg198
g1552
sg200
g1635
sg201
g1552
sasg55
F36.94552
sg56
I00
ss(VOc1ccccc1C(O)[NH+]1CCCCC1>>Oc1ccccc1C=[N+]1CCCCC1
p1642
(g203
tp1643
tp1644
(dp1645
g14
g1642
sg91
(dp1646
g93
F0.0
sg94
I0
sg95
I0
sg96
(lp1647
g203
asg98
(lp1648
((lp1649
V[OH:29][c:30]1[cH:31][cH:32][cH:33][cH:34][c:35]1[CH:36]([OH:37])[NH+:38]1[CH2:39][CH2:40][CH2:41][CH2:42][CH2:43]1
p1650
a(lp1651
(V[OH:29][c:30]1[cH:31][cH:32][cH:33][cH:34][c:35]1[CH:36]=[N+:38]1[CH2:39][CH2:40][CH2:41][CH2:42][CH2:43]1
p1652
V[OH2:37]
p1653
tp1654
atp1655
asg21
V[OH:29][c:30]1[cH:31][cH:32][cH:33][cH:34][c:35]1[CH:36]=[N+:38]1[CH2:39][CH2:40][CH2:41][CH2:42][CH2:43]1.[OH2:37]>>[OH:29][c:30]1[cH:31][cH:32][cH:33][cH:34][c:35]1[CH:36]([OH:37])[NH+:38]1[CH2:39][CH2:40][CH2:41][CH2:42][CH2:43]1
p1656
sg109
I-2
ssg16
(lp1657
g203
asg36
VOc1ccccc1C(O)[NH+]1CCCCC1>>Oc1ccccc1C=[N+]1CCCCC1.O
p1658
sg37
I00
sg38
I00
sg55
F-47.96627999999998
sg56
I00
ss(VO=Cc1ccccc1O.C1CCNCC1>>Oc1ccccc1C(O)[NH+]1CCCCC1
p1659
(g226
tp1660
tp1661
(dp1662
g14
g1659
sg91
(dp1663
g93
F0.0
sg94
I0
sg95
I0
sg96
(lp1664
g226
asg98
(lp1665
((lp1666
V[CH2:1]1[CH2:2][CH2:3][NH:4][CH2:5][CH2:6]1
p1667
aV[O:7]=[CH:8][c:9]1[cH:10][cH:11][cH:12][cH:13][c:14]1[OH:15]
p1668
a(lp1669
(V[CH2:1]1[CH2:2][CH2:3][NH+:4]([CH:8]([OH:7])[c:9]2[cH:10][cH:11][cH:12][cH:13][c:14]2[OH:15])[CH2:5][CH2:6]1
p1670
tp1671
atp1672
asg21
V[CH2:1]1[CH2:2][CH2:3][NH:4][CH2:5][CH2:6]1.[O:7]=[CH:8][c:9]1[cH:10][cH:11][cH:12][cH:13][c:14]1[OH:15]>>[CH2:1]1[CH2:2][CH2:3][NH+:4]([CH:8]([OH:7])[c:9]2[cH:10][cH:11][cH:12][cH:13][c:14]2[OH:15])[CH2:5][CH2:6]1
p1673
sg109
I-2
ssg16
(lp1674
g226
asg36
VC1CCNCC1.O=Cc1ccccc1O>>Oc1ccccc1C(O)[NH+]1CCCCC1
p1675
sg37
I00
sg38
I00
sg248
F4.290000000000001
sg55
F17.045050000000003
sg56
I00
ss(g1524
(g43
tp1676
tp1677
(dp1678
g14
g1524
sg91
(dp1679
g93
F0.0
sg94
I0
sg95
I0
sg96
(lp1680
g43
asg98
(lp1681
((lp1682
g1650
a(lp1683
(V[OH:29][c:30]1[cH:31][cH:32][cH:33][cH:34][c:35]1[CH:36]=[O:37]
p1684
V[NH:38]1[CH2:39][CH2:40][CH2:41][CH2:42][CH2:43]1
p1685
tp1686
atp1687
asg21
V[OH:29][c:30]1[cH:31][cH:32][cH:33][cH:34][c:35]1[CH:36]([OH:37])[NH+:38]1[CH2:39][CH2:40][CH2:41][CH2:42][CH2:43]1>>[OH:29][c:30]1[cH:31][cH:32][cH:33][cH:34][c:35]1[CH:36]=[O:37].[NH:38]1[CH2:39][CH2:40][CH2:41][CH2:42][CH2:43]1
p1688
sg109
I-2
ssg16
(lp1689
g43
asg36
g1533
ss(VOc1ccccc1C=[OH+]>>O=Cc1ccccc1O
p1690
(I1
tp1691
tp1692
(dp1693
g14
g1690
sg91
(dp1694
g93
I0
sg94
I0
sg95
I0
sg96
(lp1695
Nasg98
(lp1696
(lp1697
(V[OH+:7]=[CH:8][c:9]1[cH:10][cH:11][cH:12][cH:13][c:14]1[OH:15]
p1698
tp1699
a(lp1700
(g1668
tp1701
aaasg21
V[OH+:7]=[CH:8][c:9]1[cH:10][cH:11][cH:12][cH:13][c:14]1[OH:15]>>[O:7]=[CH:8][c:9]1[cH:10][cH:11][cH:12][cH:13][c:14]1[OH:15]
p1702
sg109
I-2
ssg16
(lp1703
I1
asg36
g1690
sg37
I00
sg38
I00
ss(VOc1ccccc1C=[N+]1CCCCC1>>O=Cc1ccccc1O
p1704
(Vrx468
p1705
tp1706
tp1707
(dp1708
g14
g1704
sg91
(dp1709
g93
F0.0
sg94
I0
sg95
I0
sg96
(lp1710
g1705
asg98
(lp1711
((lp1712
g1633
aV[OH2:58]
p1713
a(lp1714
(V[OH:44][c:45]1[cH:46][cH:47][cH:48][cH:49][c:50]1[CH:51]=[O:58]
p1715
V[NH:52]1[CH2:53][CH2:54][CH2:55][CH2:56][CH2:57]1
p1716
tp1717
atp1718
asg21
V[OH:44][c:45]1[cH:46][cH:47][cH:48][cH:49][c:50]1[CH:51]=[N+:52]1[CH2:53][CH2:54][CH2:55][CH2:56][CH2:57]1.[OH2:58]>>[OH:44][c:45]1[cH:46][cH:47][cH:48][cH:49][c:50]1[CH:51]=[O:58].[NH:52]1[CH2:53][CH2:54][CH2:55][CH2:56][CH2:57]1
p1719
sg109
I-2
ssg16
(lp1720
g1705
asg36
VOc1ccccc1C=[N+]1CCCCC1.O>>O=Cc1ccccc1O.C1CCNCC1
p1721
sg37
I00
sg38
I00
sg248
F-3.5599999999999996
sg55
F30.92122999999998
sg56
I00
ss(VOc1ccccc1C(O)N1CCCCC1>>O=Cc1ccccc1O
p1722
g1676
tp1723
(dp1724
g14
g1722
sg91
(dp1725
g93
F0.0
sg94
I0
sg95
I0
sg96
(lp1726
g43
asg98
(lp1727
((lp1728
V[OH:29][c:30]1[cH:31][cH:32][cH:33][cH:34][c:35]1[CH:36]([OH:37])[N:38]1[CH2:39][CH2:40][CH2:41][CH2:42][CH2:43]1
p1729
a(lp1730
g1686
atp1731
asg21
V[OH:1][c:2]1[cH:3][cH:4][cH:5][cH:6][c:7]1[CH:8]([N:9]1[CH2:10][CH2:11][CH2:12][CH2:13][CH2:14]1)[OH:15]>>[OH:1][c:2]1[cH:3][cH:4][cH:5][cH:6][c:7]1[CH:8]=[O:15].[NH:9]1[CH2:10][CH2:11][CH2:12][CH2:13][CH2:14]1
p1732
sg109
I-2
ssg16
(lp1733
g43
asg36
VOc1ccccc1C(O)N1CCCCC1>>O=Cc1ccccc1O.C1CCNCC1
p1734
sg37
I00
sg38
I00
sg55
F71.80849
sg56
I00
ss(VOc1ccccc1C(O)[NH+]1CCCCC1>>Oc1ccccc1C(O)N1CCCCC1
p1735
g1691
tp1736
(dp1737
g14
g1735
sg91
(dp1738
g93
I0
sg94
I0
sg95
I0
sg96
(lp1739
sg98
(lp1740
(lp1741
(lp1742
g1650
aa(lp1743
(lp1744
g1729
aaaasg21
V[OH:29][c:30]1[cH:31][cH:32][cH:33][cH:34][c:35]1[CH:36]([OH:37])[NH+:38]1[CH2:39][CH2:40][CH2:41][CH2:42][CH2:43]1>>[OH:29][c:30]1[cH:31][cH:32][cH:33][cH:34][c:35]1[CH:36]([OH:37])[N:38]1[CH2:39][CH2:40][CH2:41][CH2:42][CH2:43]1
p1745
sg109
I-2
ssg16
(lp1746
I1
asg36
g1735
sg37
I00
sg38
I00
sg55
F-88.85354000000001
sg56
I00
ss(VO=Cc1ccccc1[O-]>>O=Cc1ccccc1O
p1747
g1691
tp1748
(dp1749
g14
g1747
sg91
(dp1750
g93
I0
sg94
I0
sg95
I0
sg96
(lp1751
Nasg98
(lp1752
(lp1753
(V[O-:58][c:59]1[cH:60][cH:61][cH:62][cH:63][c:64]1[CH:65]=[O:72]
p1754
tp1755
a(lp1756
(V[OH:58][c:59]1[cH:60][cH:61][cH:62][cH:63][c:64]1[CH:65]=[O:72]
p1757
tp1758
aaasg21
V[O-:58][c:59]1[cH:60][cH:61][cH:62][cH:63][c:64]1[CH:65]=[O:72]>>[OH:58][c:59]1[cH:60][cH:61][cH:62][cH:63][c:64]1[CH:65]=[O:72]
p1759
sg109
I-2
ssg16
(lp1760
I1
asg36
g1747
sg37
I00
sg38
I00
sg55
F-150.36639
sg56
I00
ss(V[O-]c1ccccc1C=[N+]1CCCCC1>>O=Cc1ccccc1[O-]
p1761
g1706
tp1762
(dp1763
g14
g1761
sg91
(dp1764
g93
F0.0
sg94
I0
sg95
I0
sg96
(lp1765
g1705
asg98
(lp1766
((lp1767
g1617
aV[OH2:72]
p1768
a(lp1769
(g1754
V[NH:66]1[CH2:67][CH2:68][CH2:69][CH2:70][CH2:71]1
p1770
tp1771
atp1772
asg21
V[O-:58][c:59]1[cH:60][cH:61][cH:62][cH:63][c:64]1[CH:65]=[N+:66]1[CH2:67][CH2:68][CH2:69][CH2:70][CH2:71]1.[OH2:72]>>[O-:58][c:59]1[cH:60][cH:61][cH:62][cH:63][c:64]1[CH:65]=[O:72].[NH:66]1[CH2:67][CH2:68][CH2:69][CH2:70][CH2:71]1
p1773
sg109
I-2
ssg16
(lp1774
g1705
asg36
V[O-]c1ccccc1C=[N+]1CCCCC1.O>>O=Cc1ccccc1[O-].C1CCNCC1
p1775
sg37
I00
sg38
I00
sg248
F-3.5599999999999996
sg55
F144.3421
sg56
I00
ss(VOc1ccccc1C=[N+]1CCCCC1>>Oc1ccccc1C(O)N1CCCCC1
p1776
(Vrx458
p1777
tp1778
tp1779
(dp1780
g14
g1776
sg91
(dp1781
g93
F0.0
sg94
I0
sg95
I0
sg96
(lp1782
g1777
asg98
(lp1783
((lp1784
g1633
ag1713
a(lp1785
(V[OH:44][c:45]1[cH:46][cH:47][cH:48][cH:49][c:50]1[CH:51]([N:52]1[CH2:53][CH2:54][CH2:55][CH2:56][CH2:57]1)[OH:58]
p1786
tp1787
atp1788
asg21
V[OH:1][c:2]1[cH:3][cH:4][cH:5][cH:6][c:7]1[CH:8]=[N+:9]1[CH2:10][CH2:11][CH2:12][CH2:13][CH2:14]1.[OH2:15]>>[OH:1][c:2]1[cH:3][cH:4][cH:5][cH:6][c:7]1[CH:8]([N:9]1[CH2:10][CH2:11][CH2:12][CH2:13][CH2:14]1)[OH:15]
p1789
sg109
I-2
ssg16
(lp1790
g1777
asg36
VOc1ccccc1C=[N+]1CCCCC1.O>>Oc1ccccc1C(O)N1CCCCC1
p1791
sg37
I00
sg38
I00
sg248
F-3.5599999999999996
sg55
F-40.887260000000026
sg56
I00
ss(V[O-]c1ccccc1C=[N+]1CCCCC1>>Oc1ccccc1C=[N+]1CCCCC1
p1792
g1691
tp1793
(dp1794
g14
g1792
sg91
(dp1795
g93
I0
sg94
I0
sg95
I0
sg96
(lp1796
Nasg98
(lp1797
(lp1798
g1636
a(lp1799
(g1633
tp1800
aaasg21
V[O-:44][c:45]1[cH:46][cH:47][cH:48][cH:49][c:50]1[CH:51]=[N+:52]1[CH2:53][CH2:54][CH2:55][CH2:56][CH2:57]1>>[OH:44][c:45]1[cH:46][cH:47][cH:48][cH:49][c:50]1[CH:51]=[N+:52]1[CH2:53][CH2:54][CH2:55][CH2:56][CH2:57]1
p1801
sg109
I-2
ssg16
(lp1802
I1
asg36
g1792
sg37
I00
sg38
I00
sg55
F-36.94552
sg56
I00
ss(VOc1ccccc1C(O)N1CCCCC1>>Oc1ccccc1C=[N+]1CCCCC1
p1803
(Vrx192
p1804
tp1805
tp1806
(dp1807
g14
g1803
sg91
(dp1808
g93
F0.0
sg94
I0
sg95
I0
sg96
(lp1809
g1804
asg98
(lp1810
((lp1811
g1729
a(lp1812
g1654
atp1813
asg21
V[OH:29][c:30]1[cH:31][cH:32][cH:33][cH:34][c:35]1[CH:36]([OH:37])[N:38]1[CH2:39][CH2:40][CH2:41][CH2:42][CH2:43]1>>[OH:29][c:30]1[cH:31][cH:32][cH:33][cH:34][c:35]1[CH:36]=[N+:38]1[CH2:39][CH2:40][CH2:41][CH2:42][CH2:43]1.[OH2:37]
p1814
sg109
I-2
ssg16
(lp1815
g1804
asg36
VOc1ccccc1C(O)N1CCCCC1>>Oc1ccccc1C=[N+]1CCCCC1.O
p1816
sg37
I00
sg38
I00
sg55
F40.887260000000026
sg56
I00
ss(g1515
(g18
tp1817
tp1818
(dp1819
g14
g1515
sg91
(dp1820
g93
F0.0
sg94
I0
sg95
I0
sg96
(lp1821
g18
asg98
(lp1822
((lp1823
g1668
a(lp1824
g1699
atp1825
asg21
g1518
sg109
I-2
ssg16
(lp1826
g18
asg36
g1515
ss(V[O-]c1ccccc1C(O)N1CCCCC1>>Oc1ccccc1C(O)N1CCCCC1
p1827
g1691
tp1828
(dp1829
g14
g1827
sg91
(dp1830
g93
I0
sg94
I0
sg95
I0
sg96
(lp1831
Nasg98
(lp1832
(lp1833
(V[O-:58][c:59]1[cH:60][cH:61][cH:62][cH:63][c:64]1[CH:65]([N:66]1[CH2:67][CH2:68][CH2:69][CH2:70][CH2:71]1)[OH:72]
p1834
tp1835
a(lp1836
(V[OH:58][c:59]1[cH:60][cH:61][cH:62][cH:63][c:64]1[CH:65]([N:66]1[CH2:67][CH2:68][CH2:69][CH2:70][CH2:71]1)[OH:72]
p1837
tp1838
aaasg21
V[O-:1][c:2]1[cH:3][cH:4][cH:5][cH:6][c:7]1[CH:8]([N:9]1[CH2:10][CH2:11][CH2:12][CH2:13][CH2:14]1)[OH:15]>>[OH:1][c:2]1[cH:3][cH:4][cH:5][cH:6][c:7]1[CH:8]([N:9]1[CH2:10][CH2:11][CH2:12][CH2:13][CH2:14]1)[OH:15]
p1839
sg109
I-2
ssg16
(lp1840
I1
asg36
g1827
sg37
I00
sg38
I00
sg55
F-143.7638
sg56
I00
ss(V[O-]c1ccccc1C=[N+]1CCCCC1>>[O-]c1ccccc1C(O)N1CCCCC1
p1841
g1778
tp1842
(dp1843
g14
g1841
sg91
(dp1844
g93
F0.0
sg94
I0
sg95
I0
sg96
(lp1845
g1777
asg98
(lp1846
((lp1847
g1617
ag1768
a(lp1848
g1835
atp1849
asg21
V[O-:58][c:59]1[cH:60][cH:61][cH:62][cH:63][c:64]1[CH:65]=[N+:66]1[CH2:67][CH2:68][CH2:69][CH2:70][CH2:71]1.[OH2:72]>>[O-:58][c:59]1[cH:60][cH:61][cH:62][cH:63][c:64]1[CH:65]([N:66]1[CH2:67][CH2:68][CH2:69][CH2:70][CH2:71]1)[OH:72]
p1850
sg109
I-2
ssg16
(lp1851
g1777
asg36
V[O-]c1ccccc1C=[N+]1CCCCC1.O>>[O-]c1ccccc1C(O)N1CCCCC1
p1852
sg37
I00
sg38
I00
sg248
F-3.5599999999999996
sg55
F65.93101999999999
sg56
I00
ss(VO=C([O-])O>>O=C(O)O
p1853
g1691
tp1854
(dp1855
g14
g1853
sg91
(dp1856
g93
I0
sg94
I0
sg95
I0
sg96
(lp1857
sg98
(lp1858
(lp1859
(lp1860
V[O:160]=[C:161]([O-:162])[OH:163]
p1861
aa(lp1862
(lp1863
V[O:160]=[C:161]([OH:162])[OH:163]
p1864
aaaasg21
V[O:160]=[C:161]([O-:162])[OH:163]>>[O:160]=[C:161]([OH:162])[OH:163]
p1865
sg109
I-2
ssg16
(lp1866
I1
asg36
g1853
sg37
I00
sg38
I00
sg55
F-251.69010000000003
sg56
I00
ss(VCC(C)(C)c1ccc(C(c2ccccc2O)N2CCCCC2)cc1>>CC(C)(C)c1ccc(C(c2ccccc2[O-])N2CCCCC2)cc1
p1867
g1626
tp1868
(dp1869
g14
g1867
sg91
(dp1870
g93
F0.0
sg94
I0
sg95
I0
sg96
(lp1871
g170
asg98
(lp1872
((lp1873
V[CH3:126][C:127]([CH3:128])([CH3:129])[c:130]1[cH:131][cH:132][c:133]([CH:134]([c:135]2[cH:136][cH:137][cH:138][cH:139][c:140]2[OH:141])[N:142]2[CH2:143][CH2:144][CH2:145][CH2:146][CH2:147]2)[cH:148][cH:149]1
p1874
a(lp1875
(V[CH3:126][C:127]([CH3:128])([CH3:129])[c:130]1[cH:131][cH:132][c:133]([CH:134]([c:135]2[cH:136][cH:137][cH:138][cH:139][c:140]2[O-:141])[N:142]2[CH2:143][CH2:144][CH2:145][CH2:146][CH2:147]2)[cH:148][cH:149]1
p1876
tp1877
atp1878
asg21
V[CH3:126][C:127]([CH3:128])([CH3:129])[c:130]1[cH:131][cH:132][c:133]([CH:134]([c:135]2[cH:136][cH:137][cH:138][cH:139][c:140]2[OH:141])[N:142]2[CH2:143][CH2:144][CH2:145][CH2:146][CH2:147]2)[cH:148][cH:149]1>>[CH3:126][C:127]([CH3:128])([CH3:129])[c:130]1[cH:131][cH:132][c:133]([CH:134]([c:135]2[cH:136][cH:137][cH:138][cH:139][c:140]2[O-:141])[N:142]2[CH2:143][CH2:144][CH2:145][CH2:146][CH2:147]2)[cH:148][cH:149]1
p1879
sg109
I-2
ssg16
(lp1880
g170
asg36
g1867
sg37
I00
sg38
(lp1881
g193
a(dp1882
g195
g1550
sg197
g1874
sg198
g1542
sg200
g1876
sg201
g1542
sasg55
F107.4007
sg56
I01
ss(VOc1ccccc1C(O)N1CCCCC1>>[O-]C(c1ccccc1O)N1CCCCC1
p1883
(Vrx123
p1884
tp1885
tp1886
(dp1887
g14
g1883
sg91
(dp1888
g93
F0.0
sg94
I0
sg95
I0
sg96
(lp1889
g1884
asg98
(lp1890
((lp1891
g1729
a(lp1892
(V[OH:29][c:30]1[cH:31][cH:32][cH:33][cH:34][c:35]1[CH:36]([O-:37])[N:38]1[CH2:39][CH2:40][CH2:41][CH2:42][CH2:43]1
p1893
tp1894
atp1895
asg21
V[OH:1][c:2]1[cH:3][cH:4][cH:5][cH:6][c:7]1[CH:8]([N:9]1[CH2:10][CH2:11][CH2:12][CH2:13][CH2:14]1)[OH:15]>>[OH:1][c:2]1[cH:3][cH:4][cH:5][cH:6][c:7]1[CH:8]([O-:15])[N:9]1[CH2:10][CH2:11][CH2:12][CH2:13][CH2:14]1
p1896
sg109
I-2
ssg16
(lp1897
g1884
asg36
g1883
sg37
I00
sg38
(lp1898
g193
a(dp1899
g195
VOc1ccccc1C(O)N1CCCCC1
p1900
sg197
V[OH:1][c:2]1[cH:3][cH:4][cH:5][cH:6][c:7]1[CH:8]([N:9]1[CH2:10][CH2:11][CH2:12][CH2:13][CH2:14]1)[OH:15]
p1901
sg198
V[O-]C(c1ccccc1O)N1CCCCC1
p1902
sg200
V[OH:1][c:2]1[cH:3][cH:4][cH:5][cH:6][c:7]1[CH:8]([O-:15])[N:9]1[CH2:10][CH2:11][CH2:12][CH2:13][CH2:14]1
p1903
sg201
g1902
sasg55
F254.86135000000002
sg56
I00
sssg249
(lp1904
(I1
g1550
tp1905
a(I1
g1567
tp1906
a(g1548
I1
tp1907
a(g1550
I19
tp1908
a(I2
g1548
tp1909
a(g1544
I2
tp1910
a(I3
g1544
tp1911
a(g1552
I3
tp1912
a(g1552
I13
tp1913
a(g1552
I21
tp1914
a(g1552
I22
tp1915
a(g1556
I3
tp1916
a(I4
g1552
tp1917
a(I4
g1566
tp1918
a(I4
g1568
tp1919
a(g1546
I4
tp1920
a(g1546
I10
tp1921
a(g1546
I16
tp1922
a(I5
g1546
tp1923
a(I5
g81
tp1924
a(g1554
I5
tp1925
a(g1554
I8
tp1926
a(g1554
I15
tp1927
a(I6
g1554
tp1928
a(g1540
I6
tp1929
a(g1540
I7
tp1930
a(g45
I6
tp1931
a(g81
I1
tp1932
a(g1568
I18
tp1933
a(I7
g1558
tp1934
a(g1558
I9
tp1935
a(I8
g1540
tp1936
a(I9
g1540
tp1937
a(I10
g1540
tp1938
a(I11
g1540
tp1939
a(g1900
I11
tp1940
a(g1900
I14
tp1941
a(g1900
I20
tp1942
a(I12
g1540
tp1943
a(VO=Cc1ccccc1[O-]
p1944
I12
tp1945
a(I13
g1546
tp1946
a(I14
g1546
tp1947
a(I15
g1900
tp1948
a(I16
g1900
tp1949
a(I17
g1900
tp1950
a(V[O-]c1ccccc1C(O)N1CCCCC1
p1951
I17
tp1952
a(I18
VO=C(O)O
p1953
tp1954
a(I19
g1542
tp1955
a(I20
g1902
tp1956
a(I21
g1951
tp1957
a(I22
g1944
tp1958
a(I22
g45
tp1959
asg282
(dp1960
((g1548
tp1961
g1550
g1576
tp1962
I1
s((g1544
tp1963
g1548
g1594
tp1964
I2
s((g1556
g1552
tp1965
g1544
g1609
tp1966
I3
s((g1546
tp1967
g1552
g1626
tp1968
I4
s((g1554
tp1969
g1546
g1643
tp1970
I5
s((g45
g1540
tp1971
g1554
g1660
tp1972
I6
s(g1969
g1540
g1676
tp1973
I8
s(g1967
g1540
g1706
tp1974
I10
s((g1900
tp1975
g1540
g1676
tp1976
I11
s((g1944
tp1977
g1540
g1691
tp1978
I12
s((g1552
tp1979
g1546
g1691
tp1980
I13
s(g1975
g1546
g1805
tp1981
I14
s(g1969
g1900
g1691
tp1982
I15
s(g1967
g1900
g1778
tp1983
I16
s((g1951
tp1984
g1900
g1691
tp1985
I17
s((g1568
tp1986
g1953
g1691
tp1987
I18
s((g1550
tp1988
g1542
g1626
tp1989
I19
s(g1975
g1902
g1885
tp1990
I20
s(g1979
g1951
g1778
tp1991
I21
s(g1979
g1944
g1706
tp1992
I22
ssg298
(dp1993
g45
(dp1994
g301
I0
sg302
(lp1995
sg304
V\u000a     RDKit          2D\u000a\u000a  6  6  0  0  0  0  0  0  0  0999 V2000\u000a    0.3664   -0.3666    0.0000 C   0  0  0  0  0  0  0  0  0  0  0  0\u000a   -0.4992    0.1340    0.0000 C   0  0  0  0  0  0  0  0  0  0  0  0\u000a   -1.3656   -0.3654    0.0000 C   0  0  0  0  0  0  0  0  0  0  0  0\u000a   -1.3664   -1.3654    0.0000 N   0  0  0  0  0  0  0  0  0  0  0  0\u000a   -0.5008   -1.8660    0.0000 C   0  0  0  0  0  0  0  0  0  0  0  0\u000a    0.3656   -1.3666    0.0000 C   0  0  0  0  0  0  0  0  0  0  0  0\u000a  1  2  1  0\u000a  2  3  1  0\u000a  3  4  1  0\u000a  4  5  1  0\u000a  5  6  1  0\u000a  6  1  1  0\u000aM  END\u000a
p1996
sg306
g307
sg308
g45
sg309
g310
sg316
(lp1997
(lp1998
g1552
aassg1540
(dp1999
g301
I0
sg302
(lp2000
sg304
g1541
sg306
g314
sg308
g1540
sg309
g315
sg316
(lp2001
(lp2002
g1554
aassg1556
(dp2003
g301
I0
sg302
(lp2004
sg304
g1557
sg306
g322
sg308
g1556
sg309
g310
ssg1550
(dp2005
g301
I6
sg302
(lp2006
g1548
ag81
asg304
g1551
sg306
g326
sg327
g1550
sg309
g310
ssg1548
(dp2007
g301
I5
sg302
(lp2008
g1544
asg304
g1549
sg306
g331
sg327
g1548
sg309
g310
ssg1544
(dp2009
g301
I4
sg302
(lp2010
g1552
ag1556
asg304
g1545
sg306
g331
sg327
g1544
sg309
g310
ssg1552
(dp2011
g301
I3
sg302
(lp2012
g1546
asg304
g1553
sg306
g338
sg327
g1552
sg309
g310
ssg1546
(dp2013
g301
I2
sg302
(lp2014
g1554
asg304
g1547
sg306
VC12H16NO+
p2015
sg327
g1546
sg309
g310
sg316
(lp2016
(lp2017
g1900
aa(lp2018
g1552
aassg1554
(dp2019
g301
I1
sg302
(lp2020
g1540
ag45
asg304
g1555
sg306
VC12H18NO2+
p2021
sg327
g1554
sg309
g310
ssg81
(dp2022
g301
I0
sg302
(lp2023
sg304
V\u000a     RDKit          2D\u000a\u000a  1  0  0  0  0  0  0  0  0  0999 V2000\u000a    0.0000    0.0000    0.0000 O   0  0  0  0  0  0  0  0  0  0  0  0\u000aM  END\u000a
p2024
sg306
g350
sg309
g79
sg316
(lp2025
(lp2026
g1554
aa(lp2027
g1900
aa(lp2028
a(lp2029
a(lp2030
a(lp2031
assg1567
(dp2032
g301
I6
sg302
(lp2033
g1548
ag81
asg306
g355
sg304
V\u000a     RDKit          2D\u000a\u000a  4  3  0  0  0  0  0  0  0  0999 V2000\u000a   -0.9992    1.0000    0.0000 O   0  0  0  0  0  0  0  0  0  0  0  0\u000a   -1.0000    0.0000    0.0000 B   0  0  0  0  0  0  0  0  0  0  0  0\u000a   -0.1344   -0.5006    0.0000 O   0  0  0  0  0  0  0  0  0  0  0  0\u000a   -1.8664   -0.4994    0.0000 O   0  0  0  0  0  0  0  0  0  0  0  0\u000a  1  2  1  0\u000a  2  3  1  0\u000a  2  4  1  0\u000aM  END\u000a
p2034
sg327
g1567
sg309
g357
ssg1566
(dp2035
g301
I3
sg302
(lp2036
g1546
asg306
VK+
p2037
sg304
V\u000a     RDKit          2D\u000a\u000a  1  0  0  0  0  0  0  0  0  0999 V2000\u000a    0.0000    0.0000    0.0000 K   0  0  0  0  0 15  0  0  0  0  0  0\u000aM  CHG  1   1   1\u000aM  END\u000a
p2038
sg327
g1566
sg309
g357
ssg1568
(dp2039
g301
I3
sg302
(lp2040
g1546
asg306
VCHO3-
p2041
sg304
V\u000a     RDKit          2D\u000a\u000a  4  3  0  0  0  0  0  0  0  0999 V2000\u000a   -0.9992    1.0000    0.0000 O   0  0  0  0  0  0  0  0  0  0  0  0\u000a   -1.0000    0.0000    0.0000 C   0  0  0  0  0  0  0  0  0  0  0  0\u000a   -0.1344   -0.5006    0.0000 O   0  0  0  0  0  1  0  0  0  0  0  0\u000a   -1.8664   -0.4994    0.0000 O   0  0  0  0  0  0  0  0  0  0  0  0\u000a  1  2  2  0\u000a  2  3  1  0\u000a  2  4  1  0\u000aM  CHG  1   3  -1\u000aM  END\u000a
p2042
sg327
g1568
sg309
g357
ssg1558
(dp2043
g301
I1
sg302
(lp2044
g1540
asg306
VC7H7O2+
p2045
sg304
g1559
sg327
g1558
sg309
g6
ssg1900
(dp2046
g301
I2
sg309
VsideCompeting
p2047
sg304
V\u000a     RDKit          2D\u000a\u000a 15 16  0  0  0  0  0  0  0  0999 V2000\u000a    1.3666   -2.4648    0.0000 O   0  0  0  0  0  0  0  0  0  0  0  0\u000a    0.5010   -1.9640    0.0000 C   0  0  0  0  0  0  0  0  0  0  0  0\u000a   -0.3654   -2.4634    0.0000 C   0  0  0  0  0  0  0  0  0  0  0  0\u000a   -1.2310   -1.9628    0.0000 C   0  0  0  0  0  0  0  0  0  0  0  0\u000a   -1.2302   -0.9628    0.0000 C   0  0  0  0  0  0  0  0  0  0  0  0\u000a   -0.3638   -0.4634    0.0000 C   0  0  0  0  0  0  0  0  0  0  0  0\u000a    0.5018   -0.9640    0.0000 C   0  0  0  0  0  0  0  0  0  0  0  0\u000a    1.3682   -0.4648    0.0000 C   0  0  0  0  0  0  0  0  0  0  0  0\u000a    2.2338   -0.9654    0.0000 O   0  0  0  0  0  0  0  0  0  0  0  0\u000a    1.3690    0.5352    0.0000 N   0  0  0  0  0  0  0  0  0  0  0  0\u000a    0.5034    1.0360    0.0000 C   0  0  0  0  0  0  0  0  0  0  0  0\u000a    0.5042    2.0360    0.0000 C   0  0  0  0  0  0  0  0  0  0  0  0\u000a    1.3706    2.5352    0.0000 C   0  0  0  0  0  0  0  0  0  0  0  0\u000a    2.2362    2.0346    0.0000 C   0  0  0  0  0  0  0  0  0  0  0  0\u000a    2.2354    1.0346    0.0000 C   0  0  0  0  0  0  0  0  0  0  0  0\u000a  1  2  1  0\u000a  2  3  2  0\u000a  3  4  1  0\u000a  4  5  2  0\u000a  5  6  1  0\u000a  6  7  2  0\u000a  7  8  1  0\u000a  8  9  1  0\u000a  8 10  1  0\u000a 10 11  1  0\u000a 11 12  1  0\u000a 12 13  1  0\u000a 13 14  1  0\u000a 14 15  1  0\u000a  7  2  1  0\u000a 15 10  1  0\u000aM  END\u000a
p2048
sg306
VC12H17NO2
p2049
sVnoIsoSmiles
p2050
g1900
sVdHrx
p2051
(lp2052
I0
asg302
(lp2053
g1554
asg316
(lp2054
(lp2055
g1546
aa(lp2056
g1951
aassg1953
(dp2057
g301
I4
sg309
g2047
sg304
V\u000a     RDKit          2D\u000a\u000a  4  3  0  0  0  0  0  0  0  0999 V2000\u000a   -0.9992    1.0000    0.0000 O   0  0  0  0  0  0  0  0  0  0  0  0\u000a   -1.0000    0.0000    0.0000 C   0  0  0  0  0  0  0  0  0  0  0  0\u000a   -0.1344   -0.5006    0.0000 O   0  0  0  0  0  0  0  0  0  0  0  0\u000a   -1.8664   -0.4994    0.0000 O   0  0  0  0  0  0  0  0  0  0  0  0\u000a  1  2  2  0\u000a  2  3  1  0\u000a  2  4  1  0\u000aM  END\u000a
p2058
sg306
VCH2O3
p2059
sg2050
g1953
sg2051
(lp2060
I0
asg302
(lp2061
g1568
assg1542
(dp2062
g301
I7
sg309
g2047
sg304
g1543
sg306
VC22H28NO-
p2063
sg2050
g1542
sg2051
(lp2064
I0
asg302
(lp2065
g1550
assg1902
(dp2066
g301
I2
sg309
g2047
sg304
V\u000a     RDKit          2D\u000a\u000a 15 16  0  0  0  0  0  0  0  0999 V2000\u000a    2.2338   -0.9654    0.0000 O   0  0  0  0  0  1  0  0  0  0  0  0\u000a    1.3682   -0.4648    0.0000 C   0  0  0  0  0  0  0  0  0  0  0  0\u000a    0.5018   -0.9640    0.0000 C   0  0  0  0  0  0  0  0  0  0  0  0\u000a   -0.3638   -0.4634    0.0000 C   0  0  0  0  0  0  0  0  0  0  0  0\u000a   -1.2302   -0.9628    0.0000 C   0  0  0  0  0  0  0  0  0  0  0  0\u000a   -1.2310   -1.9628    0.0000 C   0  0  0  0  0  0  0  0  0  0  0  0\u000a   -0.3654   -2.4634    0.0000 C   0  0  0  0  0  0  0  0  0  0  0  0\u000a    0.5010   -1.9640    0.0000 C   0  0  0  0  0  0  0  0  0  0  0  0\u000a    1.3666   -2.4648    0.0000 O   0  0  0  0  0  0  0  0  0  0  0  0\u000a    1.3690    0.5352    0.0000 N   0  0  0  0  0  0  0  0  0  0  0  0\u000a    0.5034    1.0360    0.0000 C   0  0  0  0  0  0  0  0  0  0  0  0\u000a    0.5042    2.0360    0.0000 C   0  0  0  0  0  0  0  0  0  0  0  0\u000a    1.3706    2.5352    0.0000 C   0  0  0  0  0  0  0  0  0  0  0  0\u000a    2.2362    2.0346    0.0000 C   0  0  0  0  0  0  0  0  0  0  0  0\u000a    2.2354    1.0346    0.0000 C   0  0  0  0  0  0  0  0  0  0  0  0\u000a  1  2  1  0\u000a  2  3  1  0\u000a  3  4  2  0\u000a  4  5  1  0\u000a  5  6  2  0\u000a  6  7  1  0\u000a  7  8  2  0\u000a  8  9  1  0\u000a  2 10  1  0\u000a 10 11  1  0\u000a 11 12  1  0\u000a 12 13  1  0\u000a 13 14  1  0\u000a 14 15  1  0\u000a  8  3  1  0\u000a 15 10  1  0\u000aM  CHG  1   1  -1\u000aM  END\u000a
p2067
sg306
VC12H16NO2-
p2068
sg2050
g1902
sg2051
(lp2069
I0
asg302
(lp2070
g1900
assg1951
(dp2071
g301
I4
sg309
g2047
sg304
V\u000a     RDKit          2D\u000a\u000a 15 16  0  0  0  0  0  0  0  0999 V2000\u000a    1.3666   -2.4648    0.0000 O   0  0  0  0  0  1  0  0  0  0  0  0\u000a    0.5010   -1.9640    0.0000 C   0  0  0  0  0  0  0  0  0  0  0  0\u000a   -0.3654   -2.4634    0.0000 C   0  0  0  0  0  0  0  0  0  0  0  0\u000a   -1.2310   -1.9628    0.0000 C   0  0  0  0  0  0  0  0  0  0  0  0\u000a   -1.2302   -0.9628    0.0000 C   0  0  0  0  0  0  0  0  0  0  0  0\u000a   -0.3638   -0.4634    0.0000 C   0  0  0  0  0  0  0  0  0  0  0  0\u000a    0.5018   -0.9640    0.0000 C   0  0  0  0  0  0  0  0  0  0  0  0\u000a    1.3682   -0.4648    0.0000 C   0  0  0  0  0  0  0  0  0  0  0  0\u000a    2.2338   -0.9654    0.0000 O   0  0  0  0  0  0  0  0  0  0  0  0\u000a    1.3690    0.5352    0.0000 N   0  0  0  0  0  0  0  0  0  0  0  0\u000a    0.5034    1.0360    0.0000 C   0  0  0  0  0  0  0  0  0  0  0  0\u000a    0.5042    2.0360    0.0000 C   0  0  0  0  0  0  0  0  0  0  0  0\u000a    1.3706    2.5352    0.0000 C   0  0  0  0  0  0  0  0  0  0  0  0\u000a    2.2362    2.0346    0.0000 C   0  0  0  0  0  0  0  0  0  0  0  0\u000a    2.2354    1.0346    0.0000 C   0  0  0  0  0  0  0  0  0  0  0  0\u000a  1  2  1  0\u000a  2  3  2  0\u000a  3  4  1  0\u000a  4  5  2  0\u000a  5  6  1  0\u000a  6  7  2  0\u000a  7  8  1  0\u000a  8  9  1  0\u000a  8 10  1  0\u000a 10 11  1  0\u000a 11 12  1  0\u000a 12 13  1  0\u000a 13 14  1  0\u000a 14 15  1  0\u000a  7  2  1  0\u000a 15 10  1  0\u000aM  CHG  1   1  -1\u000aM  END\u000a
p2072
sg306
g2068
sg2050
g1951
sg2051
(lp2073
I0
asg302
(lp2074
g1552
assg1944
(dp2075
g301
I4
sg309
g2047
sg304
V\u000a     RDKit          2D\u000a\u000a  9  9  0  0  0  0  0  0  0  0999 V2000\u000a    0.2438    2.1756    0.0000 O   0  0  0  0  0  0  0  0  0  0  0  0\u000a   -0.6232    1.6774    0.0000 C   0  0  0  0  0  0  0  0  0  0  0  0\u000a   -0.6252    0.6774    0.0000 C   0  0  0  0  0  0  0  0  0  0  0  0\u000a    0.2398    0.1756    0.0000 C   0  0  0  0  0  0  0  0  0  0  0  0\u000a    0.2378   -0.8244    0.0000 C   0  0  0  0  0  0  0  0  0  0  0  0\u000a   -0.6292   -1.3226    0.0000 C   0  0  0  0  0  0  0  0  0  0  0  0\u000a   -1.4942   -0.8208    0.0000 C   0  0  0  0  0  0  0  0  0  0  0  0\u000a   -1.4922    0.1790    0.0000 C   0  0  0  0  0  0  0  0  0  0  0  0\u000a   -2.3572    0.6808    0.0000 O   0  0  0  0  0  1  0  0  0  0  0  0\u000a  1  2  2  0\u000a  2  3  1  0\u000a  3  4  2  0\u000a  4  5  1  0\u000a  5  6  2  0\u000a  6  7  1  0\u000a  7  8  2  0\u000a  8  9  1  0\u000a  8  3  1  0\u000aM  CHG  1   9  -1\u000aM  END\u000a
p2076
sg306
VC7H5O2-
p2077
sg2050
g1944
sg2051
(lp2078
I0
asg302
(lp2079
g1552
asssg370
(dp2080
g1962
(dp2081
g373
g374
ssg1964
(dp2082
g373
g374
ssg1966
(dp2083
g373
g374
ssg1968
(dp2084
g373
g374
ssg1970
(dp2085
g373
g374
ssg1972
(dp2086
g373
g374
ss((g1540
tp2087
g1558
g1817
tp2088
(dp2089
g373
g374
ssg1973
(dp2090
g373
g385
ssg1981
(dp2091
g397
g385
ssg1980
(dp2092
g397
g385
ssg1982
(dp2093
g397
g374
ssg1983
(dp2094
g397
g385
ssg1985
(dp2095
g397
g385
ssg1987
(dp2096
g397
g374
ssg1989
(dp2097
g397
g374
ssg1990
(dp2098
g397
g374
ssg1991
(dp2099
g397
g374
ssg1992
(dp2100
g397
g374
sssg386
(dp2101
(g1548
g1567
VHydrolysis of boronic esters
p2102
tp2103
(lp2104
(dp2105
g392
g1567
sg393
g1548
sg23
g2102
sg394
g1592
sg27
VDCM, rt<BR> allow temp:rt, allow AB: SB.B.N.A.SA
p2106
sg33
g396
sg397
g374
sas(g81
g1567
g2102
tp2107
(lp2108
(dp2109
g392
g1567
sg393
g81
sg23
g2102
sg394
g1592
sg27
g2106
sg33
g396
sg397
g374
sas(g1548
g1550
g2102
tp2110
(lp2111
(dp2112
g392
g1550
sg393
g1548
sg23
g2102
sg394
g1592
sg27
g2106
sg33
g396
sg397
g374
sas(g81
g1550
g2102
tp2113
(lp2114
(dp2115
g392
g1550
sg393
g81
sg23
g2102
sg394
g1592
sg27
g2106
sg33
g396
sg397
g374
sas(g1544
g1548
VAddition of boronates to iminium cations
p2116
tp2117
(lp2118
(dp2119
g392
g1548
sg393
g1544
sg23
g2116
sg394
VCC(C)(C)c1ccc([B-](O)(O)Oc2ccccc2C=[N+]2CCCCC2)cc1>>CC(C)(C)c1ccc(C(c2ccccc2OB(O)O)N2CCCCC2)cc1.
p2120
sg27
VDCM, rt<BR> allow temp:rt, allow AB: N.WB.B.SB
p2121
sg33
g396
sg397
g374
sas(g1552
g1544
VAddition of alcohol/phenol to boronic acids
p2122
tp2123
(lp2124
(dp2125
g392
g1544
sg393
g1552
sg23
g2122
sg394
V[O-]c1ccccc1C=[N+]1CCCCC1.CC(C)(C)c1ccc(B(O)O)cc1>>CC(C)(C)c1ccc([B-](O)(O)Oc2ccccc2C=[N+]2CCCCC2)cc1.
p2126
sg27
g2121
sg33
g396
sg397
g374
sas(g1556
g1544
g2122
tp2127
(lp2128
(dp2129
g392
g1544
sg393
g1556
sg23
g2122
sg394
g2126
sg27
g2121
sg33
g396
sg397
g374
sas(g1546
g1566
VPhenol deprotonation
p2130
tp2131
(lp2132
(dp2133
g392
g1566
sg393
g1546
sg23
g2130
sg394
VOc1ccccc1C=[N+]1CCCCC1>>[O-]c1ccccc1C=[N+]1CCCCC1.OC([O-])=O.[K+].[K+]
p2134
sg27
VK2CO3<BR> allow temp:L.rt.H, allow AB: WB.B.SB
p2135
sg33
g427
sg397
g374
sas(g1546
g1568
g2130
tp2136
(lp2137
(dp2138
g392
g1568
sg393
g1546
sg23
g2130
sg394
g2134
sg27
g2135
sg33
g427
sg397
g374
sas(g1546
g1552
g2130
tp2139
(lp2140
(dp2141
g392
g1552
sg393
g1546
sg23
g2130
sg394
g2134
sg27
g2135
sg33
g427
sg397
g374
sas(g1554
g81
VIminium cation formation
p2142
tp2143
(lp2144
(dp2145
g392
g81
sg393
g1554
sg23
g2142
sg394
g1658
sg27
VAcOH, EtOH<BR> allow temp:RT.H, allow AB: WA.N.WB.LA
p2146
sg33
g34
sg397
g385
sas(g1554
g1546
g2142
tp2147
(lp2148
(dp2149
g392
g1546
sg393
g1554
sg23
g2142
sg394
g1658
sg27
g2146
sg33
g34
sg397
g374
sas(g1540
g1554
VAddition of secondary amine to aldehyde
p2150
tp2151
(lp2152
(dp2153
g392
g1554
sg393
g1540
sg23
g2150
sg394
VO=Cc1ccccc1O.C1CCNCC1>>Oc1ccccc1C(O)[NH+]1CCCCC1.
p2154
sg27
g2146
sg33
g34
sg397
g374
sas(g45
g1554
g2150
tp2155
(lp2156
(dp2157
g392
g1554
sg393
g45
sg23
g2150
sg394
g2154
sg27
g2146
sg33
g34
sg397
g374
sas(g1540
g1558
g1519
tp2158
(lp2159
(dp2160
g392
g1558
sg393
g1540
sg23
g1519
sg27
g1521
sg33
g34
sg397
g374
sas(g1554
g1540
g1528
tp2161
(lp2162
(dp2163
g392
g1540
sg393
g1554
sg23
g1528
sg27
g1530
sg33
g51
sg397
g385
sas(g1900
g1546
g2142
tp2164
(lp2165
(dp2166
g393
g1900
sg392
g1546
sg397
g385
sg394
g1803
sg23
g2142
sg27
VNEt3;;;solvent
p2167
sg33
g34
sas(g1900
g81
g2142
tp2168
(lp2169
(dp2170
g393
g1900
sg392
g81
sg397
g385
sg394
g1803
sg23
g2142
sg27
g2167
sg33
g34
sas(g1552
g1546
Vcondition changes
p2171
tp2172
(lp2173
(dp2174
g393
g1552
sg392
g1546
sg397
g385
sg394
g1792
sg23
g2171
sg27
g32
sg33
Vany
p2175
sas(g1554
g1900
g2171
tp2176
(lp2177
(dp2178
g393
g1554
sg392
g1900
sg397
g374
sg394
g1735
sg23
g2171
sg27
g32
sg33
g2175
sas(g1546
g1900
VHydrolysis of iminium cations
p2179
tp2180
(lp2181
(dp2182
g393
g1546
sg392
g1900
sg397
g385
sg394
g1776
sg23
g2179
sg27
VMeCN
p2183
sg33
g51
sas(g81
g1900
g2179
tp2184
(lp2185
(dp2186
g393
g81
sg392
g1900
sg397
g385
sg23
g2179
sg27
g2183
sg33
g51
sg394
g1776
sas(g1951
g1900
g2171
tp2187
(lp2188
(dp2189
g393
g1951
sg392
g1900
sg397
g385
sg394
g1827
sg23
g2171
sg27
g32
sg33
g2175
sas(g1568
g1953
g2171
tp2190
(lp2191
(dp2192
g393
g1568
sg392
g1953
sg397
g374
sg394
g1853
sg23
g2171
sg27
g32
sg33
g2175
sas(g1550
g1542
g2130
tp2193
(lp2194
(dp2195
g393
g1550
sg392
g1542
sg397
g374
sg394
g1867
sg23
g2130
sg27
VK2CO3
p2196
sg33
g427
sas(g1900
g1902
VSeconadry alcohol deprotonation
p2197
tp2198
(lp2199
(dp2200
g393
g1900
sg392
g1902
sg397
g374
sg394
g1883
sg23
g2197
sg27
VNaOH;;;NaH
p2201
sg33
VDMSO
p2202
sas(g1552
g1951
g2179
tp2203
(lp2204
(dp2205
g393
g1552
sg392
g1951
sg397
g374
sg394
g1841
sg23
g2179
sg27
g2183
sg33
g51
sas(g81
g1951
g2179
tp2206
(lp2207
(dp2208
g393
g81
sg392
g1951
sg397
g374
sg23
g2179
sg27
g2183
sg33
g51
sg394
g1841
sas(g1552
g1944
g2179
tp2209
(lp2210
(dp2211
g393
g1552
sg392
g1944
sg397
g374
sg394
g1761
sg23
g2179
sg27
g2183
sg33
g51
sas(g81
g1944
g2179
tp2212
(lp2213
(dp2214
g393
g81
sg392
g1944
sg397
g374
sg23
g2179
sg27
g2183
sg33
g51
sg394
g1761
sas(g1552
g45
g2179
tp2215
(lp2216
(dp2217
g393
g1552
sg392
g45
sg397
g385
sg394
g1761
sg23
g2179
sg27
g2183
sg33
g51
sas(g81
g45
g2179
tp2218
(lp2219
(dp2220
g393
g81
sg392
g45
sg397
g385
sg23
g2179
sg27
g2183
sg33
g51
sg394
g1761
sassg456
g1550
sg457
(dp2221
I1
(dp2222
g14
g1575
sg91
(dp2223
g93
F0.0
sg94
I0
sg95
I0
sg96
(lp2224
g87
asg98
(lp2225
((lp2226
g1583
ag1584
a(lp2227
g1588
atp2228
asg21
g1590
sg109
I-2
ssg16
(lp2229
g87
asg36
g1592
sg37
I00
sg38
I00
sg55
F-8.77229999999986
sg56
I00
ssI2
(dp2230
g14
g1593
sg91
(dp2231
g93
F0.0
sg94
I0
sg95
I0
sg96
(lp2232
g126
asg98
(lp2233
((lp2234
g1601
a(lp2235
g1604
atp2236
asg21
g1606
sg109
I-2
ssg16
(lp2237
g126
asg36
g1593
sg37
I00
sg38
I00
sg55
F-75.65669000000003
sg56
I00
ssI3
(dp2238
g14
g1608
sg91
(dp2239
g93
F0.0
sg94
I0
sg95
I0
sg96
(lp2240
g147
asg98
(lp2241
((lp2242
g1616
ag1617
a(lp2243
g1620
atp2244
asg21
g1622
sg109
I-2
ssg16
(lp2245
g147
asg36
g1624
sg37
I00
sg38
I00
sg55
F-35.27230999999995
sg56
I00
ssI4
(dp2246
g14
g1625
sg91
(dp2247
g93
F0.0
sg94
I0
sg95
I0
sg96
(lp2248
g170
asg98
(lp2249
((lp2250
g1633
a(lp2251
g1636
atp2252
asg21
g1638
sg109
I-2
ssg16
(lp2253
g170
asg36
g1625
sg37
I00
sg38
(lp2254
g193
a(dp2255
g195
g1546
sg197
g1633
sg198
g1552
sg200
g1635
sg201
g1552
sasg55
F36.94552
sg56
I00
ssI5
(dp2256
g14
g1642
sg91
(dp2257
g93
F0.0
sg94
I0
sg95
I0
sg96
(lp2258
g203
asg98
(lp2259
((lp2260
g1650
a(lp2261
g1654
atp2262
asg21
g1656
sg109
I-2
ssg16
(lp2263
g203
asg36
g1658
sg37
I00
sg38
I00
sg55
F-47.96627999999998
sg56
I00
ssI6
(dp2264
g14
g1659
sg91
(dp2265
g93
F0.0
sg94
I0
sg95
I0
sg96
(lp2266
g226
asg98
(lp2267
((lp2268
g1667
ag1668
a(lp2269
g1671
atp2270
asg21
g1673
sg109
I-2
ssg16
(lp2271
g226
asg36
g1675
sg37
I00
sg38
I00
sg248
F4.290000000000001
sg55
F17.045050000000003
sg56
I00
ssI8
(dp2272
g14
g1524
sg16
(lp2273
g43
asg19
(lp2274
g45
asg21
g1527
sg23
g1528
sg25
g1529
sg27
g1530
sg29
g50
sg31
g32
sg33
g51
sg35
(lp2275
g1532
asg36
g1533
sg37
I00
sg38
I00
sg55
F-17.045050000000003
sg56
I00
ssI10
(dp2276
g14
g1704
sg91
(dp2277
g93
F0.0
sg94
I0
sg95
I0
sg96
(lp2278
g1705
asg98
(lp2279
((lp2280
g1633
ag1713
a(lp2281
g1717
atp2282
asg21
g1719
sg109
I-2
ssg16
(lp2283
g1705
asg36
g1721
sg37
I00
sg38
I00
sg248
F-3.5599999999999996
sg55
F30.92122999999998
sg56
I00
ssI11
(dp2284
g14
g1722
sg91
(dp2285
g93
F0.0
sg94
I0
sg95
I0
sg96
(lp2286
g43
asg98
(lp2287
((lp2288
g1729
a(lp2289
g1686
atp2290
asg21
g1732
sg109
I-2
ssg16
(lp2291
g43
asg36
g1734
sg37
I00
sg38
I00
sg55
F71.80849
sg56
I00
ssI15
(dp2292
g14
g1735
sg91
(dp2293
g93
I0
sg94
I0
sg95
I0
sg96
(lp2294
sg98
(lp2295
(lp2296
(lp2297
g1650
aa(lp2298
(lp2299
g1729
aaaasg21
g1745
sg109
I-2
ssg16
(lp2300
I1
asg36
g1735
sg37
I00
sg38
I00
sg55
F-88.85354000000001
sg56
I00
ssI12
(dp2301
g14
g1747
sg91
(dp2302
g93
I0
sg94
I0
sg95
I0
sg96
(lp2303
Nasg98
(lp2304
(lp2305
g1755
a(lp2306
g1758
aaasg21
g1759
sg109
I-2
ssg16
(lp2307
I1
asg36
g1747
sg37
I00
sg38
I00
sg55
F-150.36639
sg56
I00
ssI22
(dp2308
g14
g1761
sg91
(dp2309
g93
F0.0
sg94
I0
sg95
I0
sg96
(lp2310
g1705
asg98
(lp2311
((lp2312
g1617
ag1768
a(lp2313
g1771
atp2314
asg21
g1773
sg109
I-2
ssg16
(lp2315
g1705
asg36
g1775
sg37
I00
sg38
I00
sg248
F-3.5599999999999996
sg55
F144.3421
sg56
I00
ssI16
(dp2316
g14
g1776
sg91
(dp2317
g93
F0.0
sg94
I0
sg95
I0
sg96
(lp2318
g1777
asg98
(lp2319
((lp2320
g1633
ag1713
a(lp2321
g1787
atp2322
asg21
g1789
sg109
I-2
ssg16
(lp2323
g1777
asg36
g1791
sg37
I00
sg38
I00
sg248
F-3.5599999999999996
sg55
F-40.887260000000026
sg56
I00
ssI13
(dp2324
g14
g1792
sg91
(dp2325
g93
I0
sg94
I0
sg95
I0
sg96
(lp2326
Nasg98
(lp2327
(lp2328
g1636
a(lp2329
g1800
aaasg21
g1801
sg109
I-2
ssg16
(lp2330
I1
asg36
g1792
sg37
I00
sg38
I00
sg55
F-36.94552
sg56
I00
ssI14
(dp2331
g14
g1803
sg91
(dp2332
g93
F0.0
sg94
I0
sg95
I0
sg96
(lp2333
g1804
asg98
(lp2334
((lp2335
g1729
a(lp2336
g1654
atp2337
asg21
g1814
sg109
I-2
ssg16
(lp2338
g1804
asg36
g1816
sg37
I00
sg38
I00
sg55
F40.887260000000026
sg56
I00
ssI17
(dp2339
g14
g1827
sg91
(dp2340
g93
I0
sg94
I0
sg95
I0
sg96
(lp2341
Nasg98
(lp2342
(lp2343
g1835
a(lp2344
g1838
aaasg21
g1839
sg109
I-2
ssg16
(lp2345
I1
asg36
g1827
sg37
I00
sg38
I00
sg55
F-143.7638
sg56
I00
ssI21
(dp2346
g14
g1841
sg91
(dp2347
g93
F0.0
sg94
I0
sg95
I0
sg96
(lp2348
g1777
asg98
(lp2349
((lp2350
g1617
ag1768
a(lp2351
g1835
atp2352
asg21
g1850
sg109
I-2
ssg16
(lp2353
g1777
asg36
g1852
sg37
I00
sg38
I00
sg248
F-3.5599999999999996
sg55
F65.93101999999999
sg56
I00
ssI18
(dp2354
g14
g1853
sg91
(dp2355
g93
I0
sg94
I0
sg95
I0
sg96
(lp2356
sg98
(lp2357
(lp2358
(lp2359
g1861
aa(lp2360
(lp2361
g1864
aaaasg21
g1865
sg109
I-2
ssg16
(lp2362
I1
asg36
g1853
sg37
I00
sg38
I00
sg55
F-251.69010000000003
sg56
I00
ssI19
(dp2363
g14
g1867
sg91
(dp2364
g93
F0.0
sg94
I0
sg95
I0
sg96
(lp2365
g170
asg98
(lp2366
((lp2367
g1874
a(lp2368
g1877
atp2369
asg21
g1879
sg109
I-2
ssg16
(lp2370
g170
asg36
g1867
sg37
I00
sg38
(lp2371
g193
a(dp2372
g195
g1550
sg197
g1874
sg198
g1542
sg200
g1876
sg201
g1542
sasg55
F107.4007
sg56
I01
ssI20
(dp2373
g14
g1883
sg91
(dp2374
g93
F0.0
sg94
I0
sg95
I0
sg96
(lp2375
g1884
asg98
(lp2376
((lp2377
g1729
a(lp2378
g1894
atp2379
asg21
g1896
sg109
I-2
ssg16
(lp2380
g1884
asg36
g1883
sg37
I00
sg38
(lp2381
g193
a(dp2382
g195
g1900
sg197
g1901
sg198
g1902
sg200
g1903
sg201
g1902
sasg55
F254.86135000000002
sg56
I00
ssg555
(dp2383
g14
VCC(C)(C)c1ccc([B-](O)(O)Oc2ccccc2C=[N+]2CCCCC2)cc1>>[O-]c1ccccc1C=[N+]1CCCCC1.CC(C)(C)c1ccc(B(O)O)cc1
p2384
sg91
(dp2385
g93
F0.0
sg94
I0
sg95
I0
sg96
(lp2386
g147
asg98
(lp2387
((lp2388
g1616
ag1617
a(lp2389
g1620
atp2390
asg21
g1622
sg109
I-2
ssg16
(lp2391
g147
asg36
VCC(C)(C)c1ccc([B-](O)(O)Oc2ccccc2C=[N+]2CCCCC2)cc1>>CC(C)(C)c1ccc(B(O)O)cc1.[O-]c1ccccc1C=[N+]1CCCCC1
p2392
sg37
I00
sg38
I00
sg573
Vhand-made reverse rx
p2393
sg55
F35.27230999999995
sg56
I00
ssg575
(dp2394
g14
VOc1ccccc1C=[N+]1CCCCC1>>Oc1ccccc1C(O)[NH+]1CCCCC1
p2395
sg91
(dp2396
g93
F0.0
sg94
I0
sg95
I0
sg96
(lp2397
g203
asg98
(lp2398
((lp2399
g1650
a(lp2400
g1654
atp2401
asg21
g1656
sg109
I-2
ssg16
(lp2402
g203
asg36
VOc1ccccc1C=[N+]1CCCCC1.O>>Oc1ccccc1C(O)[NH+]1CCCCC1
p2403
sg37
I00
sg38
I00
sg573
g2393
sg55
F47.96627999999998
sg56
I00
sssg593
(dp2404
g595
g67
((lp2405
g1944
ag1552
ag1902
ag1542
ag1951
ag1554
ag1568
ag1558
atp2406
Rp2407
ssg599
(dp2408
g601
(dp2409
sg603
(dp2410
g1548
g67
((lp2411
I16
aI1
aI21
aI22
aI10
atp2412
Rp2413
sssg608
g67
((lp2414
g1542
atp2415
Rp2416
ssg1257
g1258
(g1259
g1260
Ntp2417
Rp2418
(dp2419
g1264
g1265
sg1266
g1265
sg1267
g1265
sg1268
g1265
sg1269
g1265
sg1270
g1265
sg249
(dp2420
sg1272
(dp2421
I1
(dp2422
sVCC(C)(C)c1ccc(C(c2ccccc2O)N2CCCCC2)cc1
p2423
(dp2424
sVOB(O)O
p2425
(dp2426
sVCC(C)(C)c1ccc(C(c2ccccc2OB(O)O)N2CCCCC2)cc1
p2427
(dp2428
sI19
(dp2429
sI2
(dp2430
sVCC(C)(C)c1ccc([B-](O)(O)Oc2ccccc2C=[N+]2CCCCC2)cc1
p2431
(dp2432
sI3
(dp2433
sV[O-]c1ccccc1C=[N+]1CCCCC1
p2434
(dp2435
sI13
(dp2436
sI21
(dp2437
sI22
(dp2438
sVCC(C)(C)c1ccc(B(O)O)cc1
p2439
(dp2440
sI4
(dp2441
sV[K+]
p2442
(dp2443
sVO=C([O-])O
p2444
(dp2445
sVOc1ccccc1C=[N+]1CCCCC1
p2446
(dp2447
sI10
(dp2448
sI16
(dp2449
sI5
(dp2450
sg81
(dp2451
sVOc1ccccc1C(O)[NH+]1CCCCC1
p2452
(dp2453
sI8
(dp2454
sI15
(dp2455
sI6
(dp2456
sVO=Cc1ccccc1O
p2457
(dp2458
sVC1CCNCC1
p2459
(dp2460
sI18
(dp2461
sI11
(dp2462
sVOc1ccccc1C(O)N1CCCCC1
p2463
(dp2464
sI14
(dp2465
sI20
(dp2466
sI12
(dp2467
sVO=Cc1ccccc1[O-]
p2468
(dp2469
sI17
(dp2470
sV[O-]c1ccccc1C(O)N1CCCCC1
p2471
(dp2472
sVO=C(O)O
p2473
(dp2474
sVCC(C)(C)c1ccc(C(c2ccccc2[O-])N2CCCCC2)cc1
p2475
(dp2476
sV[O-]C(c1ccccc1O)N1CCCCC1
p2477
(dp2478
sV3_REV
p2479
(dp2480
sV5_REV
p2481
(dp2482
ssg1316
(dp2483
I1
(dp2484
g2423
(dp2485
sg2425
(dp2486
ssg2423
(dp2487
I19
(dp2488
ssg2425
(dp2489
sg2427
(dp2490
I1
(dp2491
ssI19
(dp2492
g2475
(dp2493
ssI2
(dp2494
VCC(C)(C)c1ccc(C(c2ccccc2OB(O)O)N2CCCCC2)cc1
p2495
(dp2496
ssg2431
(dp2497
I2
(dp2498
sg2479
(dp2499
ssI3
(dp2500
VCC(C)(C)c1ccc([B-](O)(O)Oc2ccccc2C=[N+]2CCCCC2)cc1
p2501
(dp2502
ssg2434
(dp2503
I3
(dp2504
sI13
(dp2505
sI21
(dp2506
sI22
(dp2507
ssI13
(dp2508
VOc1ccccc1C=[N+]1CCCCC1
p2509
(dp2510
ssI21
(dp2511
V[O-]c1ccccc1C(O)N1CCCCC1
p2512
(dp2513
ssI22
(dp2514
VO=Cc1ccccc1[O-]
p2515
(dp2516
sVC1CCNCC1
p2517
(dp2518
ssg2439
(dp2519
I3
(dp2520
ssI4
(dp2521
V[O-]c1ccccc1C=[N+]1CCCCC1
p2522
(dp2523
sg2442
(dp2524
sg2444
(dp2525
ssg2442
(dp2526
sg2444
(dp2527
I18
(dp2528
ssg2446
(dp2529
I4
(dp2530
sI10
(dp2531
sI16
(dp2532
sg2481
(dp2533
ssI10
(dp2534
VO=Cc1ccccc1O
p2535
(dp2536
sVC1CCNCC1
p2537
(dp2538
ssI16
(dp2539
VOc1ccccc1C(O)N1CCCCC1
p2540
(dp2541
ssI5
(dp2542
VOc1ccccc1C=[N+]1CCCCC1
p2543
(dp2544
sg81
(dp2545
ssg81
(dp2546
I1
(dp2547
sg2481
(dp2548
sI10
(dp2549
sI22
(dp2550
sI16
(dp2551
sI21
(dp2552
ssg2452
(dp2553
I5
(dp2554
sI8
(dp2555
sI15
(dp2556
ssI8
(dp2557
VO=Cc1ccccc1O
p2558
(dp2559
sVC1CCNCC1
p2560
(dp2561
ssI15
(dp2562
g2540
(dp2563
ssI6
(dp2564
VOc1ccccc1C(O)[NH+]1CCCCC1
p2565
(dp2566
ssg2457
(dp2567
I6
(dp2568
ssg2459
(dp2569
I6
(dp2570
ssI18
(dp2571
g2473
(dp2572
ssI11
(dp2573
g2535
(dp2574
sVC1CCNCC1
p2575
(dp2576
ssg2463
(dp2577
I11
(dp2578
sI14
(dp2579
sI20
(dp2580
ssI14
(dp2581
g2509
(dp2582
sg81
(dp2583
ssI20
(dp2584
g2477
(dp2585
ssI12
(dp2586
g2535
(dp2587
ssg2468
(dp2588
I12
(dp2589
ssI17
(dp2590
g2540
(dp2591
ssg2471
(dp2592
I17
(dp2593
ssg2473
(dp2594
sg2475
(dp2595
sg2477
(dp2596
sg2479
(dp2597
VCC(C)(C)c1ccc(B(O)O)cc1
p2598
(dp2599
sV[O-]c1ccccc1C=[N+]1CCCCC1
p2600
(dp2601
ssg2481
(dp2602
VOc1ccccc1C(O)[NH+]1CCCCC1
p2603
(dp2604
sssg1352
(dp2605
I1
(dp2606
g2427
g2491
sg81
g2547
ssg2423
(dp2607
I1
g2485
ssg2425
(dp2608
I1
g2486
ssg2427
(dp2609
I2
g2496
ssI19
(dp2610
g2423
g2488
ssI2
(dp2611
g2431
g2498
ssg2431
(dp2612
I3
g2502
ssI3
(dp2613
g2434
g2504
sg2439
g2520
ssg2434
(dp2614
I4
g2523
sg2479
g2601
ssI13
(dp2615
g2434
g2505
ssI21
(dp2616
g2434
g2506
sg81
g2552
ssI22
(dp2617
g2434
g2507
sg81
g2550
ssg2439
(dp2618
g2479
g2599
ssI4
(dp2619
g2446
g2530
ssg2442
(dp2620
I4
g2524
ssg2444
(dp2621
I4
g2525
ssg2446
(dp2622
I5
g2544
sI13
g2510
sI14
g2582
ssI10
(dp2623
g2446
g2531
sg81
g2549
ssI16
(dp2624
g2446
g2532
sg81
g2551
ssI5
(dp2625
g2452
g2554
ssg81
(dp2626
I5
g2545
sI14
g2583
ssg2452
(dp2627
I6
g2566
sg2481
g2604
ssI8
(dp2628
g2452
g2555
ssI15
(dp2629
g2452
g2556
ssI6
(dp2630
g2457
g2568
sg2459
g2570
ssg2457
(dp2631
I8
g2559
sI10
g2536
sI11
g2574
sI12
g2587
ssg2459
(dp2632
I22
g2518
sI8
g2561
sI10
g2538
sI11
g2576
ssI18
(dp2633
g2444
g2528
ssI11
(dp2634
g2463
g2578
ssg2463
(dp2635
I15
g2563
sI16
g2541
sI17
g2591
ssI14
(dp2636
g2463
g2579
ssI20
(dp2637
g2463
g2580
ssI12
(dp2638
g2468
g2589
ssg2468
(dp2639
I22
g2516
ssI17
(dp2640
g2471
g2593
ssg2471
(dp2641
I21
g2513
ssg2473
(dp2642
I18
g2572
ssg2475
(dp2643
I19
g2493
ssg2477
(dp2644
I20
g2585
ssg2479
(dp2645
VCC(C)(C)c1ccc([B-](O)(O)Oc2ccccc2C=[N+]2CCCCC2)cc1
p2646
g2499
ssg2481
(dp2647
VOc1ccccc1C=[N+]1CCCCC1
p2648
g2533
sg81
g2548
sssg1371
g2483
sg1372
g1258
(g1373
g1260
Ntp2649
Rp2650
(dp2651
g1377
g2421
sbsbssI2
(dp2652
g4
(dp2653
g6
(dp2654
g8
(lp2655
sg10
(lp2656
(lp2657
(dp2658
g14
VO=Cc1ccccc1O>>Oc1ccccc1C=[OH+]
p2659
sg16
(lp2660
g18
asg19
(lp2661
sg21
V[O:7]=[CH:8][c:9]1[cH:10][cH:11][cH:12][cH:13][c:14]1[OH:15]>>[OH+:7]=[CH:8][c:9]1[cH:10][cH:11][cH:12][cH:13][c:14]1[OH:15]
p2662
sg23
VAldehyde protonation
p2663
sg25
VOrganic Chemistry, 7th Edition L. G. Wade, Jr p. 842 and 10.1021/jm00110a008
p2664
sg27
VH2SO4<BR> allow temp:L.rt.H.VH, allow AB: WA
p2665
sg29
g30
sg31
g32
sg33
g34
sg35
g32
sg36
g2659
sg37
I00
sg38
I00
saa(lp2666
(dp2667
g14
VOc1ccccc1C(O)[NH+]1CCCCC1>>O=Cc1ccccc1O
p2668
sg16
(lp2669
g43
asg19
(lp2670
g45
asg21
V[CH2:1]1[CH2:2][CH2:3][NH+:4]([CH:8]([OH:7])[c:9]2[cH:10][cH:11][cH:12][cH:13][c:14]2[OH:15])[CH2:5][CH2:6]1>>[O:7]=[CH:8][c:9]1[cH:10][cH:11][cH:12][cH:13][c:14]1[OH:15].[CH2:1]1[CH2:2][CH2:3][NH:4][CH2:5][CH2:6]1
p2671
sg23
VHydrolysis of hemiaminal
p2672
sg25
V10.1021/cr068388p
p2673
sg27
VMeCN<BR> allow temp:L.rt.H, allow AB: WA.N.WB
p2674
sg29
g50
sg31
g32
sg33
g51
sg35
(lp2675
Vt-Butyl ethyl ether
p2676
asg36
VOc1ccccc1C(O)[NH+]1CCCCC1>>O=Cc1ccccc1O.C1CCNCC1
p2677
sg37
I00
sg38
I00
sg55
F-17.045050000000003
sg56
I00
saa(lp2678
a(lp2679
a(lp2680
a(lp2681
asg1538
(dp2682
VO=Cc1ccccc1O
p2683
V\u000a     RDKit          2D\u000a\u000a  9  9  0  0  0  0  0  0  0  0999 V2000\u000a    0.2438    2.1756    0.0000 O   0  0  0  0  0  0  0  0  0  0  0  0\u000a   -0.6232    1.6774    0.0000 C   0  0  0  0  0  0  0  0  0  0  0  0\u000a   -0.6252    0.6774    0.0000 C   0  0  0  0  0  0  0  0  0  0  0  0\u000a    0.2398    0.1756    0.0000 C   0  0  0  0  0  0  0  0  0  0  0  0\u000a    0.2378   -0.8244    0.0000 C   0  0  0  0  0  0  0  0  0  0  0  0\u000a   -0.6292   -1.3226    0.0000 C   0  0  0  0  0  0  0  0  0  0  0  0\u000a   -1.4942   -0.8208    0.0000 C   0  0  0  0  0  0  0  0  0  0  0  0\u000a   -1.4922    0.1790    0.0000 C   0  0  0  0  0  0  0  0  0  0  0  0\u000a   -2.3572    0.6808    0.0000 O   0  0  0  0  0  0  0  0  0  0  0  0\u000a  1  2  2  0\u000a  2  3  1  0\u000a  3  4  2  0\u000a  4  5  1  0\u000a  5  6  2  0\u000a  6  7  1  0\u000a  7  8  2  0\u000a  8  9  1  0\u000a  8  3  1  0\u000aM  END\u000a
p2684
sVCC(C)(C)c1ccc(C(c2ccccc2[O-])N2CCCCC2)cc1
p2685
V\u000a     RDKit          2D\u000a\u000a 24 26  0  0  0  0  0  0  0  0999 V2000\u000a   -1.2876   -1.6258    0.0000 C   0  0  0  0  0  0  0  0  0  0  0  0\u000a   -1.7860   -0.7588    0.0000 C   0  0  0  0  0  0  0  0  0  0  0  0\u000a   -2.2876   -1.6238    0.0000 C   0  0  0  0  0  0  0  0  0  0  0  0\u000a   -2.6510   -0.2570    0.0000 C   0  0  0  0  0  0  0  0  0  0  0  0\u000a   -0.9188   -0.2604    0.0000 C   0  0  0  0  0  0  0  0  0  0  0  0\u000a   -0.9168    0.7396    0.0000 C   0  0  0  0  0  0  0  0  0  0  0  0\u000a   -0.0498    1.2378    0.0000 C   0  0  0  0  0  0  0  0  0  0  0  0\u000a    0.8152    0.7360    0.0000 C   0  0  0  0  0  0  0  0  0  0  0  0\u000a    1.6822    1.2344    0.0000 C   0  0  0  0  0  0  0  0  0  0  0  0\u000a    1.6842    2.2344    0.0000 C   0  0  0  0  0  0  0  0  0  0  0  0\u000a    0.8192    2.7360    0.0000 C   0  0  0  0  0  0  0  0  0  0  0  0\u000a    0.8212    3.7360    0.0000 C   0  0  0  0  0  0  0  0  0  0  0  0\u000a    1.6882    4.2342    0.0000 C   0  0  0  0  0  0  0  0  0  0  0  0\u000a    2.5532    3.7326    0.0000 C   0  0  0  0  0  0  0  0  0  0  0  0\u000a    2.5512    2.7326    0.0000 C   0  0  0  0  0  0  0  0  0  0  0  0\u000a    3.4162    2.2308    0.0000 O   0  0  0  0  0  1  0  0  0  0  0  0\u000a    2.5472    0.7326    0.0000 N   0  0  0  0  0  0  0  0  0  0  0  0\u000a    2.5452   -0.2674    0.0000 C   0  0  0  0  0  0  0  0  0  0  0  0\u000a    3.4102   -0.7690    0.0000 C   0  0  0  0  0  0  0  0  0  0  0  0\u000a    4.2772   -0.2708    0.0000 C   0  0  0  0  0  0  0  0  0  0  0  0\u000a    4.2792    0.7292    0.0000 C   0  0  0  0  0  0  0  0  0  0  0  0\u000a    3.4142    1.2308    0.0000 C   0  0  0  0  0  0  0  0  0  0  0  0\u000a    0.8132   -0.2640    0.0000 C   0  0  0  0  0  0  0  0  0  0  0  0\u000a   -0.0538   -0.7622    0.0000 C   0  0  0  0  0  0  0  0  0  0  0  0\u000a  1  2  1  0\u000a  2  3  1  0\u000a  2  4  1  0\u000a  2  5  1  0\u000a  5  6  2  0\u000a  6  7  1  0\u000a  7  8  2  0\u000a  8  9  1  0\u000a  9 10  1  0\u000a 10 11  2  0\u000a 11 12  1  0\u000a 12 13  2  0\u000a 13 14  1  0\u000a 14 15  2  0\u000a 15 16  1  0\u000a  9 17  1  0\u000a 17 18  1  0\u000a 18 19  1  0\u000a 19 20  1  0\u000a 20 21  1  0\u000a 21 22  1  0\u000a  8 23  1  0\u000a 23 24  2  0\u000a 24  5  1  0\u000a 15 10  1  0\u000a 22 17  1  0\u000aM  CHG  1  16  -1\u000aM  END\u000a
p2686
sVCC(C)(C)c1ccc([B-](O)(O)Oc2ccccc2C=[N+]2CCCCC2)cc1
p2687
V\u000a     RDKit          2D\u000a\u000a 27 29  0  0  0  0  0  0  0  0999 V2000\u000a   -4.1818   -3.7108    0.0000 C   0  0  0  0  0  0  0  0  0  0  0  0\u000a   -4.6824   -2.8452    0.0000 C   0  0  0  0  0  0  0  0  0  0  0  0\u000a   -5.1818   -3.7116    0.0000 C   0  0  0  0  0  0  0  0  0  0  0  0\u000a   -5.5488   -2.3458    0.0000 C   0  0  0  0  0  0  0  0  0  0  0  0\u000a   -3.8168   -2.3444    0.0000 C   0  0  0  0  0  0  0  0  0  0  0  0\u000a   -3.8176   -1.3444    0.0000 C   0  0  0  0  0  0  0  0  0  0  0  0\u000a   -2.9520   -0.8438    0.0000 C   0  0  0  0  0  0  0  0  0  0  0  0\u000a   -2.0856   -1.3430    0.0000 C   0  0  0  0  0  0  0  0  0  0  0  0\u000a   -1.2200   -0.8424    0.0000 B   0  0  0  0  0  4  0  0  0  0  0  0\u000a   -1.7206    0.0232    0.0000 O   0  0  0  0  0  0  0  0  0  0  0  0\u000a   -0.7206    0.0240    0.0000 O   0  0  0  0  0  0  0  0  0  0  0  0\u000a   -0.3536   -1.3416    0.0000 O   0  0  0  0  0  0  0  0  0  0  0  0\u000a    0.5120   -0.8410    0.0000 C   0  0  0  0  0  0  0  0  0  0  0  0\u000a    0.5112    0.1590    0.0000 C   0  0  0  0  0  0  0  0  0  0  0  0\u000a    1.3768    0.6598    0.0000 C   0  0  0  0  0  0  0  0  0  0  0  0\u000a    2.2432    0.1604    0.0000 C   0  0  0  0  0  0  0  0  0  0  0  0\u000a    2.2440   -0.8396    0.0000 C   0  0  0  0  0  0  0  0  0  0  0  0\u000a    1.3784   -1.3402    0.0000 C   0  0  0  0  0  0  0  0  0  0  0  0\u000a    1.3792   -2.3402    0.0000 C   0  0  0  0  0  0  0  0  0  0  0  0\u000a    2.2456   -2.8396    0.0000 N   0  0  0  0  0  4  0  0  0  0  0  0\u000a    2.2464   -3.8396    0.0000 C   0  0  0  0  0  0  0  0  0  0  0  0\u000a    3.1128   -4.3390    0.0000 C   0  0  0  0  0  0  0  0  0  0  0  0\u000a    3.9784   -3.8382    0.0000 C   0  0  0  0  0  0  0  0  0  0  0  0\u000a    3.9776   -2.8382    0.0000 C   0  0  0  0  0  0  0  0  0  0  0  0\u000a    3.1112   -2.3390    0.0000 C   0  0  0  0  0  0  0  0  0  0  0  0\u000a   -2.0848   -2.3430    0.0000 C   0  0  0  0  0  0  0  0  0  0  0  0\u000a   -2.9504   -2.8438    0.0000 C   0  0  0  0  0  0  0  0  0  0  0  0\u000a  1  2  1  0\u000a  2  3  1  0\u000a  2  4  1  0\u000a  2  5  1  0\u000a  5  6  2  0\u000a  6  7  1  0\u000a  7  8  2  0\u000a  8  9  1  0\u000a  9 10  1  0\u000a  9 11  1  0\u000a  9 12  1  0\u000a 12 13  1  0\u000a 13 14  2  0\u000a 14 15  1  0\u000a 15 16  2  0\u000a 16 17  1  0\u000a 17 18  2  0\u000a 18 19  1  0\u000a 19 20  2  3\u000a 20 21  1  0\u000a 21 22  1  0\u000a 22 23  1  0\u000a 23 24  1  0\u000a 24 25  1  0\u000a  8 26  1  0\u000a 26 27  2  0\u000a 27  5  1  0\u000a 18 13  1  0\u000a 25 20  1  0\u000aM  CHG  2   9  -1  20   1\u000aM  END\u000a
p2688
sVOc1ccccc1C=[N+]1CCCCC1
p2689
V\u000a     RDKit          2D\u000a\u000a 14 15  0  0  0  0  0  0  0  0999 V2000\u000a   -0.4936   -1.8660    0.0000 O   0  0  0  0  0  0  0  0  0  0  0  0\u000a   -1.3628   -1.3716    0.0000 C   0  0  0  0  0  0  0  0  0  0  0  0\u000a   -2.2256   -1.8770    0.0000 C   0  0  0  0  0  0  0  0  0  0  0  0\u000a   -3.0948   -1.3826    0.0000 C   0  0  0  0  0  0  0  0  0  0  0  0\u000a   -3.1012   -0.3826    0.0000 C   0  0  0  0  0  0  0  0  0  0  0  0\u000a   -2.2384    0.1228    0.0000 C   0  0  0  0  0  0  0  0  0  0  0  0\u000a   -1.3692   -0.3716    0.0000 C   0  0  0  0  0  0  0  0  0  0  0  0\u000a   -0.5064    0.1340    0.0000 C   0  0  0  0  0  0  0  0  0  0  0  0\u000a    0.3628   -0.3604    0.0000 N   0  0  0  0  0  4  0  0  0  0  0  0\u000a    1.2256    0.1450    0.0000 C   0  0  0  0  0  0  0  0  0  0  0  0\u000a    2.0948   -0.3494    0.0000 C   0  0  0  0  0  0  0  0  0  0  0  0\u000a    2.1012   -1.3494    0.0000 C   0  0  0  0  0  0  0  0  0  0  0  0\u000a    1.2384   -1.8548    0.0000 C   0  0  0  0  0  0  0  0  0  0  0  0\u000a    0.3692   -1.3604    0.0000 C   0  0  0  0  0  0  0  0  0  0  0  0\u000a  1  2  1  0\u000a  2  3  2  0\u000a  3  4  1  0\u000a  4  5  2  0\u000a  5  6  1  0\u000a  6  7  2  0\u000a  7  8  1  0\u000a  8  9  2  3\u000a  9 10  1  0\u000a 10 11  1  0\u000a 11 12  1  0\u000a 12 13  1  0\u000a 13 14  1  0\u000a  7  2  1  0\u000a 14  9  1  0\u000aM  CHG  1   9   1\u000aM  END\u000a
p2690
sVCC(C)(C)c1ccc(C(c2ccccc2OB(O)O)N2CCCCC2)cc1
p2691
V\u000a     RDKit          2D\u000a\u000a 27 29  0  0  0  0  0  0  0  0999 V2000\u000a   -2.1104   -1.8512    0.0000 C   0  0  0  0  0  0  0  0  0  0  0  0\u000a   -2.6088   -0.9842    0.0000 C   0  0  0  0  0  0  0  0  0  0  0  0\u000a   -3.1104   -1.8492    0.0000 C   0  0  0  0  0  0  0  0  0  0  0  0\u000a   -3.4738   -0.4824    0.0000 C   0  0  0  0  0  0  0  0  0  0  0  0\u000a   -1.7418   -0.4860    0.0000 C   0  0  0  0  0  0  0  0  0  0  0  0\u000a   -1.7396    0.5140    0.0000 C   0  0  0  0  0  0  0  0  0  0  0  0\u000a   -0.8726    1.0124    0.0000 C   0  0  0  0  0  0  0  0  0  0  0  0\u000a   -0.0076    0.5106    0.0000 C   0  0  0  0  0  0  0  0  0  0  0  0\u000a    0.8594    1.0088    0.0000 C   0  0  0  0  0  0  0  0  0  0  0  0\u000a    0.8614    2.0088    0.0000 C   0  0  0  0  0  0  0  0  0  0  0  0\u000a   -0.0036    2.5106    0.0000 C   0  0  0  0  0  0  0  0  0  0  0  0\u000a   -0.0016    3.5106    0.0000 C   0  0  0  0  0  0  0  0  0  0  0  0\u000a    0.8654    4.0088    0.0000 C   0  0  0  0  0  0  0  0  0  0  0  0\u000a    1.7304    3.5070    0.0000 C   0  0  0  0  0  0  0  0  0  0  0  0\u000a    1.7284    2.5070    0.0000 C   0  0  0  0  0  0  0  0  0  0  0  0\u000a    2.5934    2.0054    0.0000 O   0  0  0  0  0  0  0  0  0  0  0  0\u000a    3.4604    2.5036    0.0000 B   0  0  0  0  0  0  0  0  0  0  0  0\u000a    4.3254    2.0020    0.0000 O   0  0  0  0  0  0  0  0  0  0  0  0\u000a    3.4624    3.5036    0.0000 O   0  0  0  0  0  0  0  0  0  0  0  0\u000a    1.7244    0.5072    0.0000 N   0  0  0  0  0  0  0  0  0  0  0  0\u000a    1.7224   -0.4928    0.0000 C   0  0  0  0  0  0  0  0  0  0  0  0\u000a    2.5874   -0.9946    0.0000 C   0  0  0  0  0  0  0  0  0  0  0  0\u000a    3.4544   -0.4962    0.0000 C   0  0  0  0  0  0  0  0  0  0  0  0\u000a    3.4564    0.5038    0.0000 C   0  0  0  0  0  0  0  0  0  0  0  0\u000a    2.5914    1.0054    0.0000 C   0  0  0  0  0  0  0  0  0  0  0  0\u000a   -0.0098   -0.4894    0.0000 C   0  0  0  0  0  0  0  0  0  0  0  0\u000a   -0.8768   -0.9876    0.0000 C   0  0  0  0  0  0  0  0  0  0  0  0\u000a  1  2  1  0\u000a  2  3  1  0\u000a  2  4  1  0\u000a  2  5  1  0\u000a  5  6  2  0\u000a  6  7  1  0\u000a  7  8  2  0\u000a  8  9  1  0\u000a  9 10  1  0\u000a 10 11  2  0\u000a 11 12  1  0\u000a 12 13  2  0\u000a 13 14  1  0\u000a 14 15  2  0\u000a 15 16  1  0\u000a 16 17  1  0\u000a 17 18  1  0\u000a 17 19  1  0\u000a  9 20  1  0\u000a 20 21  1  0\u000a 21 22  1  0\u000a 22 23  1  0\u000a 23 24  1  0\u000a 24 25  1  0\u000a  8 26  1  0\u000a 26 27  2  0\u000a 27  5  1  0\u000a 15 10  1  0\u000a 25 20  1  0\u000aM  END\u000a
p2692
sVCC(C)(C)c1ccc(C(c2ccccc2O)N2CCCCC2)cc1
p2693
V\u000a     RDKit          2D\u000a\u000a 24 26  0  0  0  0  0  0  0  0999 V2000\u000a   -1.2876   -1.6258    0.0000 C   0  0  0  0  0  0  0  0  0  0  0  0\u000a   -1.7860   -0.7588    0.0000 C   0  0  0  0  0  0  0  0  0  0  0  0\u000a   -2.2876   -1.6238    0.0000 C   0  0  0  0  0  0  0  0  0  0  0  0\u000a   -2.6510   -0.2570    0.0000 C   0  0  0  0  0  0  0  0  0  0  0  0\u000a   -0.9188   -0.2604    0.0000 C   0  0  0  0  0  0  0  0  0  0  0  0\u000a   -0.9168    0.7396    0.0000 C   0  0  0  0  0  0  0  0  0  0  0  0\u000a   -0.0498    1.2378    0.0000 C   0  0  0  0  0  0  0  0  0  0  0  0\u000a    0.8152    0.7360    0.0000 C   0  0  0  0  0  0  0  0  0  0  0  0\u000a    1.6822    1.2344    0.0000 C   0  0  0  0  0  0  0  0  0  0  0  0\u000a    1.6842    2.2344    0.0000 C   0  0  0  0  0  0  0  0  0  0  0  0\u000a    0.8192    2.7360    0.0000 C   0  0  0  0  0  0  0  0  0  0  0  0\u000a    0.8212    3.7360    0.0000 C   0  0  0  0  0  0  0  0  0  0  0  0\u000a    1.6882    4.2342    0.0000 C   0  0  0  0  0  0  0  0  0  0  0  0\u000a    2.5532    3.7326    0.0000 C   0  0  0  0  0  0  0  0  0  0  0  0\u000a    2.5512    2.7326    0.0000 C   0  0  0  0  0  0  0  0  0  0  0  0\u000a    3.4162    2.2308    0.0000 O   0  0  0  0  0  0  0  0  0  0  0  0\u000a    2.5472    0.7326    0.0000 N   0  0  0  0  0  0  0  0  0  0  0  0\u000a    2.5452   -0.2674    0.0000 C   0  0  0  0  0  0  0  0  0  0  0  0\u000a    3.4102   -0.7690    0.0000 C   0  0  0  0  0  0  0  0  0  0  0  0\u000a    4.2772   -0.2708    0.0000 C   0  0  0  0  0  0  0  0  0  0  0  0\u000a    4.2792    0.7292    0.0000 C   0  0  0  0  0  0  0  0  0  0  0  0\u000a    3.4142    1.2308    0.0000 C   0  0  0  0  0  0  0  0  0  0  0  0\u000a    0.8132   -0.2640    0.0000 C   0  0  0  0  0  0  0  0  0  0  0  0\u000a   -0.0538   -0.7622    0.0000 C   0  0  0  0  0  0  0  0  0  0  0  0\u000a  1  2  1  0\u000a  2  3  1  0\u000a  2  4  1  0\u000a  2  5  1  0\u000a  5  6  2  0\u000a  6  7  1  0\u000a  7  8  2  0\u000a  8  9  1  0\u000a  9 10  1  0\u000a 10 11  2  0\u000a 11 12  1  0\u000a 12 13  2  0\u000a 13 14  1  0\u000a 14 15  2  0\u000a 15 16  1  0\u000a  9 17  1  0\u000a 17 18  1  0\u000a 18 19  1  0\u000a 19 20  1  0\u000a 20 21  1  0\u000a 21 22  1  0\u000a  8 23  1  0\u000a 23 24  2  0\u000a 24  5  1  0\u000a 15 10  1  0\u000a 22 17  1  0\u000aM  END\u000a
p2694
sV[O-]c1ccccc1C=[N+]1CCCCC1
p2695
V\u000a     RDKit          2D\u000a\u000a 14 15  0  0  0  0  0  0  0  0999 V2000\u000a   -0.4936   -1.8660    0.0000 O   0  0  0  0  0  1  0  0  0  0  0  0\u000a   -1.3628   -1.3716    0.0000 C   0  0  0  0  0  0  0  0  0  0  0  0\u000a   -2.2256   -1.8770    0.0000 C   0  0  0  0  0  0  0  0  0  0  0  0\u000a   -3.0948   -1.3826    0.0000 C   0  0  0  0  0  0  0  0  0  0  0  0\u000a   -3.1012   -0.3826    0.0000 C   0  0  0  0  0  0  0  0  0  0  0  0\u000a   -2.2384    0.1228    0.0000 C   0  0  0  0  0  0  0  0  0  0  0  0\u000a   -1.3692   -0.3716    0.0000 C   0  0  0  0  0  0  0  0  0  0  0  0\u000a   -0.5064    0.1340    0.0000 C   0  0  0  0  0  0  0  0  0  0  0  0\u000a    0.3628   -0.3604    0.0000 N   0  0  0  0  0  4  0  0  0  0  0  0\u000a    1.2256    0.1450    0.0000 C   0  0  0  0  0  0  0  0  0  0  0  0\u000a    2.0948   -0.3494    0.0000 C   0  0  0  0  0  0  0  0  0  0  0  0\u000a    2.1012   -1.3494    0.0000 C   0  0  0  0  0  0  0  0  0  0  0  0\u000a    1.2384   -1.8548    0.0000 C   0  0  0  0  0  0  0  0  0  0  0  0\u000a    0.3692   -1.3604    0.0000 C   0  0  0  0  0  0  0  0  0  0  0  0\u000a  1  2  1  0\u000a  2  3  2  0\u000a  3  4  1  0\u000a  4  5  2  0\u000a  5  6  1  0\u000a  6  7  2  0\u000a  7  8  1  0\u000a  8  9  2  3\u000a  9 10  1  0\u000a 10 11  1  0\u000a 11 12  1  0\u000a 12 13  1  0\u000a 13 14  1  0\u000a  7  2  1  0\u000a 14  9  1  0\u000aM  CHG  2   1  -1   9   1\u000aM  END\u000a
p2696
sVOc1ccccc1C(O)[NH+]1CCCCC1
p2697
V\u000a     RDKit          2D\u000a\u000a 15 16  0  0  0  0  0  0  0  0999 V2000\u000a    1.3666   -2.4648    0.0000 O   0  0  0  0  0  0  0  0  0  0  0  0\u000a    0.5010   -1.9640    0.0000 C   0  0  0  0  0  0  0  0  0  0  0  0\u000a   -0.3654   -2.4634    0.0000 C   0  0  0  0  0  0  0  0  0  0  0  0\u000a   -1.2310   -1.9628    0.0000 C   0  0  0  0  0  0  0  0  0  0  0  0\u000a   -1.2302   -0.9628    0.0000 C   0  0  0  0  0  0  0  0  0  0  0  0\u000a   -0.3638   -0.4634    0.0000 C   0  0  0  0  0  0  0  0  0  0  0  0\u000a    0.5018   -0.9640    0.0000 C   0  0  0  0  0  0  0  0  0  0  0  0\u000a    1.3682   -0.4648    0.0000 C   0  0  0  0  0  0  0  0  0  0  0  0\u000a    2.2338   -0.9654    0.0000 O   0  0  0  0  0  0  0  0  0  0  0  0\u000a    1.3690    0.5352    0.0000 N   0  0  0  0  0  4  0  0  0  0  0  0\u000a    0.5034    1.0360    0.0000 C   0  0  0  0  0  0  0  0  0  0  0  0\u000a    0.5042    2.0360    0.0000 C   0  0  0  0  0  0  0  0  0  0  0  0\u000a    1.3706    2.5352    0.0000 C   0  0  0  0  0  0  0  0  0  0  0  0\u000a    2.2362    2.0346    0.0000 C   0  0  0  0  0  0  0  0  0  0  0  0\u000a    2.2354    1.0346    0.0000 C   0  0  0  0  0  0  0  0  0  0  0  0\u000a  1  2  1  0\u000a  2  3  2  0\u000a  3  4  1  0\u000a  4  5  2  0\u000a  5  6  1  0\u000a  6  7  2  0\u000a  7  8  1  0\u000a  8  9  1  0\u000a  8 10  1  0\u000a 10 11  1  0\u000a 11 12  1  0\u000a 12 13  1  0\u000a 13 14  1  0\u000a 14 15  1  0\u000a  7  2  1  0\u000a 15 10  1  0\u000aM  CHG  1  10   1\u000aM  END\u000a
p2698
sVCC(C)(C)c1ccc(B(O)O)cc1
p2699
V\u000a     RDKit          2D\u000a\u000a 13 13  0  0  0  0  0  0  0  0999 V2000\u000a    0.7334   -2.4646    0.0000 C   0  0  0  0  0  0  0  0  0  0  0  0\u000a    1.2326   -1.5982    0.0000 C   0  0  0  0  0  0  0  0  0  0  0  0\u000a    1.7334   -2.4638    0.0000 C   0  0  0  0  0  0  0  0  0  0  0  0\u000a    2.0982   -1.0976    0.0000 C   0  0  0  0  0  0  0  0  0  0  0  0\u000a    0.3662   -1.0990    0.0000 C   0  0  0  0  0  0  0  0  0  0  0  0\u000a    0.3654   -0.0990    0.0000 C   0  0  0  0  0  0  0  0  0  0  0  0\u000a   -0.5010    0.4004    0.0000 C   0  0  0  0  0  0  0  0  0  0  0  0\u000a   -1.3666   -0.1004    0.0000 C   0  0  0  0  0  0  0  0  0  0  0  0\u000a   -2.2330    0.3990    0.0000 B   0  0  0  0  0  0  0  0  0  0  0  0\u000a   -2.2336    1.3990    0.0000 O   0  0  0  0  0  0  0  0  0  0  0  0\u000a   -3.0986   -0.1018    0.0000 O   0  0  0  0  0  0  0  0  0  0  0  0\u000a   -1.3658   -1.1004    0.0000 C   0  0  0  0  0  0  0  0  0  0  0  0\u000a   -0.4994   -1.5996    0.0000 C   0  0  0  0  0  0  0  0  0  0  0  0\u000a  1  2  1  0\u000a  2  3  1  0\u000a  2  4  1  0\u000a  2  5  1  0\u000a  5  6  2  0\u000a  6  7  1  0\u000a  7  8  2  0\u000a  8  9  1  0\u000a  9 10  1  0\u000a  9 11  1  0\u000a  8 12  1  0\u000a 12 13  2  0\u000a 13  5  1  0\u000aM  END\u000a
p2700
sVOc1ccccc1C=[OH+]
p2701
V\u000a     RDKit          2D\u000a\u000a  9  9  0  0  0  0  0  0  0  0999 V2000\u000a    0.8760   -0.9344    0.0000 O   0  0  0  0  0  0  0  0  0  0  0  0\u000a    0.0104   -0.4338    0.0000 C   0  0  0  0  0  0  0  0  0  0  0  0\u000a   -0.8560   -0.9330    0.0000 C   0  0  0  0  0  0  0  0  0  0  0  0\u000a   -1.7216   -0.4324    0.0000 C   0  0  0  0  0  0  0  0  0  0  0  0\u000a   -1.7208    0.5676    0.0000 C   0  0  0  0  0  0  0  0  0  0  0  0\u000a   -0.8544    1.0670    0.0000 C   0  0  0  0  0  0  0  0  0  0  0  0\u000a    0.0112    0.5662    0.0000 C   0  0  0  0  0  0  0  0  0  0  0  0\u000a    0.8776    1.0656    0.0000 C   0  0  0  0  0  0  0  0  0  0  0  0\u000a    0.8784    2.0656    0.0000 O   0  0  0  0  0  3  0  0  0  0  0  0\u000a  1  2  1  0\u000a  2  3  2  0\u000a  3  4  1  0\u000a  4  5  2  0\u000a  5  6  1  0\u000a  6  7  2  0\u000a  7  8  1  0\u000a  8  9  2  0\u000a  7  2  1  0\u000aM  CHG  1   9   1\u000aM  END\u000a
p2702
sssg27
(dp2703
g62
(lp2704
g64
ag65
ag66
ag66
asg27
g67
((lp2705
g69
ag70
ag71
ag72
ag73
ag74
ag75
ag76
atp2706
Rp2707
sg79
g67
((lp2708
g32
aV[K+]
p2709
aVOc1ccccc1C(O)N1CCCCC1
p2710
aVOB(O)O
p2711
ag2685
ag2687
ag2697
aV[O-]C(c1ccccc1O)N1CCCCC1
p2712
ag2701
aVO=Cc1ccccc1[O-]
p2713
aVO=C(O)O
p2714
ag2683
ag2695
aV[O-]c1ccccc1C(O)N1CCCCC1
p2715
ag45
ag2691
ag2689
ag2693
ag81
ag2699
aVO=C([O-])O
p2716
atp2717
Rp2718
sg1571
g32
sg1572
g1573
ssg84
(dp2719
(VCC(C)(C)c1ccc(C(c2ccccc2OB(O)O)N2CCCCC2)cc1>>CC(C)(C)c1ccc(C(c2ccccc2O)N2CCCCC2)cc1
p2720
(g87
tp2721
tp2722
(dp2723
g14
g2720
sg91
(dp2724
g93
F0.0
sg94
I0
sg95
I0
sg96
(lp2725
g87
asg98
(lp2726
((lp2727
V[CH3:99][C:100]([CH3:101])([CH3:102])[c:103]1[cH:104][cH:105][c:106]([CH:107]([c:108]2[cH:109][cH:110][cH:111][cH:112][c:113]2[O:114][B:115]([OH:116])[OH:117])[N:118]2[CH2:119][CH2:120][CH2:121][CH2:122][CH2:123]2)[cH:124][cH:125]1
p2728
aV[OH2:126]
p2729
a(lp2730
(V[CH3:99][C:100]([CH3:101])([CH3:102])[c:103]1[cH:104][cH:105][c:106]([CH:107]([c:108]2[cH:109][cH:110][cH:111][cH:112][c:113]2[OH:114])[N:118]2[CH2:119][CH2:120][CH2:121][CH2:122][CH2:123]2)[cH:124][cH:125]1
p2731
V[B:115]([OH:116])([OH:117])[OH:126]
p2732
tp2733
atp2734
asg21
V[CH3:99][C:100]([CH3:101])([CH3:102])[c:103]1[cH:104][cH:105][c:106]([CH:107]([c:108]2[cH:109][cH:110][cH:111][cH:112][c:113]2[O:114][B:115]([OH:116])[OH:117])[N:118]2[CH2:119][CH2:120][CH2:121][CH2:122][CH2:123]2)[cH:124][cH:125]1.[OH2:126]>>[CH3:99][C:100]([CH3:101])([CH3:102])[c:103]1[cH:104][cH:105][c:106]([CH:107]([c:108]2[cH:109][cH:110][cH:111][cH:112][c:113]2[OH:114])[N:118]2[CH2:119][CH2:120][CH2:121][CH2:122][CH2:123]2)[cH:124][cH:125]1.[B:115]([OH:116])([OH:117])[OH:126]
p2735
sg109
I-2
ssg16
(lp2736
g87
asg36
VCC(C)(C)c1ccc(C(c2ccccc2OB(O)O)N2CCCCC2)cc1.O>>CC(C)(C)c1ccc(C(c2ccccc2O)N2CCCCC2)cc1.OB(O)O
p2737
sg37
I00
sg38
I00
sg55
F-8.77229999999986
sg56
I00
ss(VCC(C)(C)c1ccc([B-](O)(O)Oc2ccccc2C=[N+]2CCCCC2)cc1>>CC(C)(C)c1ccc(C(c2ccccc2OB(O)O)N2CCCCC2)cc1
p2738
(g126
tp2739
tp2740
(dp2741
g14
g2738
sg91
(dp2742
g93
F0.0
sg94
I0
sg95
I0
sg96
(lp2743
g126
asg98
(lp2744
((lp2745
V[CH3:72][C:73]([CH3:74])([CH3:75])[c:76]1[cH:77][cH:78][c:79]([B-:80]([OH:81])([OH:82])[O:83][c:84]2[cH:85][cH:86][cH:87][cH:88][c:89]2[CH:90]=[N+:91]2[CH2:92][CH2:93][CH2:94][CH2:95][CH2:96]2)[cH:97][cH:98]1
p2746
a(lp2747
(V[CH3:72][C:73]([CH3:74])([CH3:75])[c:76]1[cH:77][cH:78][c:79]([CH:90]([c:89]2[c:84]([O:83][B:80]([OH:81])[OH:82])[cH:85][cH:86][cH:87][cH:88]2)[N:91]2[CH2:92][CH2:93][CH2:94][CH2:95][CH2:96]2)[cH:97][cH:98]1
p2748
tp2749
atp2750
asg21
V[CH3:72][C:73]([CH3:74])([CH3:75])[c:76]1[cH:77][cH:78][c:79]([B-:80]([OH:81])([OH:82])[O:83][c:84]2[cH:85][cH:86][cH:87][cH:88][c:89]2[CH:90]=[N+:91]2[CH2:92][CH2:93][CH2:94][CH2:95][CH2:96]2)[cH:97][cH:98]1>>[CH3:72][C:73]([CH3:74])([CH3:75])[c:76]1[cH:77][cH:78][c:79]([CH:90]([c:89]2[c:84]([O:83][B:80]([OH:81])[OH:82])[cH:85][cH:86][cH:87][cH:88]2)[N:91]2[CH2:92][CH2:93][CH2:94][CH2:95][CH2:96]2)[cH:97][cH:98]1
p2751
sg109
I-2
ssg16
(lp2752
g126
asg36
g2738
sg37
I00
sg38
I00
sg55
F-75.65669000000003
sg56
I00
ss(V[O-]c1ccccc1C=[N+]1CCCCC1.CC(C)(C)c1ccc(B(O)O)cc1>>CC(C)(C)c1ccc([B-](O)(O)Oc2ccccc2C=[N+]2CCCCC2)cc1
p2753
(g147
tp2754
tp2755
(dp2756
g14
g2753
sg91
(dp2757
g93
F0.0
sg94
I0
sg95
I0
sg96
(lp2758
g147
asg98
(lp2759
((lp2760
V[CH3:16][C:17]([CH3:18])([CH3:19])[c:20]1[cH:21][cH:22][c:23]([B:24]([OH:25])[OH:26])[cH:27][cH:28]1
p2761
aV[O-:58][c:59]1[cH:60][cH:61][cH:62][cH:63][c:64]1[CH:65]=[N+:66]1[CH2:67][CH2:68][CH2:69][CH2:70][CH2:71]1
p2762
a(lp2763
(V[CH3:16][C:17]([CH3:18])([CH3:19])[c:20]1[cH:21][cH:22][c:23]([B-:24]([OH:25])([OH:26])[O:58][c:59]2[cH:60][cH:61][cH:62][cH:63][c:64]2[CH:65]=[N+:66]2[CH2:67][CH2:68][CH2:69][CH2:70][CH2:71]2)[cH:27][cH:28]1
p2764
tp2765
atp2766
asg21
V[CH3:16][C:17]([CH3:18])([CH3:19])[c:20]1[cH:21][cH:22][c:23]([B-:24]([OH:25])([OH:26])[O:58][c:59]2[cH:60][cH:61][cH:62][cH:63][c:64]2[CH:65]=[N+:66]2[CH2:67][CH2:68][CH2:69][CH2:70][CH2:71]2)[cH:27][cH:28]1>>[CH3:16][C:17]([CH3:18])([CH3:19])[c:20]1[cH:21][cH:22][c:23]([B:24]([OH:25])[OH:26])[cH:27][cH:28]1.[O-:58][c:59]1[cH:60][cH:61][cH:62][cH:63][c:64]1[CH:65]=[N+:66]1[CH2:67][CH2:68][CH2:69][CH2:70][CH2:71]1
p2767
sg109
I-2
ssg16
(lp2768
g147
asg36
VCC(C)(C)c1ccc(B(O)O)cc1.[O-]c1ccccc1C=[N+]1CCCCC1>>CC(C)(C)c1ccc([B-](O)(O)Oc2ccccc2C=[N+]2CCCCC2)cc1
p2769
sg37
I00
sg38
I00
sg55
F-35.27230999999995
sg56
I00
ss(VOc1ccccc1C=[N+]1CCCCC1>>[O-]c1ccccc1C=[N+]1CCCCC1
p2770
(g170
tp2771
tp2772
(dp2773
g14
g2770
sg91
(dp2774
g93
F0.0
sg94
I0
sg95
I0
sg96
(lp2775
g170
asg98
(lp2776
((lp2777
V[OH:44][c:45]1[cH:46][cH:47][cH:48][cH:49][c:50]1[CH:51]=[N+:52]1[CH2:53][CH2:54][CH2:55][CH2:56][CH2:57]1
p2778
a(lp2779
(V[O-:44][c:45]1[cH:46][cH:47][cH:48][cH:49][c:50]1[CH:51]=[N+:52]1[CH2:53][CH2:54][CH2:55][CH2:56][CH2:57]1
p2780
tp2781
atp2782
asg21
V[OH:44][c:45]1[cH:46][cH:47][cH:48][cH:49][c:50]1[CH:51]=[N+:52]1[CH2:53][CH2:54][CH2:55][CH2:56][CH2:57]1>>[O-:44][c:45]1[cH:46][cH:47][cH:48][cH:49][c:50]1[CH:51]=[N+:52]1[CH2:53][CH2:54][CH2:55][CH2:56][CH2:57]1
p2783
sg109
I-2
ssg16
(lp2784
g170
asg36
g2770
sg37
I00
sg38
(lp2785
g193
a(dp2786
g195
g2689
sg197
g2778
sg198
g2695
sg200
g2780
sg201
g2695
sasg55
F36.94552
sg56
I00
ss(VOc1ccccc1C(O)[NH+]1CCCCC1>>Oc1ccccc1C=[N+]1CCCCC1
p2787
(g203
tp2788
tp2789
(dp2790
g14
g2787
sg91
(dp2791
g93
F0.0
sg94
I0
sg95
I0
sg96
(lp2792
g203
asg98
(lp2793
((lp2794
V[OH:29][c:30]1[cH:31][cH:32][cH:33][cH:34][c:35]1[CH:36]([OH:37])[NH+:38]1[CH2:39][CH2:40][CH2:41][CH2:42][CH2:43]1
p2795
a(lp2796
(V[OH:29][c:30]1[cH:31][cH:32][cH:33][cH:34][c:35]1[CH:36]=[N+:38]1[CH2:39][CH2:40][CH2:41][CH2:42][CH2:43]1
p2797
V[OH2:37]
p2798
tp2799
atp2800
asg21
V[OH:29][c:30]1[cH:31][cH:32][cH:33][cH:34][c:35]1[CH:36]=[N+:38]1[CH2:39][CH2:40][CH2:41][CH2:42][CH2:43]1.[OH2:37]>>[OH:29][c:30]1[cH:31][cH:32][cH:33][cH:34][c:35]1[CH:36]([OH:37])[NH+:38]1[CH2:39][CH2:40][CH2:41][CH2:42][CH2:43]1
p2801
sg109
I-2
ssg16
(lp2802
g203
asg36
VOc1ccccc1C(O)[NH+]1CCCCC1>>Oc1ccccc1C=[N+]1CCCCC1.O
p2803
sg37
I00
sg38
I00
sg55
F-47.96627999999998
sg56
I00
ss(VO=Cc1ccccc1O.C1CCNCC1>>Oc1ccccc1C(O)[NH+]1CCCCC1
p2804
(g226
tp2805
tp2806
(dp2807
g14
g2804
sg91
(dp2808
g93
F0.0
sg94
I0
sg95
I0
sg96
(lp2809
g226
asg98
(lp2810
((lp2811
V[CH2:1]1[CH2:2][CH2:3][NH:4][CH2:5][CH2:6]1
p2812
aV[O:7]=[CH:8][c:9]1[cH:10][cH:11][cH:12][cH:13][c:14]1[OH:15]
p2813
a(lp2814
(V[CH2:1]1[CH2:2][CH2:3][NH+:4]([CH:8]([OH:7])[c:9]2[cH:10][cH:11][cH:12][cH:13][c:14]2[OH:15])[CH2:5][CH2:6]1
p2815
tp2816
atp2817
asg21
V[CH2:1]1[CH2:2][CH2:3][NH:4][CH2:5][CH2:6]1.[O:7]=[CH:8][c:9]1[cH:10][cH:11][cH:12][cH:13][c:14]1[OH:15]>>[CH2:1]1[CH2:2][CH2:3][NH+:4]([CH:8]([OH:7])[c:9]2[cH:10][cH:11][cH:12][cH:13][c:14]2[OH:15])[CH2:5][CH2:6]1
p2818
sg109
I-2
ssg16
(lp2819
g226
asg36
VC1CCNCC1.O=Cc1ccccc1O>>Oc1ccccc1C(O)[NH+]1CCCCC1
p2820
sg37
I00
sg38
I00
sg248
F4.290000000000001
sg55
F17.045050000000003
sg56
I00
ss(g2668
(g43
tp2821
tp2822
(dp2823
g14
g2668
sg91
(dp2824
g93
F0.0
sg94
I0
sg95
I0
sg96
(lp2825
g43
asg98
(lp2826
((lp2827
g2795
a(lp2828
(V[OH:29][c:30]1[cH:31][cH:32][cH:33][cH:34][c:35]1[CH:36]=[O:37]
p2829
V[NH:38]1[CH2:39][CH2:40][CH2:41][CH2:42][CH2:43]1
p2830
tp2831
atp2832
asg21
V[OH:29][c:30]1[cH:31][cH:32][cH:33][cH:34][c:35]1[CH:36]([OH:37])[NH+:38]1[CH2:39][CH2:40][CH2:41][CH2:42][CH2:43]1>>[OH:29][c:30]1[cH:31][cH:32][cH:33][cH:34][c:35]1[CH:36]=[O:37].[NH:38]1[CH2:39][CH2:40][CH2:41][CH2:42][CH2:43]1
p2833
sg109
I-2
ssg16
(lp2834
g43
asg36
g2677
ss(VOc1ccccc1C=[OH+]>>O=Cc1ccccc1O
p2835
(I1
tp2836
tp2837
(dp2838
g14
g2835
sg91
(dp2839
g93
I0
sg94
I0
sg95
I0
sg96
(lp2840
Nasg98
(lp2841
(lp2842
(V[OH+:7]=[CH:8][c:9]1[cH:10][cH:11][cH:12][cH:13][c:14]1[OH:15]
p2843
tp2844
a(lp2845
(g2813
tp2846
aaasg21
V[OH+:7]=[CH:8][c:9]1[cH:10][cH:11][cH:12][cH:13][c:14]1[OH:15]>>[O:7]=[CH:8][c:9]1[cH:10][cH:11][cH:12][cH:13][c:14]1[OH:15]
p2847
sg109
I-2
ssg16
(lp2848
I1
asg36
g2835
sg37
I00
sg38
I00
ss(VOc1ccccc1C=[N+]1CCCCC1>>O=Cc1ccccc1O
p2849
(g1705
tp2850
tp2851
(dp2852
g14
g2849
sg91
(dp2853
g93
F0.0
sg94
I0
sg95
I0
sg96
(lp2854
g1705
asg98
(lp2855
((lp2856
g2778
aV[OH2:58]
p2857
a(lp2858
(V[OH:44][c:45]1[cH:46][cH:47][cH:48][cH:49][c:50]1[CH:51]=[O:58]
p2859
V[NH:52]1[CH2:53][CH2:54][CH2:55][CH2:56][CH2:57]1
p2860
tp2861
atp2862
asg21
V[OH:44][c:45]1[cH:46][cH:47][cH:48][cH:49][c:50]1[CH:51]=[N+:52]1[CH2:53][CH2:54][CH2:55][CH2:56][CH2:57]1.[OH2:58]>>[OH:44][c:45]1[cH:46][cH:47][cH:48][cH:49][c:50]1[CH:51]=[O:58].[NH:52]1[CH2:53][CH2:54][CH2:55][CH2:56][CH2:57]1
p2863
sg109
I-2
ssg16
(lp2864
g1705
asg36
VOc1ccccc1C=[N+]1CCCCC1.O>>O=Cc1ccccc1O.C1CCNCC1
p2865
sg37
I00
sg38
I00
sg248
F-3.5599999999999996
sg55
F30.92122999999998
sg56
I00
ss(VOc1ccccc1C(O)N1CCCCC1>>O=Cc1ccccc1O
p2866
g2821
tp2867
(dp2868
g14
g2866
sg91
(dp2869
g93
F0.0
sg94
I0
sg95
I0
sg96
(lp2870
g43
asg98
(lp2871
((lp2872
V[OH:160][c:161]1[cH:162][cH:163][cH:164][cH:165][c:166]1[CH:167]([OH:168])[N:169]1[CH2:170][CH2:171][CH2:172][CH2:173][CH2:174]1
p2873
a(lp2874
(V[OH:160][c:161]1[cH:162][cH:163][cH:164][cH:165][c:166]1[CH:167]=[O:168]
p2875
V[NH:169]1[CH2:170][CH2:171][CH2:172][CH2:173][CH2:174]1
p2876
tp2877
atp2878
asg21
V[OH:160][c:161]1[cH:162][cH:163][cH:164][cH:165][c:166]1[CH:167]([OH:168])[N:169]1[CH2:170][CH2:171][CH2:172][CH2:173][CH2:174]1>>[OH:160][c:161]1[cH:162][cH:163][cH:164][cH:165][c:166]1[CH:167]=[O:168].[NH:169]1[CH2:170][CH2:171][CH2:172][CH2:173][CH2:174]1
p2879
sg109
I-2
ssg16
(lp2880
g43
asg36
VOc1ccccc1C(O)N1CCCCC1>>O=Cc1ccccc1O.C1CCNCC1
p2881
sg37
I00
sg38
I00
sg55
F71.80849
sg56
I00
ss(VOc1ccccc1C(O)[NH+]1CCCCC1>>Oc1ccccc1C(O)N1CCCCC1
p2882
g2836
tp2883
(dp2884
g14
g2882
sg91
(dp2885
g93
I0
sg94
I0
sg95
I0
sg96
(lp2886
Nasg98
(lp2887
(lp2888
g2816
a(lp2889
(V[CH2:1]1[CH2:2][CH2:3][N:4]([CH:8]([OH:7])[c:9]2[cH:10][cH:11][cH:12][cH:13][c:14]2[OH:15])[CH2:5][CH2:6]1
p2890
tp2891
aaasg21
V[CH2:1]1[CH2:2][CH2:3][NH+:4]([CH:8]([OH:7])[c:9]2[cH:10][cH:11][cH:12][cH:13][c:14]2[OH:15])[CH2:5][CH2:6]1>>[CH2:1]1[CH2:2][CH2:3][N:4]([CH:8]([OH:7])[c:9]2[cH:10][cH:11][cH:12][cH:13][c:14]2[OH:15])[CH2:5][CH2:6]1
p2892
sg109
I-2
ssg16
(lp2893
I1
asg36
g2882
sg37
I00
sg38
I00
sg55
F-88.85354000000001
sg56
I00
ss(VO=Cc1ccccc1[O-]>>O=Cc1ccccc1O
p2894
g2836
tp2895
(dp2896
g14
g2894
sg91
(dp2897
g93
I0
sg94
I0
sg95
I0
sg96
(lp2898
Nasg98
(lp2899
(lp2900
(V[O-:199][c:200]1[cH:201][cH:202][cH:203][cH:204][c:205]1[CH:206]=[O:207]
p2901
tp2902
a(lp2903
(V[OH:199][c:200]1[cH:201][cH:202][cH:203][cH:204][c:205]1[CH:206]=[O:207]
p2904
tp2905
aaasg21
V[O-:199][c:200]1[cH:201][cH:202][cH:203][cH:204][c:205]1[CH:206]=[O:207]>>[OH:199][c:200]1[cH:201][cH:202][cH:203][cH:204][c:205]1[CH:206]=[O:207]
p2906
sg109
I-2
ssg16
(lp2907
I1
asg36
g2894
sg37
I00
sg38
I00
sg55
F-150.36639
sg56
I00
ss(V[O-]c1ccccc1C=[N+]1CCCCC1>>O=Cc1ccccc1[O-]
p2908
g2850
tp2909
(dp2910
g14
g2908
sg91
(dp2911
g93
F0.0
sg94
I0
sg95
I0
sg96
(lp2912
g1705
asg98
(lp2913
((lp2914
g2762
aV[OH2:72]
p2915
a(lp2916
(V[O-:58][c:59]1[cH:60][cH:61][cH:62][cH:63][c:64]1[CH:65]=[O:72]
p2917
V[NH:66]1[CH2:67][CH2:68][CH2:69][CH2:70][CH2:71]1
p2918
tp2919
atp2920
asg21
V[O-:58][c:59]1[cH:60][cH:61][cH:62][cH:63][c:64]1[CH:65]=[N+:66]1[CH2:67][CH2:68][CH2:69][CH2:70][CH2:71]1.[OH2:72]>>[O-:58][c:59]1[cH:60][cH:61][cH:62][cH:63][c:64]1[CH:65]=[O:72].[NH:66]1[CH2:67][CH2:68][CH2:69][CH2:70][CH2:71]1
p2921
sg109
I-2
ssg16
(lp2922
g1705
asg36
V[O-]c1ccccc1C=[N+]1CCCCC1.O>>O=Cc1ccccc1[O-].C1CCNCC1
p2923
sg37
I00
sg38
I00
sg248
F-3.5599999999999996
sg55
F144.3421
sg56
I00
ss(VOc1ccccc1C=[N+]1CCCCC1>>Oc1ccccc1C(O)N1CCCCC1
p2924
(g1777
tp2925
tp2926
(dp2927
g14
g2924
sg91
(dp2928
g93
F0.0
sg94
I0
sg95
I0
sg96
(lp2929
g1777
asg98
(lp2930
((lp2931
g2778
ag2857
a(lp2932
(V[OH:44][c:45]1[cH:46][cH:47][cH:48][cH:49][c:50]1[CH:51]([N:52]1[CH2:53][CH2:54][CH2:55][CH2:56][CH2:57]1)[OH:58]
p2933
tp2934
atp2935
asg21
V[OH:44][c:45]1[cH:46][cH:47][cH:48][cH:49][c:50]1[CH:51]=[N+:52]1[CH2:53][CH2:54][CH2:55][CH2:56][CH2:57]1.[OH2:58]>>[OH:44][c:45]1[cH:46][cH:47][cH:48][cH:49][c:50]1[CH:51]([N:52]1[CH2:53][CH2:54][CH2:55][CH2:56][CH2:57]1)[OH:58]
p2936
sg109
I-2
ssg16
(lp2937
g1777
asg36
VOc1ccccc1C=[N+]1CCCCC1.O>>Oc1ccccc1C(O)N1CCCCC1
p2938
sg37
I00
sg38
I00
sg248
F-3.5599999999999996
sg55
F-40.887260000000026
sg56
I00
ss(V[O-]c1ccccc1C=[N+]1CCCCC1>>Oc1ccccc1C=[N+]1CCCCC1
p2939
g2836
tp2940
(dp2941
g14
g2939
sg91
(dp2942
g93
I0
sg94
I0
sg95
I0
sg96
(lp2943
Nasg98
(lp2944
(lp2945
g2781
a(lp2946
(g2778
tp2947
aaasg21
V[O-:44][c:45]1[cH:46][cH:47][cH:48][cH:49][c:50]1[CH:51]=[N+:52]1[CH2:53][CH2:54][CH2:55][CH2:56][CH2:57]1>>[OH:44][c:45]1[cH:46][cH:47][cH:48][cH:49][c:50]1[CH:51]=[N+:52]1[CH2:53][CH2:54][CH2:55][CH2:56][CH2:57]1
p2948
sg109
I-2
ssg16
(lp2949
I1
asg36
g2939
sg37
I00
sg38
I00
sg55
F-36.94552
sg56
I00
ss(VOc1ccccc1C(O)N1CCCCC1>>Oc1ccccc1C=[N+]1CCCCC1
p2950
(g1804
tp2951
tp2952
(dp2953
g14
g2950
sg91
(dp2954
g93
F0.0
sg94
I0
sg95
I0
sg96
(lp2955
g1804
asg98
(lp2956
((lp2957
g2873
a(lp2958
(V[OH:160][c:161]1[cH:162][cH:163][cH:164][cH:165][c:166]1[CH:167]=[N+:169]1[CH2:170][CH2:171][CH2:172][CH2:173][CH2:174]1
p2959
V[OH2:168]
p2960
tp2961
atp2962
asg21
V[OH:160][c:161]1[cH:162][cH:163][cH:164][cH:165][c:166]1[CH:167]([OH:168])[N:169]1[CH2:170][CH2:171][CH2:172][CH2:173][CH2:174]1>>[OH:160][c:161]1[cH:162][cH:163][cH:164][cH:165][c:166]1[CH:167]=[N+:169]1[CH2:170][CH2:171][CH2:172][CH2:173][CH2:174]1.[OH2:168]
p2963
sg109
I-2
ssg16
(lp2964
g1804
asg36
VOc1ccccc1C(O)N1CCCCC1>>Oc1ccccc1C=[N+]1CCCCC1.O
p2965
sg37
I00
sg38
I00
sg55
F40.887260000000026
sg56
I00
ss(g2659
(g18
tp2966
tp2967
(dp2968
g14
g2659
sg91
(dp2969
g93
F0.0
sg94
I0
sg95
I0
sg96
(lp2970
g18
asg98
(lp2971
((lp2972
g2813
a(lp2973
g2844
atp2974
asg21
g2662
sg109
I-2
ssg16
(lp2975
g18
asg36
g2659
ss(V[O-]c1ccccc1C(O)N1CCCCC1>>Oc1ccccc1C(O)N1CCCCC1
p2976
g2836
tp2977
(dp2978
g14
g2976
sg91
(dp2979
g93
I0
sg94
I0
sg95
I0
sg96
(lp2980
Nasg98
(lp2981
(lp2982
(V[O-:58][c:59]1[cH:60][cH:61][cH:62][cH:63][c:64]1[CH:65]([N:66]1[CH2:67][CH2:68][CH2:69][CH2:70][CH2:71]1)[OH:72]
p2983
tp2984
a(lp2985
(V[OH:58][c:59]1[cH:60][cH:61][cH:62][cH:63][c:64]1[CH:65]([N:66]1[CH2:67][CH2:68][CH2:69][CH2:70][CH2:71]1)[OH:72]
p2986
tp2987
aaasg21
V[O-:58][c:59]1[cH:60][cH:61][cH:62][cH:63][c:64]1[CH:65]([N:66]1[CH2:67][CH2:68][CH2:69][CH2:70][CH2:71]1)[OH:72]>>[OH:58][c:59]1[cH:60][cH:61][cH:62][cH:63][c:64]1[CH:65]([N:66]1[CH2:67][CH2:68][CH2:69][CH2:70][CH2:71]1)[OH:72]
p2988
sg109
I-2
ssg16
(lp2989
I1
asg36
g2976
sg37
I00
sg38
I00
sg55
F-143.7638
sg56
I00
ss(V[O-]c1ccccc1C=[N+]1CCCCC1>>[O-]c1ccccc1C(O)N1CCCCC1
p2990
g2925
tp2991
(dp2992
g14
g2990
sg91
(dp2993
g93
F0.0
sg94
I0
sg95
I0
sg96
(lp2994
g1777
asg98
(lp2995
((lp2996
g2762
ag2915
a(lp2997
g2984
atp2998
asg21
V[O-:58][c:59]1[cH:60][cH:61][cH:62][cH:63][c:64]1[CH:65]=[N+:66]1[CH2:67][CH2:68][CH2:69][CH2:70][CH2:71]1.[OH2:72]>>[O-:58][c:59]1[cH:60][cH:61][cH:62][cH:63][c:64]1[CH:65]([N:66]1[CH2:67][CH2:68][CH2:69][CH2:70][CH2:71]1)[OH:72]
p2999
sg109
I-2
ssg16
(lp3000
g1777
asg36
V[O-]c1ccccc1C=[N+]1CCCCC1.O>>[O-]c1ccccc1C(O)N1CCCCC1
p3001
sg37
I00
sg38
I00
sg248
F-3.5599999999999996
sg55
F65.93101999999999
sg56
I00
ss(VO=C([O-])O>>O=C(O)O
p3002
g2836
tp3003
(dp3004
g14
g3002
sg91
(dp3005
g93
I0
sg94
I0
sg95
I0
sg96
(lp3006
Nasg98
(lp3007
(lp3008
(V[O:195]=[C:196]([OH:197])[O-:198]
p3009
tp3010
a(lp3011
(V[O:195]=[C:196]([OH:197])[OH:198]
p3012
tp3013
aaasg21
V[O:195]=[C:196]([OH:197])[O-:198]>>[O:195]=[C:196]([OH:197])[OH:198]
p3014
sg109
I-2
ssg16
(lp3015
I1
asg36
g3002
sg37
I00
sg38
I00
sg55
F-251.69010000000003
sg56
I00
ss(VCC(C)(C)c1ccc(C(c2ccccc2O)N2CCCCC2)cc1>>CC(C)(C)c1ccc(C(c2ccccc2[O-])N2CCCCC2)cc1
p3016
g2771
tp3017
(dp3018
g14
g3016
sg91
(dp3019
g93
F0.0
sg94
I0
sg95
I0
sg96
(lp3020
g170
asg98
(lp3021
((lp3022
V[CH3:126][C:127]([CH3:128])([CH3:129])[c:130]1[cH:131][cH:132][c:133]([CH:134]([c:135]2[cH:136][cH:137][cH:138][cH:139][c:140]2[OH:141])[N:142]2[CH2:143][CH2:144][CH2:145][CH2:146][CH2:147]2)[cH:148][cH:149]1
p3023
a(lp3024
(V[CH3:126][C:127]([CH3:128])([CH3:129])[c:130]1[cH:131][cH:132][c:133]([CH:134]([c:135]2[cH:136][cH:137][cH:138][cH:139][c:140]2[O-:141])[N:142]2[CH2:143][CH2:144][CH2:145][CH2:146][CH2:147]2)[cH:148][cH:149]1
p3025
tp3026
atp3027
asg21
V[CH3:126][C:127]([CH3:128])([CH3:129])[c:130]1[cH:131][cH:132][c:133]([CH:134]([c:135]2[cH:136][cH:137][cH:138][cH:139][c:140]2[OH:141])[N:142]2[CH2:143][CH2:144][CH2:145][CH2:146][CH2:147]2)[cH:148][cH:149]1>>[CH3:126][C:127]([CH3:128])([CH3:129])[c:130]1[cH:131][cH:132][c:133]([CH:134]([c:135]2[cH:136][cH:137][cH:138][cH:139][c:140]2[O-:141])[N:142]2[CH2:143][CH2:144][CH2:145][CH2:146][CH2:147]2)[cH:148][cH:149]1
p3028
sg109
I-2
ssg16
(lp3029
g170
asg36
g3016
sg37
I00
sg38
(lp3030
g193
a(dp3031
g195
g2693
sg197
g3023
sg198
g2685
sg200
g3025
sg201
g2685
sasg55
F107.4007
sg56
I01
ss(VOc1ccccc1C(O)N1CCCCC1>>[O-]C(c1ccccc1O)N1CCCCC1
p3032
(g1884
tp3033
tp3034
(dp3035
g14
g3032
sg91
(dp3036
g93
F0.0
sg94
I0
sg95
I0
sg96
(lp3037
g1884
asg98
(lp3038
((lp3039
g2873
a(lp3040
(V[OH:160][c:161]1[cH:162][cH:163][cH:164][cH:165][c:166]1[CH:167]([O-:168])[N:169]1[CH2:170][CH2:171][CH2:172][CH2:173][CH2:174]1
p3041
tp3042
atp3043
asg21
V[OH:160][c:161]1[cH:162][cH:163][cH:164][cH:165][c:166]1[CH:167]([OH:168])[N:169]1[CH2:170][CH2:171][CH2:172][CH2:173][CH2:174]1>>[OH:160][c:161]1[cH:162][cH:163][cH:164][cH:165][c:166]1[CH:167]([O-:168])[N:169]1[CH2:170][CH2:171][CH2:172][CH2:173][CH2:174]1
p3044
sg109
I-2
ssg16
(lp3045
g1884
asg36
g3032
sg37
I00
sg38
(lp3046
g193
a(dp3047
g195
g2710
sg197
g2873
sg198
g2712
sg200
g3041
sg201
g2712
sasg55
F254.86135000000002
sg56
I00
ss(V[O-]c1ccccc1C(O)N1CCCCC1>>[O-]c1ccccc1C=[N+]1CCCCC1
p3048
g2951
tp3049
(dp3050
g14
g3048
sg91
(dp3051
g93
F0.0
sg94
I0
sg95
I0
sg96
(lp3052
g1804
asg98
(lp3053
((lp3054
V[O-:199][c:200]1[cH:201][cH:202][cH:203][cH:204][c:205]1[CH:206]([OH:207])[N:208]1[CH2:209][CH2:210][CH2:211][CH2:212][CH2:213]1
p3055
a(lp3056
(V[O-:199][c:200]1[cH:201][cH:202][cH:203][cH:204][c:205]1[CH:206]=[N+:208]1[CH2:209][CH2:210][CH2:211][CH2:212][CH2:213]1
p3057
V[OH2:207]
p3058
tp3059
atp3060
asg21
V[O-:199][c:200]1[cH:201][cH:202][cH:203][cH:204][c:205]1[CH:206]([OH:207])[N:208]1[CH2:209][CH2:210][CH2:211][CH2:212][CH2:213]1>>[O-:199][c:200]1[cH:201][cH:202][cH:203][cH:204][c:205]1[CH:206]=[N+:208]1[CH2:209][CH2:210][CH2:211][CH2:212][CH2:213]1.[OH2:207]
p3061
sg109
I-2
ssg16
(lp3062
g1804
asg36
V[O-]c1ccccc1C(O)N1CCCCC1>>[O-]c1ccccc1C=[N+]1CCCCC1.O
p3063
sg37
I00
sg38
I00
sg55
F-65.93101999999999
sg56
I00
ss(VCC(C)(C)c1ccc(C(c2ccccc2[O-])N2CCCCC2)cc1>>CC(C)(C)c1ccc(C(c2ccccc2O)N2CCCCC2)cc1
p3064
g2836
tp3065
(dp3066
g14
g3064
sg91
(dp3067
g93
I0
sg94
I0
sg95
I0
sg96
(lp3068
Nasg98
(lp3069
(lp3070
g3026
a(lp3071
(g3023
tp3072
aaasg21
V[CH3:126][C:127]([CH3:128])([CH3:129])[c:130]1[cH:131][cH:132][c:133]([CH:134]([c:135]2[cH:136][cH:137][cH:138][cH:139][c:140]2[O-:141])[N:142]2[CH2:143][CH2:144][CH2:145][CH2:146][CH2:147]2)[cH:148][cH:149]1>>[CH3:126][C:127]([CH3:128])([CH3:129])[c:130]1[cH:131][cH:132][c:133]([CH:134]([c:135]2[cH:136][cH:137][cH:138][cH:139][c:140]2[OH:141])[N:142]2[CH2:143][CH2:144][CH2:145][CH2:146][CH2:147]2)[cH:148][cH:149]1
p3073
sg109
I-2
ssg16
(lp3074
I1
asg36
g3064
sg37
I00
sg38
I00
sg55
F-107.4007
sg56
I01
ss(V[O-]C(c1ccccc1O)N1CCCCC1>>Oc1ccccc1C(O)N1CCCCC1
p3075
g2836
tp3076
(dp3077
g14
g3075
sg91
(dp3078
g93
I0
sg94
I0
sg95
I0
sg96
(lp3079
Nasg98
(lp3080
(lp3081
g3042
a(lp3082
(g2873
tp3083
aaasg21
V[OH:160][c:161]1[cH:162][cH:163][cH:164][cH:165][c:166]1[CH:167]([O-:168])[N:169]1[CH2:170][CH2:171][CH2:172][CH2:173][CH2:174]1>>[OH:160][c:161]1[cH:162][cH:163][cH:164][cH:165][c:166]1[CH:167]([OH:168])[N:169]1[CH2:170][CH2:171][CH2:172][CH2:173][CH2:174]1
p3084
sg109
I-2
ssg16
(lp3085
I1
asg36
g3075
sg37
I00
sg38
I00
sg55
F-254.86135000000002
sg56
I00
ss(V[O-]c1ccccc1C(O)[NH+]1CCCCC1>>Oc1ccccc1C(O)N1CCCCC1
p3086
g2836
tp3087
(dp3088
g14
g3086
sg91
(dp3089
g93
I0
sg94
I0
sg95
I0
sg96
(lp3090
Nasg98
(lp3091
(lp3092
(V[CH2:1]1[CH2:2][CH2:3][NH+:4]([CH:215]([OH:214])[c:216]2[cH:217][cH:218][cH:219][cH:220][c:221]2[O-:222])[CH2:5][CH2:6]1
p3093
tp3094
a(lp3095
(V[CH2:1]1[CH2:2][CH2:3][N:4]([CH:215]([OH:214])[c:216]2[cH:217][cH:218][cH:219][cH:220][c:221]2[OH:222])[CH2:5][CH2:6]1
p3096
tp3097
aaasg21
V[CH2:1]1[CH2:2][CH2:3][NH+:4]([CH:215]([OH:214])[c:216]2[cH:217][cH:218][cH:219][cH:220][c:221]2[O-:222])[CH2:5][CH2:6]1>>[CH2:1]1[CH2:2][CH2:3][N:4]([CH:215]([OH:214])[c:216]2[cH:217][cH:218][cH:219][cH:220][c:221]2[OH:222])[CH2:5][CH2:6]1
p3098
sg109
I-2
ssg16
(lp3099
I1
asg36
g3086
sg37
I00
sg38
I00
sg55
F-52.56782000000004
sg56
I00
ss(VO=Cc1ccccc1[O-].C1CCNCC1>>[O-]c1ccccc1C(O)[NH+]1CCCCC1
p3100
g2805
tp3101
(dp3102
g14
g3100
sg91
(dp3103
g93
F0.0
sg94
I0
sg95
I0
sg96
(lp3104
g226
asg98
(lp3105
((lp3106
g2812
aV[O:214]=[CH:215][c:216]1[cH:217][cH:218][cH:219][cH:220][c:221]1[O-:222]
p3107
a(lp3108
g3094
atp3109
asg21
V[CH2:1]1[CH2:2][CH2:3][NH+:4]([CH:215]([OH:214])[c:216]2[cH:217][cH:218][cH:219][cH:220][c:221]2[O-:222])[CH2:5][CH2:6]1>>[CH2:1]1[CH2:2][CH2:3][NH:4][CH2:5][CH2:6]1.[O:214]=[CH:215][c:216]1[cH:217][cH:218][cH:219][cH:220][c:221]1[O-:222]
p3110
sg109
I-2
ssg16
(lp3111
g226
asg36
VC1CCNCC1.O=Cc1ccccc1[O-]>>[O-]c1ccccc1C(O)[NH+]1CCCCC1
p3112
sg37
I00
sg38
I00
sg248
F4.290000000000001
sg55
F-169.60705999999996
sg56
I00
ss(VO=C(O)O>>O=C([O-])O
p3113
(Vrx271
p3114
tp3115
tp3116
(dp3117
g14
g3113
sg91
(dp3118
g93
F0.0
sg94
I0
sg95
I0
sg96
(lp3119
g3114
asg98
(lp3120
((lp3121
g3012
a(lp3122
g3010
atp3123
asg21
V[O:195]=[C:196]([OH:197])[OH:198]>>[O:195]=[C:196]([OH:197])[O-:198]
p3124
sg109
I-2
ssg16
(lp3125
g3114
asg36
g3113
sg37
I00
sg38
(lp3126
g193
a(dp3127
g195
g2714
sg197
g3012
sg198
g2716
sg200
g3009
sg201
g2716
sasg55
F251.69010000000003
sg56
I00
ss(V[O-]c1ccccc1C(O)N1CCCCC1>>O=Cc1ccccc1[O-]
p3128
g2821
tp3129
(dp3130
g14
g3128
sg91
(dp3131
g93
F0.0
sg94
I0
sg95
I0
sg96
(lp3132
g43
asg98
(lp3133
((lp3134
g3055
a(lp3135
(g2901
V[NH:208]1[CH2:209][CH2:210][CH2:211][CH2:212][CH2:213]1
p3136
tp3137
atp3138
asg21
V[O-:199][c:200]1[cH:201][cH:202][cH:203][cH:204][c:205]1[CH:206]([OH:207])[N:208]1[CH2:209][CH2:210][CH2:211][CH2:212][CH2:213]1>>[O-:199][c:200]1[cH:201][cH:202][cH:203][cH:204][c:205]1[CH:206]=[O:207].[NH:208]1[CH2:209][CH2:210][CH2:211][CH2:212][CH2:213]1
p3139
sg109
I-2
ssg16
(lp3140
g43
asg36
V[O-]c1ccccc1C(O)N1CCCCC1>>O=Cc1ccccc1[O-].C1CCNCC1
p3141
sg37
I00
sg38
I00
sg55
F78.41108
sg56
I00
ss(VCC(C)(C)c1ccc(C(c2ccccc2[O-])N2CCCCC2)cc1.CC(C)(C)c1ccc(B(O)O)cc1>>CC(C)(C)c1ccc(C(c2ccccc2O[B-](O)(O)c2ccc(C(C)(C)C)cc2)N2CCCCC2)cc1
p3142
g2754
tp3143
(dp3144
g14
g3142
sg91
(dp3145
g93
F0.0
sg94
I0
sg95
I0
sg96
(lp3146
g147
asg98
(lp3147
((lp3148
g2761
aV[CH3:227][C:228]([CH3:229])([CH3:230])[c:231]1[cH:232][cH:233][c:234]([CH:235]([c:236]2[cH:237][cH:238][cH:239][cH:240][c:241]2[O-:242])[N:243]2[CH2:244][CH2:245][CH2:246][CH2:247][CH2:248]2)[cH:249][cH:250]1
p3149
a(lp3150
(V[CH3:16][C:17]([CH3:18])([CH3:19])[c:20]1[cH:21][cH:22][c:23]([B-:24]([OH:25])([OH:26])[O:242][c:241]2[c:236]([CH:235]([c:234]3[cH:233][cH:232][c:231]([C:228]([CH3:227])([CH3:229])[CH3:230])[cH:250][cH:249]3)[N:243]3[CH2:244][CH2:245][CH2:246][CH2:247][CH2:248]3)[cH:237][cH:238][cH:239][cH:240]2)[cH:27][cH:28]1
p3151
tp3152
atp3153
asg21
V[CH3:16][C:17]([CH3:18])([CH3:19])[c:20]1[cH:21][cH:22][c:23]([B-:24]([OH:25])([OH:26])[O:242][c:241]2[c:236]([CH:235]([c:234]3[cH:233][cH:232][c:231]([C:228]([CH3:227])([CH3:229])[CH3:230])[cH:250][cH:249]3)[N:243]3[CH2:244][CH2:245][CH2:246][CH2:247][CH2:248]3)[cH:237][cH:238][cH:239][cH:240]2)[cH:27][cH:28]1>>[CH3:16][C:17]([CH3:18])([CH3:19])[c:20]1[cH:21][cH:22][c:23]([B:24]([OH:25])[OH:26])[cH:27][cH:28]1.[CH3:227][C:228]([CH3:229])([CH3:230])[c:231]1[cH:232][cH:233][c:234]([CH:235]([c:236]2[cH:237][cH:238][cH:239][cH:240][c:241]2[O-:242])[N:243]2[CH2:244][CH2:245][CH2:246][CH2:247][CH2:248]2)[cH:249][cH:250]1
p3154
sg109
I-2
ssg16
(lp3155
g147
asg36
VCC(C)(C)c1ccc(B(O)O)cc1.CC(C)(C)c1ccc(C(c2ccccc2[O-])N2CCCCC2)cc1>>CC(C)(C)c1ccc(C(c2ccccc2O[B-](O)(O)c2ccc(C(C)(C)C)cc2)N2CCCCC2)cc1
p3156
sg37
I00
sg38
I00
sg55
F-124.53840000000002
sg56
I01
ss(VO=Cc1ccccc1[O-].CC(C)(C)c1ccc(B(O)O)cc1>>CC(C)(C)c1ccc([B-](O)(O)Oc2ccccc2C=O)cc1
p3157
g2754
tp3158
(dp3159
g14
g3157
sg91
(dp3160
g93
F0.0
sg94
I0
sg95
I0
sg96
(lp3161
g147
asg98
(lp3162
((lp3163
g2761
ag3107
a(lp3164
(V[CH3:16][C:17]([CH3:18])([CH3:19])[c:20]1[cH:21][cH:22][c:23]([B-:24]([OH:25])([OH:26])[O:222][c:221]2[c:216]([CH:215]=[O:214])[cH:217][cH:218][cH:219][cH:220]2)[cH:27][cH:28]1
p3165
tp3166
atp3167
asg21
V[CH3:16][C:17]([CH3:18])([CH3:19])[c:20]1[cH:21][cH:22][c:23]([B-:24]([OH:25])([OH:26])[O:222][c:221]2[c:216]([CH:215]=[O:214])[cH:217][cH:218][cH:219][cH:220]2)[cH:27][cH:28]1>>[CH3:16][C:17]([CH3:18])([CH3:19])[c:20]1[cH:21][cH:22][c:23]([B:24]([OH:25])[OH:26])[cH:27][cH:28]1.[O:214]=[CH:215][c:216]1[cH:217][cH:218][cH:219][cH:220][c:221]1[O-:222]
p3168
sg109
I-2
ssg16
(lp3169
g147
asg36
VCC(C)(C)c1ccc(B(O)O)cc1.O=Cc1ccccc1[O-]>>CC(C)(C)c1ccc([B-](O)(O)Oc2ccccc2C=O)cc1
p3170
sg37
I00
sg38
I00
sg55
F-48.41521999999998
sg56
I00
ss(VOc1ccccc1C(O)N1CCCCC1>>Oc1ccccc1C([OH2+])N1CCCCC1
p3171
(Vrx258
p3172
tp3173
tp3174
(dp3175
g14
g3171
sg91
(dp3176
g93
F0.0
sg94
I0
sg95
I0
sg96
(lp3177
g3172
asg98
(lp3178
((lp3179
g2873
a(lp3180
(V[OH:160][c:161]1[cH:162][cH:163][cH:164][cH:165][c:166]1[CH:167]([OH2+:168])[N:169]1[CH2:170][CH2:171][CH2:172][CH2:173][CH2:174]1
p3181
tp3182
atp3183
asg21
V[OH:160][c:161]1[cH:162][cH:163][cH:164][cH:165][c:166]1[CH:167]([OH:168])[N:169]1[CH2:170][CH2:171][CH2:172][CH2:173][CH2:174]1>>[OH:160][c:161]1[cH:162][cH:163][cH:164][cH:165][c:166]1[CH:167]([OH2+:168])[N:169]1[CH2:170][CH2:171][CH2:172][CH2:173][CH2:174]1
p3184
sg109
I-2
ssg16
(lp3185
g3172
asg36
g3171
sg37
I00
sg38
I00
sg55
F0.1
sg56
I00
sssg249
(lp3186
(I1
g2693
tp3187
a(I1
g2711
tp3188
a(g2691
I1
tp3189
a(g2693
I19
tp3190
a(I2
g2691
tp3191
a(g2687
I2
tp3192
a(I3
g2687
tp3193
a(g2695
I3
tp3194
a(g2695
I13
tp3195
a(g2695
I21
tp3196
a(g2695
I22
tp3197
a(g2699
I3
tp3198
a(g2699
I29
tp3199
a(g2699
I31
tp3200
a(I4
g2695
tp3201
a(I4
g2709
tp3202
a(I4
g2716
tp3203
a(g2689
I4
tp3204
a(g2689
I10
tp3205
a(g2689
I16
tp3206
a(I5
g2689
tp3207
a(I5
g81
tp3208
a(g2697
I5
tp3209
a(g2697
I8
tp3210
a(g2697
I15
tp3211
a(I6
g2697
tp3212
a(g2683
I6
tp3213
a(g2683
I7
tp3214
a(g45
I6
tp3215
a(g45
I30
tp3216
a(g81
I1
tp3217
a(g2716
I18
tp3218
a(I7
g2701
tp3219
a(g2701
I9
tp3220
a(I8
g2683
tp3221
a(I9
g2683
tp3222
a(I10
g2683
tp3223
a(I11
g2683
tp3224
a(g2710
I11
tp3225
a(g2710
I14
tp3226
a(g2710
I20
tp3227
a(g2710
I32
tp3228
a(I12
g2683
tp3229
a(g2713
I12
tp3230
a(g2713
I30
tp3231
a(g2713
I31
tp3232
a(I13
g2689
tp3233
a(I14
g2689
tp3234
a(I15
g2710
tp3235
a(I16
g2710
tp3236
a(I17
g2710
tp3237
a(g2715
I17
tp3238
a(g2715
I23
tp3239
a(g2715
I28
tp3240
a(I18
g2714
tp3241
a(g2714
I27
tp3242
a(I19
g2685
tp3243
a(g2685
I24
tp3244
a(g2685
I29
tp3245
a(I20
g2712
tp3246
a(g2712
I25
tp3247
a(I21
g2715
tp3248
a(I22
g2713
tp3249
a(I22
g45
tp3250
a(I23
g2695
tp3251
a(I24
g2693
tp3252
a(I25
g2710
tp3253
a(I26
g2710
tp3254
a(V[O-]c1ccccc1C(O)[NH+]1CCCCC1
p3255
I26
tp3256
a(I27
g2716
tp3257
a(I28
g2713
tp3258
a(I29
VCC(C)(C)c1ccc(C(c2ccccc2O[B-](O)(O)c2ccc(C(C)(C)C)cc2)N2CCCCC2)cc1
p3259
tp3260
a(I30
g3255
tp3261
a(I31
VCC(C)(C)c1ccc([B-](O)(O)Oc2ccccc2C=O)cc1
p3262
tp3263
a(I32
VOc1ccccc1C([OH2+])N1CCCCC1
p3264
tp3265
asg282
(dp3266
((g2691
tp3267
g2693
g2721
tp3268
I1
s((g2687
tp3269
g2691
g2739
tp3270
I2
s((g2699
g2695
tp3271
g2687
g2754
tp3272
I3
s((g2689
tp3273
g2695
g2771
tp3274
I4
s((g2697
tp3275
g2689
g2788
tp3276
I5
s((g45
g2683
tp3277
g2697
g2805
tp3278
I6
s(g3275
g2683
g2821
tp3279
I8
s(g3273
g2683
g2850
tp3280
I10
s((g2710
tp3281
g2683
g2821
tp3282
I11
s((g2713
tp3283
g2683
g2836
tp3284
I12
s((g2695
tp3285
g2689
g2836
tp3286
I13
s(g3281
g2689
g2951
tp3287
I14
s(g3275
g2710
g2836
tp3288
I15
s(g3273
g2710
g2925
tp3289
I16
s((g2715
tp3290
g2710
g2836
tp3291
I17
s((g2716
tp3292
g2714
g2836
tp3293
I18
s((g2693
tp3294
g2685
g2771
tp3295
I19
s(g3281
g2712
g3033
tp3296
I20
s(g3285
g2715
g2925
tp3297
I21
s(g3285
g2713
g2850
tp3298
I22
s(g3290
g2695
g2951
tp3299
I23
s((g2685
tp3300
g2693
g2836
tp3301
I24
s((g2712
tp3302
g2710
g2836
tp3303
I25
s((g3255
tp3304
g2710
g2836
tp3305
I26
s((g2714
tp3306
g2716
g3115
tp3307
I27
s(g3290
g2713
g2821
tp3308
I28
s((g2699
g2685
tp3309
g3259
g2754
tp3310
I29
s((g45
g2713
tp3311
g3255
g2805
tp3312
I30
s((g2699
g2713
tp3313
g3262
g2754
tp3314
I31
s(g3281
g3264
g3173
tp3315
I32
ssg298
(dp3316
g45
(dp3317
g301
I0
sg302
(lp3318
sg304
V\u000a     RDKit          2D\u000a\u000a  6  6  0  0  0  0  0  0  0  0999 V2000\u000a    0.3664   -0.3666    0.0000 C   0  0  0  0  0  0  0  0  0  0  0  0\u000a   -0.4992    0.1340    0.0000 C   0  0  0  0  0  0  0  0  0  0  0  0\u000a   -1.3656   -0.3654    0.0000 C   0  0  0  0  0  0  0  0  0  0  0  0\u000a   -1.3664   -1.3654    0.0000 N   0  0  0  0  0  0  0  0  0  0  0  0\u000a   -0.5008   -1.8660    0.0000 C   0  0  0  0  0  0  0  0  0  0  0  0\u000a    0.3656   -1.3666    0.0000 C   0  0  0  0  0  0  0  0  0  0  0  0\u000a  1  2  1  0\u000a  2  3  1  0\u000a  3  4  1  0\u000a  4  5  1  0\u000a  5  6  1  0\u000a  6  1  1  0\u000aM  END\u000a
p3319
sg306
g307
sg308
g45
sg309
g310
sg316
(lp3320
(lp3321
g2695
aa(lp3322
g2715
aassg2683
(dp3323
g301
I0
sg302
(lp3324
sg304
g2684
sg306
g314
sg308
g2683
sg309
g315
sg316
(lp3325
(lp3326
g2697
aassg2699
(dp3327
g301
I0
sg302
(lp3328
sg304
g2700
sg306
g322
sg308
g2699
sg309
g310
ssg2693
(dp3329
g301
I6
sg302
(lp3330
g2691
ag81
asg304
g2694
sg306
g326
sg327
g2693
sg309
g310
sg316
(lp3331
(lp3332
g2685
aassg2691
(dp3333
g301
I5
sg302
(lp3334
g2687
asg304
g2692
sg306
g331
sg327
g2691
sg309
g310
ssg2687
(dp3335
g301
I4
sg302
(lp3336
g2695
ag2699
asg304
g2688
sg306
g331
sg327
g2687
sg309
g310
ssg2695
(dp3337
g301
I3
sg302
(lp3338
g2689
asg304
g2696
sg306
g338
sg327
g2695
sg309
g310
sg316
(lp3339
(lp3340
g2715
aassg2689
(dp3341
g301
I2
sg302
(lp3342
g2697
asg304
g2690
sg306
VC12H16NO+
p3343
sg327
g2689
sg309
g310
sg316
(lp3344
(lp3345
g2710
aa(lp3346
g2695
aassg2697
(dp3347
g301
I1
sg302
(lp3348
g2683
ag45
asg304
g2698
sg306
VC12H18NO2+
p3349
sg327
g2697
sg309
g310
ssg81
(dp3350
g301
I0
sg302
(lp3351
sg304
V\u000a     RDKit          2D\u000a\u000a  1  0  0  0  0  0  0  0  0  0999 V2000\u000a    0.0000    0.0000    0.0000 O   0  0  0  0  0  0  0  0  0  0  0  0\u000aM  END\u000a
p3352
sg306
g350
sg309
g79
sg316
(lp3353
(lp3354
g2697
aa(lp3355
g2710
aa(lp3356
a(lp3357
a(lp3358
a(lp3359
a(lp3360
g2715
aassg2711
(dp3361
g301
I6
sg302
(lp3362
g2691
ag81
asg306
g355
sg304
V\u000a     RDKit          2D\u000a\u000a  4  3  0  0  0  0  0  0  0  0999 V2000\u000a   -0.9992    1.0000    0.0000 O   0  0  0  0  0  0  0  0  0  0  0  0\u000a   -1.0000    0.0000    0.0000 B   0  0  0  0  0  0  0  0  0  0  0  0\u000a   -0.1344   -0.5006    0.0000 O   0  0  0  0  0  0  0  0  0  0  0  0\u000a   -1.8664   -0.4994    0.0000 O   0  0  0  0  0  0  0  0  0  0  0  0\u000a  1  2  1  0\u000a  2  3  1  0\u000a  2  4  1  0\u000aM  END\u000a
p3363
sg327
g2711
sg309
g357
ssg2709
(dp3364
g301
I3
sg302
(lp3365
g2689
asg306
VK+
p3366
sg304
V\u000a     RDKit          2D\u000a\u000a  1  0  0  0  0  0  0  0  0  0999 V2000\u000a    0.0000    0.0000    0.0000 K   0  0  0  0  0 15  0  0  0  0  0  0\u000aM  CHG  1   1   1\u000aM  END\u000a
p3367
sg327
g2709
sg309
g357
ssg2716
(dp3368
g301
I3
sg302
(lp3369
g2689
asg306
VCHO3-
p3370
sg304
V\u000a     RDKit          2D\u000a\u000a  4  3  0  0  0  0  0  0  0  0999 V2000\u000a   -0.9992    1.0000    0.0000 O   0  0  0  0  0  0  0  0  0  0  0  0\u000a   -1.0000    0.0000    0.0000 C   0  0  0  0  0  0  0  0  0  0  0  0\u000a   -0.1344   -0.5006    0.0000 O   0  0  0  0  0  1  0  0  0  0  0  0\u000a   -1.8664   -0.4994    0.0000 O   0  0  0  0  0  0  0  0  0  0  0  0\u000a  1  2  2  0\u000a  2  3  1  0\u000a  2  4  1  0\u000aM  CHG  1   3  -1\u000aM  END\u000a
p3371
sg327
g2716
sg309
g357
sg316
(lp3372
(lp3373
g2714
aassg2701
(dp3374
g301
I1
sg302
(lp3375
g2683
asg306
VC7H7O2+
p3376
sg304
g2702
sg327
g2701
sg309
g6
ssg2710
(dp3377
g301
I2
sg309
g2047
sg304
V\u000a     RDKit          2D\u000a\u000a 15 16  0  0  0  0  0  0  0  0999 V2000\u000a    1.3666   -2.4648    0.0000 O   0  0  0  0  0  0  0  0  0  0  0  0\u000a    0.5010   -1.9640    0.0000 C   0  0  0  0  0  0  0  0  0  0  0  0\u000a   -0.3654   -2.4634    0.0000 C   0  0  0  0  0  0  0  0  0  0  0  0\u000a   -1.2310   -1.9628    0.0000 C   0  0  0  0  0  0  0  0  0  0  0  0\u000a   -1.2302   -0.9628    0.0000 C   0  0  0  0  0  0  0  0  0  0  0  0\u000a   -0.3638   -0.4634    0.0000 C   0  0  0  0  0  0  0  0  0  0  0  0\u000a    0.5018   -0.9640    0.0000 C   0  0  0  0  0  0  0  0  0  0  0  0\u000a    1.3682   -0.4648    0.0000 C   0  0  0  0  0  0  0  0  0  0  0  0\u000a    2.2338   -0.9654    0.0000 O   0  0  0  0  0  0  0  0  0  0  0  0\u000a    1.3690    0.5352    0.0000 N   0  0  0  0  0  0  0  0  0  0  0  0\u000a    0.5034    1.0360    0.0000 C   0  0  0  0  0  0  0  0  0  0  0  0\u000a    0.5042    2.0360    0.0000 C   0  0  0  0  0  0  0  0  0  0  0  0\u000a    1.3706    2.5352    0.0000 C   0  0  0  0  0  0  0  0  0  0  0  0\u000a    2.2362    2.0346    0.0000 C   0  0  0  0  0  0  0  0  0  0  0  0\u000a    2.2354    1.0346    0.0000 C   0  0  0  0  0  0  0  0  0  0  0  0\u000a  1  2  1  0\u000a  2  3  2  0\u000a  3  4  1  0\u000a  4  5  2  0\u000a  5  6  1  0\u000a  6  7  2  0\u000a  7  8  1  0\u000a  8  9  1  0\u000a  8 10  1  0\u000a 10 11  1  0\u000a 11 12  1  0\u000a 12 13  1  0\u000a 13 14  1  0\u000a 14 15  1  0\u000a  7  2  1  0\u000a 15 10  1  0\u000aM  END\u000a
p3378
sg306
g2049
sg2050
g2710
sg2051
(lp3379
I0
asg302
(lp3380
g2697
asg316
(lp3381
(lp3382
g2689
aa(lp3383
g2715
aa(lp3384
g2712
aa(lp3385
g3255
aassg2714
(dp3386
g301
I4
sg309
g2047
sg304
V\u000a     RDKit          2D\u000a\u000a  4  3  0  0  0  0  0  0  0  0999 V2000\u000a   -0.9992    1.0000    0.0000 O   0  0  0  0  0  0  0  0  0  0  0  0\u000a   -1.0000    0.0000    0.0000 C   0  0  0  0  0  0  0  0  0  0  0  0\u000a   -0.1344   -0.5006    0.0000 O   0  0  0  0  0  0  0  0  0  0  0  0\u000a   -1.8664   -0.4994    0.0000 O   0  0  0  0  0  0  0  0  0  0  0  0\u000a  1  2  2  0\u000a  2  3  1  0\u000a  2  4  1  0\u000aM  END\u000a
p3387
sg306
g2059
sg2050
g2714
sg2051
(lp3388
I0
asg302
(lp3389
g2716
assg2685
(dp3390
g301
I7
sg309
g2047
sg304
g2686
sg306
VC22H28NO-
p3391
sg2050
g2685
sg2051
(lp3392
I0
asg302
(lp3393
g2693
assg2712
(dp3394
g301
I2
sg309
g2047
sg304
V\u000a     RDKit          2D\u000a\u000a 15 16  0  0  0  0  0  0  0  0999 V2000\u000a    2.2338   -0.9654    0.0000 O   0  0  0  0  0  1  0  0  0  0  0  0\u000a    1.3682   -0.4648    0.0000 C   0  0  0  0  0  0  0  0  0  0  0  0\u000a    0.5018   -0.9640    0.0000 C   0  0  0  0  0  0  0  0  0  0  0  0\u000a   -0.3638   -0.4634    0.0000 C   0  0  0  0  0  0  0  0  0  0  0  0\u000a   -1.2302   -0.9628    0.0000 C   0  0  0  0  0  0  0  0  0  0  0  0\u000a   -1.2310   -1.9628    0.0000 C   0  0  0  0  0  0  0  0  0  0  0  0\u000a   -0.3654   -2.4634    0.0000 C   0  0  0  0  0  0  0  0  0  0  0  0\u000a    0.5010   -1.9640    0.0000 C   0  0  0  0  0  0  0  0  0  0  0  0\u000a    1.3666   -2.4648    0.0000 O   0  0  0  0  0  0  0  0  0  0  0  0\u000a    1.3690    0.5352    0.0000 N   0  0  0  0  0  0  0  0  0  0  0  0\u000a    0.5034    1.0360    0.0000 C   0  0  0  0  0  0  0  0  0  0  0  0\u000a    0.5042    2.0360    0.0000 C   0  0  0  0  0  0  0  0  0  0  0  0\u000a    1.3706    2.5352    0.0000 C   0  0  0  0  0  0  0  0  0  0  0  0\u000a    2.2362    2.0346    0.0000 C   0  0  0  0  0  0  0  0  0  0  0  0\u000a    2.2354    1.0346    0.0000 C   0  0  0  0  0  0  0  0  0  0  0  0\u000a  1  2  1  0\u000a  2  3  1  0\u000a  3  4  2  0\u000a  4  5  1  0\u000a  5  6  2  0\u000a  6  7  1  0\u000a  7  8  2  0\u000a  8  9  1  0\u000a  2 10  1  0\u000a 10 11  1  0\u000a 11 12  1  0\u000a 12 13  1  0\u000a 13 14  1  0\u000a 14 15  1  0\u000a  8  3  1  0\u000a 15 10  1  0\u000aM  CHG  1   1  -1\u000aM  END\u000a
p3395
sg306
VC12H16NO2-
p3396
sg2050
g2712
sg2051
(lp3397
I0
asg302
(lp3398
g2710
assg2715
(dp3399
g301
I4
sg309
g2047
sg304
V\u000a     RDKit          2D\u000a\u000a 15 16  0  0  0  0  0  0  0  0999 V2000\u000a    1.3666   -2.4648    0.0000 O   0  0  0  0  0  1  0  0  0  0  0  0\u000a    0.5010   -1.9640    0.0000 C   0  0  0  0  0  0  0  0  0  0  0  0\u000a   -0.3654   -2.4634    0.0000 C   0  0  0  0  0  0  0  0  0  0  0  0\u000a   -1.2310   -1.9628    0.0000 C   0  0  0  0  0  0  0  0  0  0  0  0\u000a   -1.2302   -0.9628    0.0000 C   0  0  0  0  0  0  0  0  0  0  0  0\u000a   -0.3638   -0.4634    0.0000 C   0  0  0  0  0  0  0  0  0  0  0  0\u000a    0.5018   -0.9640    0.0000 C   0  0  0  0  0  0  0  0  0  0  0  0\u000a    1.3682   -0.4648    0.0000 C   0  0  0  0  0  0  0  0  0  0  0  0\u000a    2.2338   -0.9654    0.0000 O   0  0  0  0  0  0  0  0  0  0  0  0\u000a    1.3690    0.5352    0.0000 N   0  0  0  0  0  0  0  0  0  0  0  0\u000a    0.5034    1.0360    0.0000 C   0  0  0  0  0  0  0  0  0  0  0  0\u000a    0.5042    2.0360    0.0000 C   0  0  0  0  0  0  0  0  0  0  0  0\u000a    1.3706    2.5352    0.0000 C   0  0  0  0  0  0  0  0  0  0  0  0\u000a    2.2362    2.0346    0.0000 C   0  0  0  0  0  0  0  0  0  0  0  0\u000a    2.2354    1.0346    0.0000 C   0  0  0  0  0  0  0  0  0  0  0  0\u000a  1  2  1  0\u000a  2  3  2  0\u000a  3  4  1  0\u000a  4  5  2  0\u000a  5  6  1  0\u000a  6  7  2  0\u000a  7  8  1  0\u000a  8  9  1  0\u000a  8 10  1  0\u000a 10 11  1  0\u000a 11 12  1  0\u000a 12 13  1  0\u000a 13 14  1  0\u000a 14 15  1  0\u000a  7  2  1  0\u000a 15 10  1  0\u000aM  CHG  1   1  -1\u000aM  END\u000a
p3400
sg306
g3396
sg2050
g2715
sg2051
(lp3401
I0
asg302
(lp3402
g2695
assg2713
(dp3403
g301
I4
sg309
g2047
sg304
V\u000a     RDKit          2D\u000a\u000a  9  9  0  0  0  0  0  0  0  0999 V2000\u000a    0.2438    2.1756    0.0000 O   0  0  0  0  0  0  0  0  0  0  0  0\u000a   -0.6232    1.6774    0.0000 C   0  0  0  0  0  0  0  0  0  0  0  0\u000a   -0.6252    0.6774    0.0000 C   0  0  0  0  0  0  0  0  0  0  0  0\u000a    0.2398    0.1756    0.0000 C   0  0  0  0  0  0  0  0  0  0  0  0\u000a    0.2378   -0.8244    0.0000 C   0  0  0  0  0  0  0  0  0  0  0  0\u000a   -0.6292   -1.3226    0.0000 C   0  0  0  0  0  0  0  0  0  0  0  0\u000a   -1.4942   -0.8208    0.0000 C   0  0  0  0  0  0  0  0  0  0  0  0\u000a   -1.4922    0.1790    0.0000 C   0  0  0  0  0  0  0  0  0  0  0  0\u000a   -2.3572    0.6808    0.0000 O   0  0  0  0  0  1  0  0  0  0  0  0\u000a  1  2  2  0\u000a  2  3  1  0\u000a  3  4  2  0\u000a  4  5  1  0\u000a  5  6  2  0\u000a  6  7  1  0\u000a  7  8  2  0\u000a  8  9  1  0\u000a  8  3  1  0\u000aM  CHG  1   9  -1\u000aM  END\u000a
p3404
sg306
VC7H5O2-
p3405
sg2050
g2713
sg2051
(lp3406
I0
asg302
(lp3407
g2695
asg316
(lp3408
(lp3409
g2715
aassg3255
(dp3410
g301
I5
sg309
g2047
sg304
V\u000a     RDKit          2D\u000a\u000a 15 16  0  0  0  0  0  0  0  0999 V2000\u000a    1.3666   -2.4648    0.0000 O   0  0  0  0  0  1  0  0  0  0  0  0\u000a    0.5010   -1.9640    0.0000 C   0  0  0  0  0  0  0  0  0  0  0  0\u000a   -0.3654   -2.4634    0.0000 C   0  0  0  0  0  0  0  0  0  0  0  0\u000a   -1.2310   -1.9628    0.0000 C   0  0  0  0  0  0  0  0  0  0  0  0\u000a   -1.2302   -0.9628    0.0000 C   0  0  0  0  0  0  0  0  0  0  0  0\u000a   -0.3638   -0.4634    0.0000 C   0  0  0  0  0  0  0  0  0  0  0  0\u000a    0.5018   -0.9640    0.0000 C   0  0  0  0  0  0  0  0  0  0  0  0\u000a    1.3682   -0.4648    0.0000 C   0  0  0  0  0  0  0  0  0  0  0  0\u000a    2.2338   -0.9654    0.0000 O   0  0  0  0  0  0  0  0  0  0  0  0\u000a    1.3690    0.5352    0.0000 N   0  0  0  0  0  4  0  0  0  0  0  0\u000a    0.5034    1.0360    0.0000 C   0  0  0  0  0  0  0  0  0  0  0  0\u000a    0.5042    2.0360    0.0000 C   0  0  0  0  0  0  0  0  0  0  0  0\u000a    1.3706    2.5352    0.0000 C   0  0  0  0  0  0  0  0  0  0  0  0\u000a    2.2362    2.0346    0.0000 C   0  0  0  0  0  0  0  0  0  0  0  0\u000a    2.2354    1.0346    0.0000 C   0  0  0  0  0  0  0  0  0  0  0  0\u000a  1  2  1  0\u000a  2  3  2  0\u000a  3  4  1  0\u000a  4  5  2  0\u000a  5  6  1  0\u000a  6  7  2  0\u000a  7  8  1  0\u000a  8  9  1  0\u000a  8 10  1  0\u000a 10 11  1  0\u000a 11 12  1  0\u000a 12 13  1  0\u000a 13 14  1  0\u000a 14 15  1  0\u000a  7  2  1  0\u000a 15 10  1  0\u000aM  CHG  2   1  -1  10   1\u000aM  END\u000a
p3411
sg306
g2049
sg2050
g3255
sg2051
(lp3412
I0
asg302
(lp3413
g2713
ag45
assg3264
(dp3414
g301
I3
sg309
g2047
sg304
V\u000a     RDKit          2D\u000a\u000a 15 16  0  0  0  0  0  0  0  0999 V2000\u000a    1.3666   -2.4648    0.0000 O   0  0  0  0  0  0  0  0  0  0  0  0\u000a    0.5010   -1.9640    0.0000 C   0  0  0  0  0  0  0  0  0  0  0  0\u000a   -0.3654   -2.4634    0.0000 C   0  0  0  0  0  0  0  0  0  0  0  0\u000a   -1.2310   -1.9628    0.0000 C   0  0  0  0  0  0  0  0  0  0  0  0\u000a   -1.2302   -0.9628    0.0000 C   0  0  0  0  0  0  0  0  0  0  0  0\u000a   -0.3638   -0.4634    0.0000 C   0  0  0  0  0  0  0  0  0  0  0  0\u000a    0.5018   -0.9640    0.0000 C   0  0  0  0  0  0  0  0  0  0  0  0\u000a    1.3682   -0.4648    0.0000 C   0  0  0  0  0  0  0  0  0  0  0  0\u000a    2.2338   -0.9654    0.0000 O   0  0  0  0  0  3  0  0  0  0  0  0\u000a    1.3690    0.5352    0.0000 N   0  0  0  0  0  0  0  0  0  0  0  0\u000a    0.5034    1.0360    0.0000 C   0  0  0  0  0  0  0  0  0  0  0  0\u000a    0.5042    2.0360    0.0000 C   0  0  0  0  0  0  0  0  0  0  0  0\u000a    1.3706    2.5352    0.0000 C   0  0  0  0  0  0  0  0  0  0  0  0\u000a    2.2362    2.0346    0.0000 C   0  0  0  0  0  0  0  0  0  0  0  0\u000a    2.2354    1.0346    0.0000 C   0  0  0  0  0  0  0  0  0  0  0  0\u000a  1  2  1  0\u000a  2  3  2  0\u000a  3  4  1  0\u000a  4  5  2  0\u000a  5  6  1  0\u000a  6  7  2  0\u000a  7  8  1  0\u000a  8  9  1  0\u000a  8 10  1  0\u000a 10 11  1  0\u000a 11 12  1  0\u000a 12 13  1  0\u000a 13 14  1  0\u000a 14 15  1  0\u000a  7  2  1  0\u000a 15 10  1  0\u000aM  CHG  1   9   1\u000aM  END\u000a
p3415
sg306
g3349
sg2050
g3264
sg2051
(lp3416
I0
asg302
(lp3417
g2710
asssg370
(dp3418
g3268
(dp3419
g373
g374
ssg3270
(dp3420
g373
g374
ssg3272
(dp3421
g373
g374
ssg3274
(dp3422
g373
g374
ssg3276
(dp3423
g373
g374
ssg3278
(dp3424
g373
g374
ss((g2683
tp3425
g2701
g2966
tp3426
(dp3427
g373
g374
ssg3279
(dp3428
g373
g385
ssg3287
(dp3429
g397
g385
ssg3286
(dp3430
g397
g385
ssg3288
(dp3431
g397
g374
ssg3289
(dp3432
g397
g385
ssg3291
(dp3433
g397
g385
ssg3293
(dp3434
g397
g374
ssg3295
(dp3435
g397
g374
ssg3296
(dp3436
g397
g374
ssg3297
(dp3437
g397
g374
ssg3298
(dp3438
g397
g374
ssg3299
(dp3439
g397
g385
ssg3301
(dp3440
g397
g385
ssg3303
(dp3441
g397
g385
ssg3305
(dp3442
g397
g385
ssg3308
(dp3443
g397
g385
ssg3312
(dp3444
g397
g374
ssg3315
(dp3445
g397
g374
sssg386
(dp3446
(g2691
g2711
VHydrolysis of boronic esters
p3447
tp3448
(lp3449
(dp3450
g392
g2711
sg393
g2691
sg23
g3447
sg394
g2737
sg27
VDCM, rt<BR> allow temp:rt, allow AB: SB.B.N.A.SA
p3451
sg33
g396
sg397
g374
sas(g81
g2711
g3447
tp3452
(lp3453
(dp3454
g392
g2711
sg393
g81
sg23
g3447
sg394
g2737
sg27
g3451
sg33
g396
sg397
g374
sas(g2691
g2693
g3447
tp3455
(lp3456
(dp3457
g392
g2693
sg393
g2691
sg23
g3447
sg394
g2737
sg27
g3451
sg33
g396
sg397
g374
sas(g81
g2693
g3447
tp3458
(lp3459
(dp3460
g392
g2693
sg393
g81
sg23
g3447
sg394
g2737
sg27
g3451
sg33
g396
sg397
g374
sas(g2687
g2691
VAddition of boronates to iminium cations
p3461
tp3462
(lp3463
(dp3464
g392
g2691
sg393
g2687
sg23
g3461
sg394
VCC(C)(C)c1ccc([B-](O)(O)Oc2ccccc2C=[N+]2CCCCC2)cc1>>CC(C)(C)c1ccc(C(c2ccccc2OB(O)O)N2CCCCC2)cc1.
p3465
sg27
VDCM, rt<BR> allow temp:rt, allow AB: N.WB.B.SB
p3466
sg33
g396
sg397
g374
sas(g2695
g2687
VAddition of alcohol/phenol to boronic acids
p3467
tp3468
(lp3469
(dp3470
g392
g2687
sg393
g2695
sg23
g3467
sg394
V[O-]c1ccccc1C=[N+]1CCCCC1.CC(C)(C)c1ccc(B(O)O)cc1>>CC(C)(C)c1ccc([B-](O)(O)Oc2ccccc2C=[N+]2CCCCC2)cc1.
p3471
sg27
g3466
sg33
g396
sg397
g374
sas(g2699
g2687
g3467
tp3472
(lp3473
(dp3474
g392
g2687
sg393
g2699
sg23
g3467
sg394
g3471
sg27
g3466
sg33
g396
sg397
g374
sas(g2689
g2709
VPhenol deprotonation
p3475
tp3476
(lp3477
(dp3478
g392
g2709
sg393
g2689
sg23
g3475
sg394
VOc1ccccc1C=[N+]1CCCCC1>>[O-]c1ccccc1C=[N+]1CCCCC1.OC([O-])=O.[K+].[K+]
p3479
sg27
VK2CO3<BR> allow temp:L.rt.H, allow AB: WB.B.SB
p3480
sg33
g427
sg397
g374
sas(g2689
g2716
g3475
tp3481
(lp3482
(dp3483
g392
g2716
sg393
g2689
sg23
g3475
sg394
g3479
sg27
g3480
sg33
g427
sg397
g374
sas(g2689
g2695
g3475
tp3484
(lp3485
(dp3486
g392
g2695
sg393
g2689
sg23
g3475
sg394
g3479
sg27
g3480
sg33
g427
sg397
g374
sas(g2697
g81
VIminium cation formation
p3487
tp3488
(lp3489
(dp3490
g392
g81
sg393
g2697
sg23
g3487
sg394
g2803
sg27
VAcOH, EtOH<BR> allow temp:RT.H, allow AB: WA.N.WB.LA
p3491
sg33
g34
sg397
g385
sas(g2697
g2689
g3487
tp3492
(lp3493
(dp3494
g392
g2689
sg393
g2697
sg23
g3487
sg394
g2803
sg27
g3491
sg33
g34
sg397
g374
sas(g2683
g2697
VAddition of secondary amine to aldehyde
p3495
tp3496
(lp3497
(dp3498
g392
g2697
sg393
g2683
sg23
g3495
sg394
VO=Cc1ccccc1O.C1CCNCC1>>Oc1ccccc1C(O)[NH+]1CCCCC1.
p3499
sg27
g3491
sg33
g34
sg397
g374
sas(g45
g2697
g3495
tp3500
(lp3501
(dp3502
g392
g2697
sg393
g45
sg23
g3495
sg394
g3499
sg27
g3491
sg33
g34
sg397
g374
sas(g2683
g2701
g2663
tp3503
(lp3504
(dp3505
g392
g2701
sg393
g2683
sg23
g2663
sg27
g2665
sg33
g34
sg397
g374
sas(g2697
g2683
g2672
tp3506
(lp3507
(dp3508
g392
g2683
sg393
g2697
sg23
g2672
sg27
g2674
sg33
g51
sg397
g385
sas(g2710
g2689
g3487
tp3509
(lp3510
(dp3511
g393
g2710
sg392
g2689
sg397
g385
sg394
g2950
sg23
g3487
sg27
VNEt3;;;solvent
p3512
sg33
g34
sas(g2710
g81
g3487
tp3513
(lp3514
(dp3515
g393
g2710
sg392
g81
sg397
g385
sg394
g2950
sg23
g3487
sg27
g3512
sg33
g34
sas(g2695
g2689
Vcondition changes
p3516
tp3517
(lp3518
(dp3519
g393
g2695
sg392
g2689
sg397
g385
sg394
g2939
sg23
g3516
sg27
g32
sg33
g2175
sas(g2697
g2710
g3516
tp3520
(lp3521
(dp3522
g393
g2697
sg392
g2710
sg397
g374
sg394
g2882
sg23
g3516
sg27
g32
sg33
g2175
sas(g2689
g2710
VHydrolysis of iminium cations
p3523
tp3524
(lp3525
(dp3526
g393
g2689
sg392
g2710
sg397
g385
sg394
g2924
sg23
g3523
sg27
g2183
sg33
g51
sas(g81
g2710
g3523
tp3527
(lp3528
(dp3529
g393
g81
sg392
g2710
sg397
g385
sg23
g3523
sg27
g2183
sg33
g51
sg394
g2924
sas(g2715
g2710
g3516
tp3530
(lp3531
(dp3532
g393
g2715
sg392
g2710
sg397
g385
sg394
g2976
sg23
g3516
sg27
g32
sg33
g2175
sas(g2716
g2714
g3516
tp3533
(lp3534
(dp3535
g393
g2716
sg392
g2714
sg397
g374
sg394
g3002
sg23
g3516
sg27
g32
sg33
g2175
sas(g2693
g2685
g3475
tp3536
(lp3537
(dp3538
g393
g2693
sg392
g2685
sg397
g374
sg394
g3016
sg23
g3475
sg27
g2196
sg33
g427
sas(g2710
g2712
VSeconadry alcohol deprotonation
p3539
tp3540
(lp3541
(dp3542
g393
g2710
sg392
g2712
sg397
g374
sg394
g3032
sg23
g3539
sg27
VNaOH;;;NaH
p3543
sg33
g2202
sas(g2695
g2715
g3523
tp3544
(lp3545
(dp3546
g393
g2695
sg392
g2715
sg397
g374
sg394
g2990
sg23
g3523
sg27
g2183
sg33
g51
sas(g81
g2715
g3523
tp3547
(lp3548
(dp3549
g393
g81
sg392
g2715
sg397
g374
sg23
g3523
sg27
g2183
sg33
g51
sg394
g2990
sas(g2695
g2713
g3523
tp3550
(lp3551
(dp3552
g393
g2695
sg392
g2713
sg397
g374
sg394
g2908
sg23
g3523
sg27
g2183
sg33
g51
sas(g81
g2713
g3523
tp3553
(lp3554
(dp3555
g393
g81
sg392
g2713
sg397
g374
sg23
g3523
sg27
g2183
sg33
g51
sg394
g2908
sas(g2695
g45
g3523
tp3556
(lp3557
(dp3558
g393
g2695
sg392
g45
sg397
g385
sg394
g2908
sg23
g3523
sg27
g2183
sg33
g51
sas(g81
g45
g3523
tp3559
(lp3560
(dp3561
g393
g81
sg392
g45
sg397
g385
sg23
g3523
sg27
g2183
sg33
g51
sg394
g2908
sas(g2715
g2695
g3487
tp3562
(lp3563
(dp3564
g393
g2715
sg392
g2695
sg397
g385
sg394
g3048
sg23
g3487
sg27
g3512
sg33
g34
sas(g2715
g81
g3487
tp3565
(lp3566
(dp3567
g393
g2715
sg392
g81
sg397
g385
sg394
g3048
sg23
g3487
sg27
g3512
sg33
g34
sas(g2685
g2693
g3516
tp3568
(lp3569
(dp3570
g393
g2685
sg392
g2693
sg397
g385
sg394
g3064
sg23
g3516
sg27
g32
sg33
g2175
sas(g2712
g2710
g3516
tp3571
(lp3572
(dp3573
g393
g2712
sg392
g2710
sg397
g385
sg394
g3075
sg23
g3516
sg27
g32
sg33
g2175
sas(g3255
g2710
g3516
tp3574
(lp3575
(dp3576
g393
g3255
sg392
g2710
sg397
g385
sg394
g3086
sg23
g3516
sg27
g32
sg33
g2175
sas(g2714
g2716
VCarboxylic acid/Carbonate/Carbamate deprotonation
p3577
tp3578
(lp3579
(dp3580
g393
g2714
sg392
g2716
sg397
g385
sg23
g3577
sg394
g3113
sg27
g2196
sg33
g427
sas(g2715
g2713
g2672
tp3581
(lp3582
(dp3583
g393
g2715
sg392
g2713
sg397
g385
sg394
g3128
sg23
g2672
sg27
g2183
sg33
g51
sas(g2715
g45
g2672
tp3584
(lp3585
(dp3586
g393
g2715
sg392
g45
sg397
g385
sg394
g3128
sg23
g2672
sg27
g2183
sg33
g51
sas(g2713
g3255
g3495
tp3587
(lp3588
(dp3589
g393
g2713
sg392
g3255
sg397
g374
sg394
g3100
sg23
g3495
sg27
VAcOH.EtOH
p3590
sg33
g34
sas(g45
g3255
g3495
tp3591
(lp3592
(dp3593
g393
g45
sg392
g3255
sg397
g374
sg394
g3100
sg23
g3495
sg27
g3590
sg33
g34
sas(g2710
g3264
VSecondary alcohol protonation
p3594
tp3595
(lp3596
(dp3597
g393
g2710
sg392
g3264
sg397
g374
sg394
g3171
sg23
g3594
sg27
VH2SO4
p3598
sg33
g396
sassg456
g2693
sg457
(dp3599
I1
(dp3600
g14
g2720
sg91
(dp3601
g93
F0.0
sg94
I0
sg95
I0
sg96
(lp3602
g87
asg98
(lp3603
((lp3604
g2728
ag2729
a(lp3605
g2733
atp3606
asg21
g2735
sg109
I-2
ssg16
(lp3607
g87
asg36
g2737
sg37
I00
sg38
I00
sg55
F-8.77229999999986
sg56
I00
ssI2
(dp3608
g14
g2738
sg91
(dp3609
g93
F0.0
sg94
I0
sg95
I0
sg96
(lp3610
g126
asg98
(lp3611
((lp3612
g2746
a(lp3613
g2749
atp3614
asg21
g2751
sg109
I-2
ssg16
(lp3615
g126
asg36
g2738
sg37
I00
sg38
I00
sg55
F-75.65669000000003
sg56
I00
ssI3
(dp3616
g14
g2753
sg91
(dp3617
g93
F0.0
sg94
I0
sg95
I0
sg96
(lp3618
g147
asg98
(lp3619
((lp3620
g2761
ag2762
a(lp3621
g2765
atp3622
asg21
g2767
sg109
I-2
ssg16
(lp3623
g147
asg36
g2769
sg37
I00
sg38
I00
sg55
F-35.27230999999995
sg56
I00
ssI4
(dp3624
g14
g2770
sg91
(dp3625
g93
F0.0
sg94
I0
sg95
I0
sg96
(lp3626
g170
asg98
(lp3627
((lp3628
g2778
a(lp3629
g2781
atp3630
asg21
g2783
sg109
I-2
ssg16
(lp3631
g170
asg36
g2770
sg37
I00
sg38
(lp3632
g193
a(dp3633
g195
g2689
sg197
g2778
sg198
g2695
sg200
g2780
sg201
g2695
sasg55
F36.94552
sg56
I00
ssI5
(dp3634
g14
g2787
sg91
(dp3635
g93
F0.0
sg94
I0
sg95
I0
sg96
(lp3636
g203
asg98
(lp3637
((lp3638
g2795
a(lp3639
g2799
atp3640
asg21
g2801
sg109
I-2
ssg16
(lp3641
g203
asg36
g2803
sg37
I00
sg38
I00
sg55
F-47.96627999999998
sg56
I00
ssI6
(dp3642
g14
g2804
sg91
(dp3643
g93
F0.0
sg94
I0
sg95
I0
sg96
(lp3644
g226
asg98
(lp3645
((lp3646
g2812
ag2813
a(lp3647
g2816
atp3648
asg21
g2818
sg109
I-2
ssg16
(lp3649
g226
asg36
g2820
sg37
I00
sg38
I00
sg248
F4.290000000000001
sg55
F17.045050000000003
sg56
I00
ssI8
(dp3650
g14
g2668
sg16
(lp3651
g43
asg19
(lp3652
g45
asg21
g2671
sg23
g2672
sg25
g2673
sg27
g2674
sg29
g50
sg31
g32
sg33
g51
sg35
(lp3653
g2676
asg36
g2677
sg37
I00
sg38
I00
sg55
F-17.045050000000003
sg56
I00
ssI10
(dp3654
g14
g2849
sg91
(dp3655
g93
F0.0
sg94
I0
sg95
I0
sg96
(lp3656
g1705
asg98
(lp3657
((lp3658
g2778
ag2857
a(lp3659
g2861
atp3660
asg21
g2863
sg109
I-2
ssg16
(lp3661
g1705
asg36
g2865
sg37
I00
sg38
I00
sg248
F-3.5599999999999996
sg55
F30.92122999999998
sg56
I00
ssI11
(dp3662
g14
g2866
sg91
(dp3663
g93
F0.0
sg94
I0
sg95
I0
sg96
(lp3664
g43
asg98
(lp3665
((lp3666
g2873
a(lp3667
g2877
atp3668
asg21
g2879
sg109
I-2
ssg16
(lp3669
g43
asg36
g2881
sg37
I00
sg38
I00
sg55
F71.80849
sg56
I00
ssI15
(dp3670
g14
g2882
sg91
(dp3671
g93
I0
sg94
I0
sg95
I0
sg96
(lp3672
Nasg98
(lp3673
(lp3674
g2816
a(lp3675
g2891
aaasg21
g2892
sg109
I-2
ssg16
(lp3676
I1
asg36
g2882
sg37
I00
sg38
I00
sg55
F-88.85354000000001
sg56
I00
ssI12
(dp3677
g14
g2894
sg91
(dp3678
g93
I0
sg94
I0
sg95
I0
sg96
(lp3679
Nasg98
(lp3680
(lp3681
g2902
a(lp3682
g2905
aaasg21
g2906
sg109
I-2
ssg16
(lp3683
I1
asg36
g2894
sg37
I00
sg38
I00
sg55
F-150.36639
sg56
I00
ssI22
(dp3684
g14
g2908
sg91
(dp3685
g93
F0.0
sg94
I0
sg95
I0
sg96
(lp3686
g1705
asg98
(lp3687
((lp3688
g2762
ag2915
a(lp3689
g2919
atp3690
asg21
g2921
sg109
I-2
ssg16
(lp3691
g1705
asg36
g2923
sg37
I00
sg38
I00
sg248
F-3.5599999999999996
sg55
F144.3421
sg56
I00
ssI16
(dp3692
g14
g2924
sg91
(dp3693
g93
F0.0
sg94
I0
sg95
I0
sg96
(lp3694
g1777
asg98
(lp3695
((lp3696
g2778
ag2857
a(lp3697
g2934
atp3698
asg21
g2936
sg109
I-2
ssg16
(lp3699
g1777
asg36
g2938
sg37
I00
sg38
I00
sg248
F-3.5599999999999996
sg55
F-40.887260000000026
sg56
I00
ssI13
(dp3700
g14
g2939
sg91
(dp3701
g93
I0
sg94
I0
sg95
I0
sg96
(lp3702
Nasg98
(lp3703
(lp3704
g2781
a(lp3705
g2947
aaasg21
g2948
sg109
I-2
ssg16
(lp3706
I1
asg36
g2939
sg37
I00
sg38
I00
sg55
F-36.94552
sg56
I00
ssI14
(dp3707
g14
g2950
sg91
(dp3708
g93
F0.0
sg94
I0
sg95
I0
sg96
(lp3709
g1804
asg98
(lp3710
((lp3711
g2873
a(lp3712
g2961
atp3713
asg21
g2963
sg109
I-2
ssg16
(lp3714
g1804
asg36
g2965
sg37
I00
sg38
I00
sg55
F40.887260000000026
sg56
I00
ssI17
(dp3715
g14
g2976
sg91
(dp3716
g93
I0
sg94
I0
sg95
I0
sg96
(lp3717
Nasg98
(lp3718
(lp3719
g2984
a(lp3720
g2987
aaasg21
g2988
sg109
I-2
ssg16
(lp3721
I1
asg36
g2976
sg37
I00
sg38
I00
sg55
F-143.7638
sg56
I00
ssI21
(dp3722
g14
g2990
sg91
(dp3723
g93
F0.0
sg94
I0
sg95
I0
sg96
(lp3724
g1777
asg98
(lp3725
((lp3726
g2762
ag2915
a(lp3727
g2984
atp3728
asg21
g2999
sg109
I-2
ssg16
(lp3729
g1777
asg36
g3001
sg37
I00
sg38
I00
sg248
F-3.5599999999999996
sg55
F65.93101999999999
sg56
I00
ssI18
(dp3730
g14
g3002
sg91
(dp3731
g93
I0
sg94
I0
sg95
I0
sg96
(lp3732
Nasg98
(lp3733
(lp3734
g3010
a(lp3735
g3013
aaasg21
g3014
sg109
I-2
ssg16
(lp3736
I1
asg36
g3002
sg37
I00
sg38
I00
sg55
F-251.69010000000003
sg56
I00
ssI19
(dp3737
g14
g3016
sg91
(dp3738
g93
F0.0
sg94
I0
sg95
I0
sg96
(lp3739
g170
asg98
(lp3740
((lp3741
g3023
a(lp3742
g3026
atp3743
asg21
g3028
sg109
I-2
ssg16
(lp3744
g170
asg36
g3016
sg37
I00
sg38
(lp3745
g193
a(dp3746
g195
g2693
sg197
g3023
sg198
g2685
sg200
g3025
sg201
g2685
sasg55
F107.4007
sg56
I01
ssI20
(dp3747
g14
g3032
sg91
(dp3748
g93
F0.0
sg94
I0
sg95
I0
sg96
(lp3749
g1884
asg98
(lp3750
((lp3751
g2873
a(lp3752
g3042
atp3753
asg21
g3044
sg109
I-2
ssg16
(lp3754
g1884
asg36
g3032
sg37
I00
sg38
(lp3755
g193
a(dp3756
g195
g2710
sg197
g2873
sg198
g2712
sg200
g3041
sg201
g2712
sasg55
F254.86135000000002
sg56
I00
ssI23
(dp3757
g14
g3048
sg91
(dp3758
g93
F0.0
sg94
I0
sg95
I0
sg96
(lp3759
g1804
asg98
(lp3760
((lp3761
g3055
a(lp3762
g3059
atp3763
asg21
g3061
sg109
I-2
ssg16
(lp3764
g1804
asg36
g3063
sg37
I00
sg38
I00
sg55
F-65.93101999999999
sg56
I00
ssI24
(dp3765
g14
g3064
sg91
(dp3766
g93
I0
sg94
I0
sg95
I0
sg96
(lp3767
Nasg98
(lp3768
(lp3769
g3026
a(lp3770
g3072
aaasg21
g3073
sg109
I-2
ssg16
(lp3771
I1
asg36
g3064
sg37
I00
sg38
I00
sg55
F-107.4007
sg56
I01
ssI25
(dp3772
g14
g3075
sg91
(dp3773
g93
I0
sg94
I0
sg95
I0
sg96
(lp3774
Nasg98
(lp3775
(lp3776
g3042
a(lp3777
g3083
aaasg21
g3084
sg109
I-2
ssg16
(lp3778
I1
asg36
g3075
sg37
I00
sg38
I00
sg55
F-254.86135000000002
sg56
I00
ssI26
(dp3779
g14
g3086
sg91
(dp3780
g93
I0
sg94
I0
sg95
I0
sg96
(lp3781
Nasg98
(lp3782
(lp3783
g3094
a(lp3784
g3097
aaasg21
g3098
sg109
I-2
ssg16
(lp3785
I1
asg36
g3086
sg37
I00
sg38
I00
sg55
F-52.56782000000004
sg56
I00
ssI30
(dp3786
g14
g3100
sg91
(dp3787
g93
F0.0
sg94
I0
sg95
I0
sg96
(lp3788
g226
asg98
(lp3789
((lp3790
g2812
ag3107
a(lp3791
g3094
atp3792
asg21
g3110
sg109
I-2
ssg16
(lp3793
g226
asg36
g3112
sg37
I00
sg38
I00
sg248
F4.290000000000001
sg55
F-169.60705999999996
sg56
I00
ssI27
(dp3794
g14
g3113
sg91
(dp3795
g93
F0.0
sg94
I0
sg95
I0
sg96
(lp3796
g3114
asg98
(lp3797
((lp3798
g3012
a(lp3799
g3010
atp3800
asg21
g3124
sg109
I-2
ssg16
(lp3801
g3114
asg36
g3113
sg37
I00
sg38
(lp3802
g193
a(dp3803
g195
g2714
sg197
g3012
sg198
g2716
sg200
g3009
sg201
g2716
sasg55
F251.69010000000003
sg56
I00
ssI28
(dp3804
g14
g3128
sg91
(dp3805
g93
F0.0
sg94
I0
sg95
I0
sg96
(lp3806
g43
asg98
(lp3807
((lp3808
g3055
a(lp3809
g3137
atp3810
asg21
g3139
sg109
I-2
ssg16
(lp3811
g43
asg36
g3141
sg37
I00
sg38
I00
sg55
F78.41108
sg56
I00
ssI29
(dp3812
g14
g3142
sg91
(dp3813
g93
F0.0
sg94
I0
sg95
I0
sg96
(lp3814
g147
asg98
(lp3815
((lp3816
g2761
ag3149
a(lp3817
g3152
atp3818
asg21
g3154
sg109
I-2
ssg16
(lp3819
g147
asg36
g3156
sg37
I00
sg38
I00
sg55
F-124.53840000000002
sg56
I01
ssI31
(dp3820
g14
g3157
sg91
(dp3821
g93
F0.0
sg94
I0
sg95
I0
sg96
(lp3822
g147
asg98
(lp3823
((lp3824
g2761
ag3107
a(lp3825
g3166
atp3826
asg21
g3168
sg109
I-2
ssg16
(lp3827
g147
asg36
g3170
sg37
I00
sg38
I00
sg55
F-48.41521999999998
sg56
I00
ssI32
(dp3828
g14
g3171
sg91
(dp3829
g93
F0.0
sg94
I0
sg95
I0
sg96
(lp3830
g3172
asg98
(lp3831
((lp3832
g2873
a(lp3833
g3182
atp3834
asg21
g3184
sg109
I-2
ssg16
(lp3835
g3172
asg36
g3171
sg37
I00
sg38
I00
sg55
F0.1
sg56
I00
ssg555
(dp3836
g14
VCC(C)(C)c1ccc([B-](O)(O)Oc2ccccc2C=[N+]2CCCCC2)cc1>>[O-]c1ccccc1C=[N+]1CCCCC1.CC(C)(C)c1ccc(B(O)O)cc1
p3837
sg91
(dp3838
g93
F0.0
sg94
I0
sg95
I0
sg96
(lp3839
g147
asg98
(lp3840
((lp3841
g2761
ag2762
a(lp3842
g2765
atp3843
asg21
g2767
sg109
I-2
ssg16
(lp3844
g147
asg36
VCC(C)(C)c1ccc([B-](O)(O)Oc2ccccc2C=[N+]2CCCCC2)cc1>>CC(C)(C)c1ccc(B(O)O)cc1.[O-]c1ccccc1C=[N+]1CCCCC1
p3845
sg37
I00
sg38
I00
sg573
Vhand-made reverse rx
p3846
sg55
F35.27230999999995
sg56
I00
ssg575
(dp3847
g14
VOc1ccccc1C=[N+]1CCCCC1>>Oc1ccccc1C(O)[NH+]1CCCCC1
p3848
sg91
(dp3849
g93
F0.0
sg94
I0
sg95
I0
sg96
(lp3850
g203
asg98
(lp3851
((lp3852
g2795
a(lp3853
g2799
atp3854
asg21
g2801
sg109
I-2
ssg16
(lp3855
g203
asg36
VOc1ccccc1C=[N+]1CCCCC1.O>>Oc1ccccc1C(O)[NH+]1CCCCC1
p3856
sg37
I00
sg38
I00
sg573
g3846
sg55
F47.96627999999998
sg56
I00
ssV30_REV
p3857
(dp3858
g14
V[O-]c1ccccc1C(O)[NH+]1CCCCC1>>O=Cc1ccccc1[O-].C1CCNCC1
p3859
sg91
(dp3860
g93
F0.0
sg94
I0
sg95
I0
sg96
(lp3861
g226
asg98
(lp3862
((lp3863
g2812
ag3107
a(lp3864
g3094
atp3865
asg21
g3110
sg109
I-2
ssg16
(lp3866
g226
asg36
V[O-]c1ccccc1C(O)[NH+]1CCCCC1>>C1CCNCC1.O=Cc1ccccc1[O-]
p3867
sg37
I00
sg38
I00
sg573
g3846
sg55
F169.60705999999996
sg56
I00
ssV29_REV
p3868
(dp3869
g14
VCC(C)(C)c1ccc(C(c2ccccc2O[B-](O)(O)c2ccc(C(C)(C)C)cc2)N2CCCCC2)cc1>>CC(C)(C)c1ccc(C(c2ccccc2[O-])N2CCCCC2)cc1.CC(C)(C)c1ccc(B(O)O)cc1
p3870
sg91
(dp3871
g93
F0.0
sg94
I0
sg95
I0
sg96
(lp3872
g147
asg98
(lp3873
((lp3874
g2761
ag3149
a(lp3875
g3152
atp3876
asg21
g3154
sg109
I-2
ssg16
(lp3877
g147
asg36
VCC(C)(C)c1ccc(C(c2ccccc2O[B-](O)(O)c2ccc(C(C)(C)C)cc2)N2CCCCC2)cc1>>CC(C)(C)c1ccc(B(O)O)cc1.CC(C)(C)c1ccc(C(c2ccccc2[O-])N2CCCCC2)cc1
p3878
sg37
I00
sg38
I00
sg573
g3846
sg55
F124.53840000000002
sg56
I00
ssV31_REV
p3879
(dp3880
g14
VCC(C)(C)c1ccc([B-](O)(O)Oc2ccccc2C=O)cc1>>O=Cc1ccccc1[O-].CC(C)(C)c1ccc(B(O)O)cc1
p3881
sg91
(dp3882
g93
F0.0
sg94
I0
sg95
I0
sg96
(lp3883
g147
asg98
(lp3884
((lp3885
g2761
ag3107
a(lp3886
g3166
atp3887
asg21
g3168
sg109
I-2
ssg16
(lp3888
g147
asg36
VCC(C)(C)c1ccc([B-](O)(O)Oc2ccccc2C=O)cc1>>CC(C)(C)c1ccc(B(O)O)cc1.O=Cc1ccccc1[O-]
p3889
sg37
I00
sg38
I00
sg573
g3846
sg55
F48.41521999999998
sg56
I00
sssg593
(dp3890
g595
g67
((lp3891
g2713
ag2695
ag2712
ag2715
ag2685
ag3264
ag3255
ag2697
ag2716
ag2701
atp3892
Rp3893
ssg599
(dp3894
g601
(dp3895
sg603
(dp3896
g2691
g67
((lp3897
I16
aI1
aI21
aI22
aI10
atp3898
Rp3899
sssg608
g67
((lp3900
g2685
atp3901
Rp3902
ssg1257
g1258
(g1259
g1260
Ntp3903
Rp3904
(dp3905
g1264
g1265
sg1266
g1265
sg1267
g1265
sg1268
g1265
sg1269
g1265
sg1270
g1265
sg249
(dp3906
sg1272
(dp3907
I1
(dp3908
sVCC(C)(C)c1ccc(C(c2ccccc2O)N2CCCCC2)cc1
p3909
(dp3910
sVOB(O)O
p3911
(dp3912
sVCC(C)(C)c1ccc(C(c2ccccc2OB(O)O)N2CCCCC2)cc1
p3913
(dp3914
sI19
(dp3915
sI2
(dp3916
sVCC(C)(C)c1ccc([B-](O)(O)Oc2ccccc2C=[N+]2CCCCC2)cc1
p3917
(dp3918
sI3
(dp3919
sV[O-]c1ccccc1C=[N+]1CCCCC1
p3920
(dp3921
sI13
(dp3922
sI21
(dp3923
sI22
(dp3924
sVCC(C)(C)c1ccc(B(O)O)cc1
p3925
(dp3926
sI29
(dp3927
sI31
(dp3928
sI4
(dp3929
sV[K+]
p3930
(dp3931
sVO=C([O-])O
p3932
(dp3933
sVOc1ccccc1C=[N+]1CCCCC1
p3934
(dp3935
sI10
(dp3936
sI16
(dp3937
sI5
(dp3938
sg81
(dp3939
sVOc1ccccc1C(O)[NH+]1CCCCC1
p3940
(dp3941
sI8
(dp3942
sI15
(dp3943
sI6
(dp3944
sVO=Cc1ccccc1O
p3945
(dp3946
sVC1CCNCC1
p3947
(dp3948
sI30
(dp3949
sI18
(dp3950
sI11
(dp3951
sVOc1ccccc1C(O)N1CCCCC1
p3952
(dp3953
sI14
(dp3954
sI20
(dp3955
sI32
(dp3956
sI12
(dp3957
sVO=Cc1ccccc1[O-]
p3958
(dp3959
sI17
(dp3960
sV[O-]c1ccccc1C(O)N1CCCCC1
p3961
(dp3962
sI23
(dp3963
sI28
(dp3964
sVO=C(O)O
p3965
(dp3966
sI27
(dp3967
sVCC(C)(C)c1ccc(C(c2ccccc2[O-])N2CCCCC2)cc1
p3968
(dp3969
sI24
(dp3970
sV[O-]C(c1ccccc1O)N1CCCCC1
p3971
(dp3972
sI25
(dp3973
sI26
(dp3974
sV[O-]c1ccccc1C(O)[NH+]1CCCCC1
p3975
(dp3976
sVCC(C)(C)c1ccc(C(c2ccccc2O[B-](O)(O)c2ccc(C(C)(C)C)cc2)N2CCCCC2)cc1
p3977
(dp3978
sVCC(C)(C)c1ccc([B-](O)(O)Oc2ccccc2C=O)cc1
p3979
(dp3980
sVOc1ccccc1C([OH2+])N1CCCCC1
p3981
(dp3982
sV3_REV
p3983
(dp3984
sV5_REV
p3985
(dp3986
sV30_REV
p3987
(dp3988
sV29_REV
p3989
(dp3990
sV31_REV
p3991
(dp3992
ssg1316
(dp3993
I1
(dp3994
g3909
(dp3995
sg3911
(dp3996
ssg3909
(dp3997
I19
(dp3998
ssg3911
(dp3999
sg3913
(dp4000
I1
(dp4001
ssI19
(dp4002
g3968
(dp4003
ssI2
(dp4004
VCC(C)(C)c1ccc(C(c2ccccc2OB(O)O)N2CCCCC2)cc1
p4005
(dp4006
ssg3917
(dp4007
I2
(dp4008
sg3983
(dp4009
ssI3
(dp4010
VCC(C)(C)c1ccc([B-](O)(O)Oc2ccccc2C=[N+]2CCCCC2)cc1
p4011
(dp4012
ssg3920
(dp4013
I3
(dp4014
sI13
(dp4015
sI21
(dp4016
sI22
(dp4017
ssI13
(dp4018
VOc1ccccc1C=[N+]1CCCCC1
p4019
(dp4020
ssI21
(dp4021
V[O-]c1ccccc1C(O)N1CCCCC1
p4022
(dp4023
ssI22
(dp4024
VO=Cc1ccccc1[O-]
p4025
(dp4026
sVC1CCNCC1
p4027
(dp4028
ssg3925
(dp4029
I3
(dp4030
sI29
(dp4031
sI31
(dp4032
ssI29
(dp4033
g3977
(dp4034
ssI31
(dp4035
g3979
(dp4036
ssI4
(dp4037
V[O-]c1ccccc1C=[N+]1CCCCC1
p4038
(dp4039
sg3930
(dp4040
sg3932
(dp4041
ssg3930
(dp4042
sg3932
(dp4043
I18
(dp4044
ssg3934
(dp4045
I4
(dp4046
sI10
(dp4047
sI16
(dp4048
sg3985
(dp4049
ssI10
(dp4050
VO=Cc1ccccc1O
p4051
(dp4052
sVC1CCNCC1
p4053
(dp4054
ssI16
(dp4055
VOc1ccccc1C(O)N1CCCCC1
p4056
(dp4057
ssI5
(dp4058
VOc1ccccc1C=[N+]1CCCCC1
p4059
(dp4060
sg81
(dp4061
ssg81
(dp4062
I1
(dp4063
sg3985
(dp4064
sI10
(dp4065
sI22
(dp4066
sI16
(dp4067
sI21
(dp4068
ssg3940
(dp4069
I5
(dp4070
sI8
(dp4071
sI15
(dp4072
ssI8
(dp4073
VO=Cc1ccccc1O
p4074
(dp4075
sVC1CCNCC1
p4076
(dp4077
ssI15
(dp4078
g4056
(dp4079
ssI6
(dp4080
VOc1ccccc1C(O)[NH+]1CCCCC1
p4081
(dp4082
ssg3945
(dp4083
I6
(dp4084
ssg3947
(dp4085
I6
(dp4086
sI30
(dp4087
ssI30
(dp4088
V[O-]c1ccccc1C(O)[NH+]1CCCCC1
p4089
(dp4090
ssI18
(dp4091
g3965
(dp4092
ssI11
(dp4093
g4051
(dp4094
sVC1CCNCC1
p4095
(dp4096
ssg3952
(dp4097
I11
(dp4098
sI14
(dp4099
sI20
(dp4100
sI32
(dp4101
ssI14
(dp4102
g4019
(dp4103
sg81
(dp4104
ssI20
(dp4105
g3971
(dp4106
ssI32
(dp4107
g3981
(dp4108
ssI12
(dp4109
g4051
(dp4110
ssg3958
(dp4111
I12
(dp4112
sI30
(dp4113
sI31
(dp4114
ssI17
(dp4115
g4056
(dp4116
ssg3961
(dp4117
I17
(dp4118
sI23
(dp4119
sI28
(dp4120
ssI23
(dp4121
V[O-]c1ccccc1C=[N+]1CCCCC1
p4122
(dp4123
sg81
(dp4124
ssI28
(dp4125
VO=Cc1ccccc1[O-]
p4126
(dp4127
sVC1CCNCC1
p4128
(dp4129
ssg3965
(dp4130
I27
(dp4131
ssI27
(dp4132
VO=C([O-])O
p4133
(dp4134
ssg3968
(dp4135
I24
(dp4136
sI29
(dp4137
ssI24
(dp4138
VCC(C)(C)c1ccc(C(c2ccccc2O)N2CCCCC2)cc1
p4139
(dp4140
ssg3971
(dp4141
I25
(dp4142
ssI25
(dp4143
VOc1ccccc1C(O)N1CCCCC1
p4144
(dp4145
ssI26
(dp4146
g4144
(dp4147
ssg3975
(dp4148
I26
(dp4149
sg3987
(dp4150
ssg3977
(dp4151
g3989
(dp4152
ssg3979
(dp4153
g3991
(dp4154
ssg3981
(dp4155
sg3983
(dp4156
VCC(C)(C)c1ccc(B(O)O)cc1
p4157
(dp4158
sV[O-]c1ccccc1C=[N+]1CCCCC1
p4159
(dp4160
ssg3985
(dp4161
VOc1ccccc1C(O)[NH+]1CCCCC1
p4162
(dp4163
ssg3987
(dp4164
VC1CCNCC1
p4165
(dp4166
sVO=Cc1ccccc1[O-]
p4167
(dp4168
ssg3989
(dp4169
VCC(C)(C)c1ccc(B(O)O)cc1
p4170
(dp4171
sVCC(C)(C)c1ccc(C(c2ccccc2[O-])N2CCCCC2)cc1
p4172
(dp4173
ssg3991
(dp4174
VCC(C)(C)c1ccc(B(O)O)cc1
p4175
(dp4176
sVO=Cc1ccccc1[O-]
p4177
(dp4178
sssg1352
(dp4179
I1
(dp4180
g3913
g4001
sg81
g4063
ssg3909
(dp4181
I1
g3995
sI24
g4140
ssg3911
(dp4182
I1
g3996
ssg3913
(dp4183
I2
g4006
ssI19
(dp4184
g3909
g3998
ssI2
(dp4185
g3917
g4008
ssg3917
(dp4186
I3
g4012
ssI3
(dp4187
g3920
g4014
sg3925
g4030
ssg3920
(dp4188
I4
g4039
sI23
g4123
sg3983
g4160
ssI13
(dp4189
g3920
g4015
ssI21
(dp4190
g3920
g4016
sg81
g4068
ssI22
(dp4191
g3920
g4017
sg81
g4066
ssg3925
(dp4192
g3983
g4158
sg3989
g4171
sg3991
g4176
ssI29
(dp4193
g3925
g4031
sg3968
g4137
ssI31
(dp4194
g3925
g4032
sg3958
g4114
ssI4
(dp4195
g3934
g4046
ssg3930
(dp4196
I4
g4040
ssg3932
(dp4197
I4
g4041
sI27
g4134
ssg3934
(dp4198
I5
g4060
sI13
g4020
sI14
g4103
ssI10
(dp4199
g3934
g4047
sg81
g4065
ssI16
(dp4200
g3934
g4048
sg81
g4067
ssI5
(dp4201
g3940
g4070
ssg81
(dp4202
I5
g4061
sI14
g4104
sI23
g4124
ssg3940
(dp4203
I6
g4082
sg3985
g4163
ssI8
(dp4204
g3940
g4071
ssI15
(dp4205
g3940
g4072
ssI6
(dp4206
g3945
g4084
sg3947
g4086
ssg3945
(dp4207
I8
g4075
sI10
g4052
sI11
g4094
sI12
g4110
ssg3947
(dp4208
I22
g4028
sI8
g4077
sI10
g4054
sI11
g4096
sg3987
g4166
sI28
g4129
ssI30
(dp4209
g3947
g4087
sg3958
g4113
ssI18
(dp4210
g3932
g4044
ssI11
(dp4211
g3952
g4098
ssg3952
(dp4212
I15
g4079
sI16
g4057
sI17
g4116
sI25
g4145
sI26
g4147
ssI14
(dp4213
g3952
g4099
ssI20
(dp4214
g3952
g4100
ssI32
(dp4215
g3952
g4101
ssI12
(dp4216
g3958
g4112
ssg3958
(dp4217
I22
g4026
sI28
g4127
sg3987
g4168
sg3991
g4178
ssI17
(dp4218
g3961
g4118
ssg3961
(dp4219
I21
g4023
ssI23
(dp4220
g3961
g4119
ssI28
(dp4221
g3961
g4120
ssg3965
(dp4222
I18
g4092
ssI27
(dp4223
g3965
g4131
ssg3968
(dp4224
I19
g4003
sg3989
g4173
ssI24
(dp4225
g3968
g4136
ssg3971
(dp4226
I20
g4106
ssI25
(dp4227
g3971
g4142
ssI26
(dp4228
g3975
g4149
ssg3975
(dp4229
I30
g4090
ssg3977
(dp4230
I29
g4034
ssg3979
(dp4231
I31
g4036
ssg3981
(dp4232
I32
g4108
ssg3983
(dp4233
VCC(C)(C)c1ccc([B-](O)(O)Oc2ccccc2C=[N+]2CCCCC2)cc1
p4234
g4009
ssg3985
(dp4235
VOc1ccccc1C=[N+]1CCCCC1
p4236
g4049
sg81
g4064
ssg3987
(dp4237
V[O-]c1ccccc1C(O)[NH+]1CCCCC1
p4238
g4150
ssg3989
(dp4239
VCC(C)(C)c1ccc(C(c2ccccc2O[B-](O)(O)c2ccc(C(C)(C)C)cc2)N2CCCCC2)cc1
p4240
g4152
ssg3991
(dp4241
VCC(C)(C)c1ccc([B-](O)(O)Oc2ccccc2C=O)cc1
p4242
g4154
sssg1371
g3993
sg1372
g1258
(g1373
g1260
Ntp4243
Rp4244
(dp4245
g1377
g3907
sbsbsssVinitC
p4246
(dp4247
VC1CCNCC1
p4248
I100
sVO=Cc1ccccc1O
p4249
I100
sg81
I100
sVCC(C)(C)c1ccc(B(O)O)cc1
p4250
I100
ss.