(dp0
Vdata
p1
(dp2
I0
(dp3
Vdata
p4
(dp5
Vcompeting
p6
(dp7
Vmed
p8
(lp9
sVmech
p10
(lp11
(lp12
a(lp13
a(lp14
a(lp15
a(lp16
a(lp17
a(lp18
(dp19
Vsmiles
p20
VCCCCC12C(=O)C3C4CCC(C4)C3C1[Co]2(C#[O+])(C#[O+])(C#[O+])[Co](C#[O+])(C#[O+])C#[O+]>>CCCCC12C(O)=C3C4CCC(C4)C3C1[Co]2(C#[O+])(C#[O+])(C#[O+])[Co](C#[O+])(C#[O+])C#[O+]
p21
sVrxid
p22
(lp23
Vrx354
p24
asVsideProducts
p25
(lp26
sVmappedRx
p27
V[C:1]1(=[O:2])[CH:10]2[CH:9]([CH:14]3[CH2:13][CH2:12][CH:11]2[CH2:15]3)[CH:1003]2[C:1004]1([CH2:1005][CH2:1006][CH2:1007][CH3:1008])[Co:1018]2([C:1019]#[O+:1020])([C:1021]#[O+:1022])([C:1023]#[O+:1024])[Co:1027]([C:1001]#[O+:1002])([C:1030]#[O+:1031])[C:1032]#[O+:1033]>>[C:1]1([OH:2])=[C:10]2[CH:9]([CH:14]3[CH2:13][CH2:12][CH:11]2[CH2:15]3)[CH:1003]2[C:1004]1([CH2:1005][CH2:1006][CH2:1007][CH3:1008])[Co:1018]2([C:1019]#[O+:1020])([C:1021]#[O+:1022])([C:1023]#[O+:1024])[Co:1027]([C:1001]#[O+:1002])([C:1030]#[O+:1031])[C:1032]#[O+:1033]
p28
sVdescription
p29
V(thio)Keto-enol tautomerisation
p30
sVreference
p31
V
p32
sVconditions
p33
V<BR> allow temp:rt.H, allow AB: B.WB.N.WA.A.SA.LA
p34
sVspeed
p35
VNA
p36
sValterConditions
p37
g32
sVsolvent
p38
VEtOH
p39
sValterSolvent
p40
g32
sVfullRxSmiles
p41
g21
sVisShortcut
p42
I00
sVisDeprot
p43
I00
sVDE
p44
F943.91768
sVisSideFromTarget
p45
I00
saassg33
(dp46
Vtemperatures
p47
(lp48
Vhigh
p49
asg33
c__builtin__
set
p50
((lp51
VN
p52
atp53
Rp54
sVfixed
p55
g50
((lp56
tp57
Rp58
ssVrxToFullDict
p59
(dp60
(VCCCCC12C(=O)C3C4CCC(C4)C3C1[Co]2(C#[O+])(C#[O+])(C#[O+])[Co](C#[O+])(C#[O+])C#[O+]>>CCCCC1=CC2C3CCC(C3)C2C1=O
p61
(Vrx23
p62
tp63
tp64
(dp65
g20
g61
sVadditionalInfo
p66
(dp67
VdG
p68
F0.0
sVdH
p69
I0
sVdS
p70
I0
sVdoneRx
p71
(lp72
g62
asVallRxes
p73
(lp74
(lp75
(lp76
V[C:1]1(=[O:2])[CH:10]2[CH:9]([CH:14]3[CH2:13][CH2:12][CH:11]2[CH2:15]3)[CH:1003]2[C:1004]1([CH2:1005][CH2:1006][CH2:1007][CH3:1008])[Co:1018]2([C:1019]#[O+:1020])([C:1021]#[O+:1022])([C:1023]#[O+:1024])[Co:1027]([C:1001]#[O+:1002])([C:1030]#[O+:1031])[C:1032]#[O+:1033]
p77
aa(lp78
(lp79
V[C:1]1(=[O:2])[CH:10]2[CH:9]([CH:14]3[CH2:13][CH2:12][CH:11]2[CH2:15]3)[CH:1003]=[C:1004]1[CH2:1005][CH2:1006][CH2:1007][CH3:1008]
p80
aV[C:1001](#[O+:1002])[Co:1027]([Co:1018]([C:1019]#[O+:1020])([C:1021]#[O+:1022])[C:1023]#[O+:1024])([C:1030]#[O+:1031])[C:1032]#[O+:1033]
p81
aaaasg27
V[C:1]1(=[O:2])[CH:10]2[CH:9]([CH:14]3[CH2:13][CH2:12][CH:11]2[CH2:15]3)[CH:1003]2[C:1004]1([CH2:1005][CH2:1006][CH2:1007][CH3:1008])[Co:1018]2([C:1019]#[O+:1020])([C:1021]#[O+:1022])([C:1023]#[O+:1024])[Co:1027]([C:1001]#[O+:1002])([C:1030]#[O+:1031])[C:1032]#[O+:1033]>>[C:1]1(=[O:2])[CH:10]2[CH:9]([CH:14]3[CH2:13][CH2:12][CH:11]2[CH2:15]3)[CH:1003]=[C:1004]1[CH2:1005][CH2:1006][CH2:1007][CH3:1008].[C:1001](#[O+:1002])[Co:1027]([Co:1018]([C:1019]#[O+:1020])([C:1021]#[O+:1022])[C:1023]#[O+:1024])([C:1030]#[O+:1031])[C:1032]#[O+:1033]
p82
sVincoInfo
p83
I-2
ssg22
(lp84
g62
asVidnum
p85
I0
sVprev
p86
(lp87
I1
aI2
aI3
aI4
aI5
aI6
asVbyproducts
p88
(dp89
Vreactants
p90
(lp91
V[O+]#C[Co](C#[O+])(C#[O+])[Co](C#[O+])(C#[O+])C#[O+]
p92
asVadditives
p93
(lp94
(lp95
g32
aassVdirectPrev
p96
(lp97
I1
asg41
VCCCCC12C(=O)C3C4CCC(C4)C3C1[Co]2(C#[O+])(C#[O+])(C#[O+])[Co](C#[O+])(C#[O+])C#[O+]>>CCCCC1=CC2C3CCC(C3)C2C1=O.[O+]#C[Co](C#[O+])(C#[O+])[Co](C#[O+])(C#[O+])C#[O+]
p98
sg42
I00
sg43
I00
sg44
F-142.7742800000001
sg45
I00
ss(VCCCCC12C3C4C5CCC(C5)C4C(=O)[Co]1(C#[O+])(C#[O+])(C#[O+])[Co]32(C#[O+])(C#[O+])C#[O+]>>CCCCC12C(=O)C3C4CCC(C4)C3C1[Co]2(C#[O+])(C#[O+])(C#[O+])[Co](C#[O+])(C#[O+])C#[O+]
p99
(Vrx400
p100
tp101
tp102
(dp103
g20
g99
sg66
(dp104
g68
F0.0
sg69
I0
sg70
I0
sg71
(lp105
g100
asg73
(lp106
(lp107
(lp108
V[C:1]1(=[O:2])[CH:10]2[CH:9]([CH:14]3[CH2:13][CH2:12][CH:11]2[CH2:15]3)[CH:1003]2[C:1004]3([CH2:1005][CH2:1006][CH2:1007][CH3:1008])[Co:1018]2([C:1019]#[O+:1020])([C:1021]#[O+:1022])([C:1023]#[O+:1024])[Co:1027]13([C:1001]#[O+:1002])([C:1030]#[O+:1031])[C:1032]#[O+:1033]
p109
aa(lp110
(lp111
g77
aaaasg27
V[C:1]1(=[O:2])[CH:10]2[CH:9]([CH:14]3[CH2:13][CH2:12][CH:11]2[CH2:15]3)[CH:1003]2[C:1004]3([CH2:1005][CH2:1006][CH2:1007][CH3:1008])[Co:1018]2([C:1019]#[O+:1020])([C:1021]#[O+:1022])([C:1023]#[O+:1024])[Co:1027]13([C:1001]#[O+:1002])([C:1030]#[O+:1031])[C:1032]#[O+:1033]>>[C:1]1(=[O:2])[CH:10]2[CH:9]([CH:14]3[CH2:13][CH2:12][CH:11]2[CH2:15]3)[CH:1003]2[C:1004]1([CH2:1005][CH2:1006][CH2:1007][CH3:1008])[Co:1018]2([C:1019]#[O+:1020])([C:1021]#[O+:1022])([C:1023]#[O+:1024])[Co:1027]([C:1001]#[O+:1002])([C:1030]#[O+:1031])[C:1032]#[O+:1033]
p112
sg83
I-2
ssg22
(lp113
g100
asg85
I1
sg86
(lp114
I2
aI3
aI4
aI5
aI6
asg88
(dp115
g90
(lp116
sg93
(lp117
(lp118
g32
aassg96
(lp119
I2
asg41
g99
sg42
I00
sg43
I00
sVboostRing
p120
I1
sg44
F-972.5798900000001
sg45
I00
ss(VCCCCC12C3C4C5CCC(C5)C4[Co]1(C#[O+])(C#[O+])(C#[O+])[Co]32(C#[O+])(C#[O+])C#[O+].[C-]#[O+]>>CCCCC12C3C4C5CCC(C5)C4C(=O)[Co]1(C#[O+])(C#[O+])(C#[O+])[Co]32(C#[O+])(C#[O+])C#[O+]
p121
(Vrx283
p122
tp123
tp124
(dp125
g20
g121
sg66
(dp126
g68
F0.0
sg69
I0
sg70
I0
sg71
(lp127
g122
asg73
(lp128
(lp129
(lp130
V[C:1](#[O+:2])[Co:1027]12([C:1030]#[O+:1031])([C:1032]#[O+:1033])[CH:10]3[CH:9]([CH:14]4[CH2:13][CH2:12][CH:11]3[CH2:15]4)[CH:1003]3[C:1004]1([CH2:1005][CH2:1006][CH2:1007][CH3:1008])[Co:1018]32([C:1019]#[O+:1020])([C:1021]#[O+:1022])[C:1023]#[O+:1024]
p131
aV[C-:1001]#[O+:1002]
p132
aa(lp133
(lp134
g109
aaaasg27
V[C:1](#[O+:2])[Co:1027]12([C:1030]#[O+:1031])([C:1032]#[O+:1033])[CH:10]3[CH:9]([CH:14]4[CH2:13][CH2:12][CH:11]3[CH2:15]4)[CH:1003]3[C:1004]1([CH2:1005][CH2:1006][CH2:1007][CH3:1008])[Co:1018]32([C:1019]#[O+:1020])([C:1021]#[O+:1022])[C:1023]#[O+:1024].[C-:1001]#[O+:1002]>>[C:1]1(=[O:2])[CH:10]2[CH:9]([CH:14]3[CH2:13][CH2:12][CH:11]2[CH2:15]3)[CH:1003]2[C:1004]3([CH2:1005][CH2:1006][CH2:1007][CH3:1008])[Co:1018]2([C:1019]#[O+:1020])([C:1021]#[O+:1022])([C:1023]#[O+:1024])[Co:1027]13([C:1001]#[O+:1002])([C:1030]#[O+:1031])[C:1032]#[O+:1033]
p135
sg83
I-2
ssg22
(lp136
g122
asg85
I2
sg86
(lp137
I3
aI4
aI5
aI6
asg88
(dp138
g90
(lp139
sg93
(lp140
(lp141
g32
aassg96
(lp142
I3
asg41
g121
sg42
I00
sg43
I00
sg120
I1
sg44
F90.56015
sg45
I00
ss(VCCCCC12C3[Co]1(C#[O+])(C#[O+])(C#[O+])[Co]321(C#[O+])(C#[O+])C2C3CCC(C3)C21.[C-]#[O+]>>CCCCC12C3C4C5CCC(C5)C4[Co]1(C#[O+])(C#[O+])(C#[O+])[Co]32(C#[O+])(C#[O+])C#[O+]
p143
(Vrx177
p144
tp145
tp146
(dp147
g20
g143
sg66
(dp148
g68
F0.0
sg69
I0
sg70
I0
sg71
(lp149
g144
asg73
(lp150
(lp151
(lp152
V[CH:9]12[CH:10]([CH:11]3[CH2:12][CH2:13][CH:14]1[CH2:15]3)[Co:1027]213([C:1030]#[O+:1031])([C:1032]#[O+:1033])[CH:1003]2[C:1004]1([CH2:1005][CH2:1006][CH2:1007][CH3:1008])[Co:1018]23([C:1019]#[O+:1020])([C:1021]#[O+:1022])[C:1023]#[O+:1024]
p153
aV[C-:1]#[O+:2]
p154
aa(lp155
(lp156
g131
aaaasg27
V[CH:9]12[CH:10]([CH:11]3[CH2:12][CH2:13][CH:14]1[CH2:15]3)[Co:1027]213([C:1030]#[O+:1031])([C:1032]#[O+:1033])[CH:1003]2[C:1004]1([CH2:1005][CH2:1006][CH2:1007][CH3:1008])[Co:1018]23([C:1019]#[O+:1020])([C:1021]#[O+:1022])[C:1023]#[O+:1024].[C-:1]#[O+:2]>>[C:1](#[O+:2])[Co:1027]12([C:1030]#[O+:1031])([C:1032]#[O+:1033])[CH:10]3[CH:9]([CH:14]4[CH2:13][CH2:12][CH:11]3[CH2:15]4)[CH:1003]3[C:1004]1([CH2:1005][CH2:1006][CH2:1007][CH3:1008])[Co:1018]32([C:1019]#[O+:1020])([C:1021]#[O+:1022])[C:1023]#[O+:1024]
p157
sg83
I-2
ssg22
(lp158
g144
asg85
I3
sg86
(lp159
I4
aI5
aI6
asg88
(dp160
g90
(lp161
sg93
(lp162
(lp163
g32
aassg96
(lp164
I4
asg41
g143
sg42
I00
sg43
I00
sg120
I1
sg44
F407.86871
sg45
I00
ss(VCCCCC12C3[Co]1(C#[O+])(C#[O+])[Co]32(C#[O+])(C#[O+])C#[O+].C1=CC2CCC1C2>>CCCCC12C3[Co]1(C#[O+])(C#[O+])(C#[O+])[Co]321(C#[O+])(C#[O+])C2C3CCC(C3)C21
p165
(Vrx483
p166
tp167
tp168
(dp169
g20
g165
sg66
(dp170
g68
F0.0
sg69
I0
sg70
I0
sg71
(lp171
g166
asg73
(lp172
(lp173
(lp174
V[CH:3]12[C:4]3([CH2:5][CH2:6][CH2:7][CH3:8])[Co:18]1([C:19]#[O+:20])([C:21]#[O+:22])([C:23]#[O+:24])[Co:27]23([C:30]#[O+:31])[C:32]#[O+:33]
p175
aV[CH:9]1=[CH:10][CH:11]2[CH2:12][CH2:13][CH:14]1[CH2:15]2
p176
aa(lp177
(lp178
V[CH:3]12[C:4]3([CH2:5][CH2:6][CH2:7][CH3:8])[Co:18]1([C:19]#[O+:20])([C:21]#[O+:22])([C:23]#[O+:24])[Co:27]231([C:30]#[O+:31])([C:32]#[O+:33])[CH:9]2[CH:10]1[CH:11]1[CH2:12][CH2:13][CH:14]2[CH2:15]1
p179
aaaasg27
V[CH:3]12[C:4]3([CH2:5][CH2:6][CH2:7][CH3:8])[Co:18]1([C:19]#[O+:20])([C:21]#[O+:22])([C:23]#[O+:24])[Co:27]231([C:30]#[O+:31])([C:32]#[O+:33])[CH:9]2[CH:10]1[CH:11]1[CH2:12][CH2:13][CH:14]2[CH2:15]1>>[CH:3]12[C:4]3([CH2:5][CH2:6][CH2:7][CH3:8])[Co:18]1([C:19]#[O+:20])([C:21]#[O+:22])([C:23]#[O+:24])[Co:27]23([C:30]#[O+:31])[C:32]#[O+:33].[CH:9]1=[CH:10][CH:11]2[CH2:12][CH2:13][CH:14]1[CH2:15]2
p180
sg83
I-2
ssg22
(lp181
g166
asg85
I4
sg86
(lp182
I5
aI6
asg88
(dp183
g90
(lp184
sg93
(lp185
(lp186
g32
aassg96
(lp187
I5
asg41
g165
sg42
I00
sg43
I00
sg44
F-1656.81741
sg45
I00
ss(VCCCCC12C3[Co]1(C#[O+])(C#[O+])(C#[O+])[Co]32(C#[O+])(C#[O+])C#[O+]>>CCCCC12C3[Co]1(C#[O+])(C#[O+])[Co]32(C#[O+])(C#[O+])C#[O+]
p188
(Vrx430
p189
tp190
tp191
(dp192
g20
g188
sg66
(dp193
g68
F0.0
sg69
I0
sg70
I0
sg71
(lp194
g189
asg73
(lp195
(lp196
(lp197
V[CH:3]12[C:4]3([CH2:5][CH2:6][CH2:7][CH3:8])[Co:18]1([C:19]#[O+:20])([C:21]#[O+:22])([C:23]#[O+:24])[Co:27]23([C:28]#[O+:29])([C:30]#[O+:31])[C:32]#[O+:33]
p198
aa(lp199
(lp200
g175
aV[C-:28]#[O+:29]
p201
aaaasg27
V[CH:3]12[C:4]3([CH2:5][CH2:6][CH2:7][CH3:8])[Co:18]1([C:19]#[O+:20])([C:21]#[O+:22])([C:23]#[O+:24])[Co:27]23([C:30]#[O+:31])[C:32]#[O+:33].[C-:28]#[O+:29]>>[CH:3]12[C:4]3([CH2:5][CH2:6][CH2:7][CH3:8])[Co:18]1([C:19]#[O+:20])([C:21]#[O+:22])([C:23]#[O+:24])[Co:27]23([C:28]#[O+:29])([C:30]#[O+:31])[C:32]#[O+:33]
p202
sg83
I-2
ssg22
(lp203
g189
asg85
I5
sg86
(lp204
I6
asg88
(dp205
g90
(lp206
V[C-]#[O+]
p207
asg93
(lp208
(lp209
g32
aassg96
(lp210
I6
asg41
VCCCCC12C3[Co]1(C#[O+])(C#[O+])(C#[O+])[Co]32(C#[O+])(C#[O+])C#[O+]>>CCCCC12C3[Co]1(C#[O+])(C#[O+])[Co]32(C#[O+])(C#[O+])C#[O+].[C-]#[O+]
p211
sg42
I00
sg43
I00
sg44
F1680.28287
sg45
I00
ss(VO=C1[Co]2(C#[O+])(C#[O+])(C#[O+])C(=O)[Co]12(C#[O+])(C#[O+])C#[O+].C#CCCCC>>CCCCC12C3[Co]1(C#[O+])(C#[O+])(C#[O+])[Co]32(C#[O+])(C#[O+])C#[O+]
p212
(Vrx33
p213
tp214
tp215
(dp216
g20
g212
sg66
(dp217
g68
F0.0
sg69
I0
sg70
I0
sg71
(lp218
g213
asg73
(lp219
(lp220
(lp221
V[CH:3]#[C:4][CH2:5][CH2:6][CH2:7][CH3:8]
p222
aV[O:16]=[C:17]1[Co:18]2([C:19]#[O+:20])([C:21]#[O+:22])([C:23]#[O+:24])[C:25](=[O:26])[Co:27]12([C:28]#[O+:29])([C:30]#[O+:31])[C:32]#[O+:33]
p223
aa(lp224
(lp225
g198
aV[C-:25]#[O+:26]
p226
aV[O+:16]#[C-:17]
p227
aaaasg27
V[CH:3]12[C:4]3([CH2:5][CH2:6][CH2:7][CH3:8])[Co:18]1([C:19]#[O+:20])([C:21]#[O+:22])([C:23]#[O+:24])[Co:27]23([C:28]#[O+:29])([C:30]#[O+:31])[C:32]#[O+:33].[C-:25]#[O+:26].[O+:16]#[C-:17]>>[CH:3]#[C:4][CH2:5][CH2:6][CH2:7][CH3:8].[O:16]=[C:17]1[Co:18]2([C:19]#[O+:20])([C:21]#[O+:22])([C:23]#[O+:24])[C:25](=[O:26])[Co:27]12([C:28]#[O+:29])([C:30]#[O+:31])[C:32]#[O+:33]
p228
sg83
I-2
ssg22
(lp229
g213
asg85
I6
sg86
(lp230
sg88
(dp231
g90
(lp232
g207
asg93
(lp233
(lp234
g32
aassg96
(lp235
sg41
VC#CCCCC.O=C1[Co]2(C#[O+])(C#[O+])(C#[O+])C(=O)[Co]12(C#[O+])(C#[O+])C#[O+]>>CCCCC12C3[Co]1(C#[O+])(C#[O+])(C#[O+])[Co]32(C#[O+])(C#[O+])C#[O+].[C-]#[O+].[C-]#[O+]
p236
sg42
I00
sg43
I00
sg44
F0.1
sg45
I00
sssVgraph
p237
(lp238
(I1
VCCCCC1=CC2C3CCC(C3)C2C1=O
p239
tp240
a(I1
g92
tp241
a(VCCCCC12C(=O)C3C4CCC(C4)C3C1[Co]2(C#[O+])(C#[O+])(C#[O+])[Co](C#[O+])(C#[O+])C#[O+]
p242
I1
tp243
a(g242
I8
tp244
a(I2
g242
tp245
a(VCCCCC12C3C4C5CCC(C5)C4C(=O)[Co]1(C#[O+])(C#[O+])(C#[O+])[Co]32(C#[O+])(C#[O+])C#[O+]
p246
I2
tp247
a(I3
g246
tp248
a(VCCCCC12C3C4C5CCC(C5)C4[Co]1(C#[O+])(C#[O+])(C#[O+])[Co]32(C#[O+])(C#[O+])C#[O+]
p249
I3
tp250
a(g207
I3
tp251
a(g207
I4
tp252
a(I4
g249
tp253
a(VCCCCC12C3[Co]1(C#[O+])(C#[O+])(C#[O+])[Co]321(C#[O+])(C#[O+])C2C3CCC(C3)C21
p254
I4
tp255
a(I5
g254
tp256
a(VCCCCC12C3[Co]1(C#[O+])(C#[O+])[Co]32(C#[O+])(C#[O+])C#[O+]
p257
I5
tp258
a(VC1=CC2CCC1C2
p259
I5
tp260
a(I6
g257
tp261
a(I6
g207
tp262
a(VCCCCC12C3[Co]1(C#[O+])(C#[O+])(C#[O+])[Co]32(C#[O+])(C#[O+])C#[O+]
p263
I6
tp264
a(I7
g263
tp265
a(I7
g207
tp266
a(VO=C1[Co]2(C#[O+])(C#[O+])(C#[O+])C(=O)[Co]12(C#[O+])(C#[O+])C#[O+]
p267
I7
tp268
a(VC#CCCCC
p269
I7
tp270
a(I8
VCCCCC12C(O)=C3C4CCC(C4)C3C1[Co]2(C#[O+])(C#[O+])(C#[O+])[Co](C#[O+])(C#[O+])C#[O+]
p271
tp272
asVrxtupleToId
p273
(dp274
((g242
tp275
g239
g63
tp276
I1
s((g246
tp277
g242
g101
tp278
I2
s((g249
g207
tp279
g246
g123
tp280
I3
s((g254
g207
tp281
g249
g145
tp282
I4
s((g259
g257
tp283
g254
g167
tp284
I5
s((g263
tp285
g257
g190
tp286
I6
s((g269
g267
tp287
g263
g214
tp288
I7
s(g275
g271
(g24
tp289
tp290
I8
ssVallSmiles
p291
(dp292
g207
(dp293
Vgeneration
p294
I0
sVparents
p295
(lp296
g267
ag269
asVmol
p297
V\u000a     RDKit          2D\u000a\u000a  2  1  0  0  0  0  0  0  0  0999 V2000\u000a   -1.0000    0.0000    0.0000 C   0  0  0  0  0  3  0  0  0  0  0  0\u000a    0.0000    0.0000    0.0000 O   0  0  0  0  0  3  0  0  0  0  0  0\u000a  1  2  3  0\u000aM  CHG  2   1  -1   2   1\u000aM  END\u000a
p298
sVformula
p299
VCO
p300
sVnoisoSmles
p301
g207
sVnodeType
p302
VbyprodNormal
p303
sValterConnections
p304
(lp305
(lp306
g263
aassg269
(dp307
g294
I0
sg295
(lp308
sg297
V\u000a     RDKit          2D\u000a\u000a  6  5  0  0  0  0  0  0  0  0999 V2000\u000a   -2.5822    1.0146    0.0000 C   0  0  0  0  0  0  0  0  0  0  0  0\u000a   -1.7158    0.5152    0.0000 C   0  0  0  0  0  0  0  0  0  0  0  0\u000a   -0.8494    0.0160    0.0000 C   0  0  0  0  0  0  0  0  0  0  0  0\u000a    0.0162    0.5166    0.0000 C   0  0  0  0  0  0  0  0  0  0  0  0\u000a    0.8826    0.0174    0.0000 C   0  0  0  0  0  0  0  0  0  0  0  0\u000a    1.7482    0.5180    0.0000 C   0  0  0  0  0  0  0  0  0  0  0  0\u000a  1  2  3  0\u000a  2  3  1  0\u000a  3  4  1  0\u000a  4  5  1  0\u000a  5  6  1  0\u000aM  END\u000a
p309
sg299
VC6H10
p310
sg301
g269
sg302
Vnormal
p311
ssg259
(dp312
g294
I0
sg295
(lp313
sg297
V\u000a     RDKit          2D\u000a\u000a  7  8  0  0  0  0  0  0  0  0999 V2000\u000a   -0.7782    0.8310    0.0000 C   0  0  0  0  0  0  0  0  0  0  0  0\u000a   -0.7772   -0.2032    0.0000 C   0  0  0  0  0  0  0  0  0  0  0  0\u000a    0.2080   -0.3358    0.0000 C   0  0  0  0  0  0  0  0  0  0  0  0\u000a    1.1632   -0.4244    0.0000 C   0  0  0  0  0  0  0  0  0  0  0  0\u000a    1.1618    1.0558    0.0000 C   0  0  0  0  0  0  0  0  0  0  0  0\u000a    0.2068    0.9654    0.0000 C   0  0  0  0  0  0  0  0  0  0  0  0\u000a    0.4168    0.3150    0.0000 C   0  0  0  0  0  0  0  0  0  0  0  0\u000a  1  2  2  0\u000a  2  3  1  0\u000a  3  4  1  0\u000a  4  5  1  0\u000a  5  6  1  0\u000a  6  7  1  0\u000a  6  1  1  0\u000a  7  3  1  0\u000aM  END\u000a
p314
sg299
VC7H10
p315
sg301
g259
sg302
g311
ssg267
(dp316
g294
I0
sg295
(lp317
sg297
V\u000a     RDKit          2D\u000a\u000a 18 19  0  0  0  0  0  0  0  0999 V2000\u000a   -2.3660    0.0006    0.0000 O   0  0  0  0  0  0  0  0  0  0  0  0\u000a   -1.3660    0.0006    0.0000 C   0  0  0  0  0  0  0  0  0  0  0  0\u000a   -0.5004   -0.5000    0.0000 Co  0  0  0  0  0  6  0  0  0  0  0  0\u000a   -1.3668   -0.9994    0.0000 C   0  0  0  0  0  0  0  0  0  0  0  0\u000a   -2.2332   -1.4988    0.0000 O   0  0  0  0  0  3  0  0  0  0  0  0\u000a   -0.5012   -1.5000    0.0000 C   0  0  0  0  0  0  0  0  0  0  0  0\u000a   -0.5020   -2.5000    0.0000 O   0  0  0  0  0  3  0  0  0  0  0  0\u000a    0.3652   -1.0006    0.0000 C   0  0  0  0  0  0  0  0  0  0  0  0\u000a    1.2309   -1.5012    0.0000 O   0  0  0  0  0  3  0  0  0  0  0  0\u000a    0.3660   -0.0006    0.0000 C   0  0  0  0  0  0  0  0  0  0  0  0\u000a    1.3660   -0.0006    0.0000 O   0  0  0  0  0  0  0  0  0  0  0  0\u000a   -0.4996    0.5000    0.0000 Co  0  0  0  0  0  6  0  0  0  0  0  0\u000a    0.3668    0.9994    0.0000 C   0  0  0  0  0  0  0  0  0  0  0  0\u000a    1.2332    1.4988    0.0000 O   0  0  0  0  0  3  0  0  0  0  0  0\u000a   -0.4988    1.5000    0.0000 C   0  0  0  0  0  0  0  0  0  0  0  0\u000a   -0.4980    2.5000    0.0000 O   0  0  0  0  0  3  0  0  0  0  0  0\u000a   -1.3652    1.0006    0.0000 C   0  0  0  0  0  0  0  0  0  0  0  0\u000a   -2.2309    1.5012    0.0000 O   0  0  0  0  0  3  0  0  0  0  0  0\u000a  1  2  2  0\u000a  2  3  1  0\u000a  3  4  1  0\u000a  4  5  3  0\u000a  3  6  1  0\u000a  6  7  3  0\u000a  3  8  1  0\u000a  8  9  3  0\u000a  3 10  1  0\u000a 10 11  2  0\u000a 10 12  1  0\u000a 12 13  1  0\u000a 13 14  3  0\u000a 12 15  1  0\u000a 15 16  3  0\u000a 12 17  1  0\u000a 17 18  3  0\u000a 12  2  1  0\u000a 12  3  1  0\u000aM  CHG  6   5   1   7   1   9   1  14   1  16   1  18   1\u000aM  END\u000a
p318
sg299
VC8Co2O8+6
p319
sg301
g267
sg302
g311
ssg239
(dp320
g294
I7
sg295
(lp321
g242
asg297
V\u000a     RDKit          2D\u000a\u000a 15 17  0  0  0  0  0  0  0  0999 V2000\u000a   -3.0622   -2.7302    0.0000 C   0  0  0  0  0  0  0  0  0  0  0  0\u000a   -2.6058   -1.8402    0.0000 C   0  0  0  0  0  0  0  0  0  0  0  0\u000a   -1.6106   -1.7956    0.0000 C   0  0  0  0  0  0  0  0  0  0  0  0\u000a   -1.1416   -0.9122    0.0000 C   0  0  0  0  0  0  0  0  0  0  0  0\u000a   -0.1370   -0.8964    0.0000 C   0  0  0  0  0  0  0  0  0  0  0  0\u000a    0.5234   -1.8620    0.0000 C   0  0  0  0  0  0  0  0  0  0  0  0\u000a    1.4230   -1.5636    0.0000 C   0  0  0  0  0  0  0  0  0  0  0  0\u000a    2.3840   -1.5002    0.0000 C   0  0  0  0  0  0  0  0  0  0  0  0\u000a    3.3622   -1.3868    0.0000 C   0  0  0  0  0  0  0  0  0  0  0  0\u000a    3.3586   -0.3826    0.0000 C   0  0  0  0  0  0  0  0  0  0  0  0\u000a    2.3824   -0.2772    0.0000 C   0  0  0  0  0  0  0  0  0  0  0  0\u000a    2.1944   -0.8922    0.0000 C   0  0  0  0  0  0  0  0  0  0  0  0\u000a    1.4184   -0.2200    0.0000 C   0  0  0  0  0  0  0  0  0  0  0  0\u000a    0.5162    0.0728    0.0000 C   0  0  0  0  0  0  0  0  0  0  0  0\u000a    0.1922    1.0082    0.0000 O   0  0  0  0  0  0  0  0  0  0  0  0\u000a  1  2  1  0\u000a  2  3  1  0\u000a  3  4  1  0\u000a  4  5  1  0\u000a  5  6  2  0\u000a  6  7  1  0\u000a  7  8  1  0\u000a  8  9  1  0\u000a  9 10  1  0\u000a 10 11  1  0\u000a 11 12  1  0\u000a 11 13  1  0\u000a 13 14  1  0\u000a 14 15  2  0\u000a 14  5  1  0\u000a 13  7  1  0\u000a 12  8  1  0\u000aM  END\u000a
p322
sg299
VC14H20O
p323
sVnoisoSmiles
p324
g239
sg302
g311
ssg242
(dp325
g294
I6
sg295
(lp326
g246
asg297
V\u000a     RDKit          2D\u000a\u000a 29 32  0  0  0  0  0  0  0  0999 V2000\u000a    0.8513   -1.8417    0.0000 C   0  0  0  0  0  0  0  0  0  0  0  0\u000a    1.6784   -1.2793    0.0000 C   0  0  0  0  0  0  0  0  0  0  0  0\u000a    2.5733   -1.7170    0.0000 C   0  0  0  0  0  0  0  0  0  0  0  0\u000a    3.4083   -1.1664    0.0000 C   0  0  0  0  0  0  0  0  0  0  0  0\u000a    4.2976   -1.6340    0.0000 C   0  0  0  0  0  0  0  0  0  0  0  0\u000a    5.3353   -1.0964    0.0000 C   0  0  0  0  0  0  0  0  0  0  0  0\u000a    5.4992   -0.1201    0.0000 O   0  0  0  0  0  0  0  0  0  0  0  0\u000a    5.9869   -1.7857    0.0000 C   0  0  0  0  0  0  0  0  0  0  0  0\u000a    6.8055   -2.2979    0.0000 C   0  0  0  0  0  0  0  0  0  0  0  0\u000a    7.6118   -2.8582    0.0000 C   0  0  0  0  0  0  0  0  0  0  0  0\u000a    7.1338   -3.7413    0.0000 C   0  0  0  0  0  0  0  0  0  0  0  0\u000a    6.2209   -3.3721    0.0000 C   0  0  0  0  0  0  0  0  0  0  0  0\u000a    6.3458   -2.7476    0.0000 C   0  0  0  0  0  0  0  0  0  0  0  0\u000a    5.3470   -2.9672    0.0000 C   0  0  0  0  0  0  0  0  0  0  0  0\u000a    4.4144   -2.7980    0.0000 C   0  0  0  0  0  0  0  0  0  0  0  0\u000a    0.5568   -3.4680    0.0000 Co  0  0  0  0  0  6  0  0  0  0  0  0\u000a    2.9216   -6.6944    0.0000 C   0  0  0  0  0  0  0  0  0  0  0  0\u000a    3.5128   -7.5010    0.0000 O   0  0  0  0  0  3  0  0  0  0  0  0\u000a   -1.7808   -6.7136    0.0000 C   0  0  0  0  0  0  0  0  0  0  0  0\u000a   -2.3652   -7.5250    0.0000 O   0  0  0  0  0  3  0  0  0  0  0  0\u000a   -3.2528   -2.2480    0.0000 C   0  0  0  0  0  0  0  0  0  0  0  0\u000a   -4.2052   -1.9430    0.0000 O   0  0  0  0  0  3  0  0  0  0  0  0\u000a    0.5400    0.5312    0.0000 Co  0  0  0  0  0  4  0  0  0  0  0  0\u000a    4.5400    0.5480    0.0000 C   0  0  0  0  0  0  0  0  0  0  0  0\u000a    5.5400    0.5522    0.0000 O   0  0  0  0  0  3  0  0  0  0  0  0\u000a    0.5232    4.5312    0.0000 C   0  0  0  0  0  0  0  0  0  0  0  0\u000a    0.5190    5.5312    0.0000 O   0  0  0  0  0  3  0  0  0  0  0  0\u000a   -3.4600    0.5144    0.0000 C   0  0  0  0  0  0  0  0  0  0  0  0\u000a   -4.4600    0.5102    0.0000 O   0  0  0  0  0  3  0  0  0  0  0  0\u000a  1  2  1  0\u000a  2  3  1  0\u000a  3  4  1  0\u000a  4  5  1  0\u000a  5  6  1  0\u000a  6  7  2  0\u000a  6  8  1  0\u000a  8  9  1  0\u000a  9 10  1  0\u000a 10 11  1  0\u000a 11 12  1  0\u000a 12 13  1  0\u000a 12 14  1  0\u000a 14 15  1  0\u000a 15 16  1  0\u000a 16 17  1  0\u000a 17 18  3  0\u000a 16 19  1  0\u000a 19 20  3  0\u000a 16 21  1  0\u000a 21 22  3  0\u000a 16 23  1  0\u000a 23 24  1  0\u000a 24 25  3  0\u000a 23 26  1  0\u000a 26 27  3  0\u000a 23 28  1  0\u000a 28 29  3  0\u000a 15  5  1  0\u000a 16  5  1  0\u000a 14  8  1  0\u000a 13  9  1  0\u000aM  CHG  6  18   1  20   1  22   1  25   1  27   1  29   1\u000aM  END\u000a
p327
sg299
VC20H20Co2O7+6
p328
sg324
g242
sg302
g311
ssg246
(dp329
g294
I5
sg295
(lp330
g249
ag207
asg297
V\u000a     RDKit          2D\u000a\u000a 29 33  0  0  0  0  0  0  0  0999 V2000\u000a   -1.4088    3.5659    0.0000 C   0  0  0  0  0  0  0  0  0  0  0  0\u000a   -0.4510    3.8580    0.0000 C   0  0  0  0  0  0  0  0  0  0  0  0\u000a    0.2856    3.1749    0.0000 C   0  0  0  0  0  0  0  0  0  0  0  0\u000a    1.2472    3.4709    0.0000 C   0  0  0  0  0  0  0  0  0  0  0  0\u000a    1.9932    2.7904    0.0000 C   0  0  0  0  0  0  0  0  0  0  0  0\u000a    2.9536    3.0987    0.0000 C   0  0  0  0  0  0  0  0  0  0  0  0\u000a    3.1535    4.0673    0.0000 C   0  0  0  0  0  0  0  0  0  0  0  0\u000a    3.9994    4.5852    0.0000 C   0  0  0  0  0  0  0  0  0  0  0  0\u000a    4.7956    5.1195    0.0000 C   0  0  0  0  0  0  0  0  0  0  0  0\u000a    3.8579    6.2716    0.0000 C   0  0  0  0  0  0  0  0  0  0  0  0\u000a    3.1733    5.6007    0.0000 C   0  0  0  0  0  0  0  0  0  0  0  0\u000a    3.7528    5.2284    0.0000 C   0  0  0  0  0  0  0  0  0  0  0  0\u000a    2.4942    4.8781    0.0000 C   0  0  0  0  0  0  0  0  0  0  0  0\u000a    1.5016    4.8981    0.0000 C   0  0  0  0  0  0  0  0  0  0  0  0\u000a    1.0241    5.7753    0.0000 O   0  0  0  0  0  0  0  0  0  0  0  0\u000a   -0.0416    0.0520    0.0000 Co  0  0  0  0  0  6  0  0  0  0  0  0\u000a    0.6928   -3.8616    0.0000 C   0  0  0  0  0  0  0  0  0  0  0  0\u000a    0.8772   -4.8444    0.0000 O   0  0  0  0  0  3  0  0  0  0  0  0\u000a   -3.5984   -1.7304    0.0000 C   0  0  0  0  0  0  0  0  0  0  0  0\u000a   -4.4924   -2.1784    0.0000 O   0  0  0  0  0  3  0  0  0  0  0  0\u000a   -2.6896    2.9984    0.0000 C   0  0  0  0  0  0  0  0  0  0  0  0\u000a   -3.3580    3.7422    0.0000 O   0  0  0  0  0  3  0  0  0  0  0  0\u000a    4.0576   -0.0704    0.0000 Co  0  0  0  0  0  6  0  0  0  0  0  0\u000a    6.8776    2.7112    0.0000 C   0  0  0  0  0  0  0  0  0  0  0  0\u000a    7.5895    3.4134    0.0000 O   0  0  0  0  0  3  0  0  0  0  0  0\u000a    7.5008   -2.0640    0.0000 C   0  0  0  0  0  0  0  0  0  0  0  0\u000a    8.3662   -2.5651    0.0000 O   0  0  0  0  0  3  0  0  0  0  0  0\u000a    3.0896   -3.9328    0.0000 C   0  0  0  0  0  0  0  0  0  0  0  0\u000a    2.8465   -4.9028    0.0000 O   0  0  0  0  0  3  0  0  0  0  0  0\u000a  1  2  1  0\u000a  2  3  1  0\u000a  3  4  1  0\u000a  4  5  1  0\u000a  5  6  1  0\u000a  6  7  1  0\u000a  7  8  1  0\u000a  8  9  1  0\u000a  9 10  1  0\u000a 10 11  1  0\u000a 11 12  1  0\u000a 11 13  1  0\u000a 13 14  1  0\u000a 14 15  2  0\u000a 14 16  1  0\u000a 16 17  1  0\u000a 17 18  3  0\u000a 16 19  1  0\u000a 19 20  3  0\u000a 16 21  1  0\u000a 21 22  3  0\u000a 16 23  1  0\u000a 23 24  1  0\u000a 24 25  3  0\u000a 23 26  1  0\u000a 26 27  3  0\u000a 23 28  1  0\u000a 28 29  3  0\u000a 16  5  1  0\u000a 23  5  1  0\u000a 23  6  1  0\u000a 13  7  1  0\u000a 12  8  1  0\u000aM  CHG  6  18   1  20   1  22   1  25   1  27   1  29   1\u000aM  END\u000a
p331
sg299
g328
sg324
g246
sg302
g311
ssg249
(dp332
g294
I4
sg295
(lp333
g254
ag207
asg297
V\u000a     RDKit          2D\u000a\u000a 27 31  0  0  0  0  0  0  0  0999 V2000\u000a   -2.0292    1.3950    0.0000 C   0  0  0  0  0  0  0  0  0  0  0  0\u000a   -1.2326    2.0075    0.0000 C   0  0  0  0  0  0  0  0  0  0  0  0\u000a   -0.3023    1.6244    0.0000 C   0  0  0  0  0  0  0  0  0  0  0  0\u000a    0.4973    2.2377    0.0000 C   0  0  0  0  0  0  0  0  0  0  0  0\u000a    1.4296    1.8531    0.0000 C   0  0  0  0  0  0  0  0  0  0  0  0\u000a    2.2315    2.4659    0.0000 C   0  0  0  0  0  0  0  0  0  0  0  0\u000a    2.1083    3.4543    0.0000 C   0  0  0  0  0  0  0  0  0  0  0  0\u000a    2.7591    4.2102    0.0000 C   0  0  0  0  0  0  0  0  0  0  0  0\u000a    3.3539    4.9627    0.0000 C   0  0  0  0  0  0  0  0  0  0  0  0\u000a    2.0975    5.7711    0.0000 C   0  0  0  0  0  0  0  0  0  0  0  0\u000a    1.6593    4.9184    0.0000 C   0  0  0  0  0  0  0  0  0  0  0  0\u000a    2.3235    4.7427    0.0000 C   0  0  0  0  0  0  0  0  0  0  0  0\u000a    1.2405    4.0111    0.0000 C   0  0  0  0  0  0  0  0  0  0  0  0\u000a   -0.0312    0.0390    0.0000 Co  0  0  0  0  0  6  0  0  0  0  0  0\u000a    0.5196   -2.8962    0.0000 C   0  0  0  0  0  0  0  0  0  0  0  0\u000a    0.7040   -3.8790    0.0000 O   0  0  0  0  0  3  0  0  0  0  0  0\u000a   -2.6988   -1.2978    0.0000 C   0  0  0  0  0  0  0  0  0  0  0  0\u000a   -3.5928   -1.7458    0.0000 O   0  0  0  0  0  3  0  0  0  0  0  0\u000a   -2.0172    2.2488    0.0000 C   0  0  0  0  0  0  0  0  0  0  0  0\u000a   -2.6856    2.9926    0.0000 O   0  0  0  0  0  3  0  0  0  0  0  0\u000a    3.0432   -0.0528    0.0000 Co  0  0  0  0  0  6  0  0  0  0  0  0\u000a    5.1582    2.0334    0.0000 C   0  0  0  0  0  0  0  0  0  0  0  0\u000a    5.8701    2.7356    0.0000 O   0  0  0  0  0  3  0  0  0  0  0  0\u000a    5.6256   -1.5480    0.0000 C   0  0  0  0  0  0  0  0  0  0  0  0\u000a    6.4910   -2.0491    0.0000 O   0  0  0  0  0  3  0  0  0  0  0  0\u000a    2.3172   -2.9496    0.0000 C   0  0  0  0  0  0  0  0  0  0  0  0\u000a    2.0741   -3.9196    0.0000 O   0  0  0  0  0  3  0  0  0  0  0  0\u000a  1  2  1  0\u000a  2  3  1  0\u000a  3  4  1  0\u000a  4  5  1  0\u000a  5  6  1  0\u000a  6  7  1  0\u000a  7  8  1  0\u000a  8  9  1  0\u000a  9 10  1  0\u000a 10 11  1  0\u000a 11 12  1  0\u000a 11 13  1  0\u000a 13 14  1  0\u000a 14 15  1  0\u000a 15 16  3  0\u000a 14 17  1  0\u000a 17 18  3  0\u000a 14 19  1  0\u000a 19 20  3  0\u000a 14 21  1  0\u000a 21 22  1  0\u000a 22 23  3  0\u000a 21 24  1  0\u000a 24 25  3  0\u000a 21 26  1  0\u000a 26 27  3  0\u000a 14  5  1  0\u000a 21  5  1  0\u000a 21  6  1  0\u000a 13  7  1  0\u000a 12  8  1  0\u000aM  CHG  6  16   1  18   1  20   1  23   1  25   1  27   1\u000aM  END\u000a
p334
sg299
VC19H20Co2O6+6
p335
sg324
g249
sg302
g311
ssg254
(dp336
g294
I3
sg295
(lp337
g257
ag259
asg297
V\u000a     RDKit          2D\u000a\u000a 25 30  0  0  0  0  0  0  0  0999 V2000\u000a    1.4529    6.4504    0.0000 C   0  0  0  0  0  0  0  0  0  0  0  0\u000a    1.9261    5.5690    0.0000 C   0  0  0  0  0  0  0  0  0  0  0  0\u000a    1.3996    4.7184    0.0000 C   0  0  0  0  0  0  0  0  0  0  0  0\u000a    1.8728    3.8371    0.0000 C   0  0  0  0  0  0  0  0  0  0  0  0\u000a    1.3462    2.9865    0.0000 C   0  0  0  0  0  0  0  0  0  0  0  0\u000a    1.8194    2.1051    0.0000 C   0  0  0  0  0  0  0  0  0  0  0  0\u000a   -0.0312    0.0390    0.0000 Co  0  0  0  0  0  6  0  0  0  0  0  0\u000a    0.5196   -2.8962    0.0000 C   0  0  0  0  0  0  0  0  0  0  0  0\u000a    0.7040   -3.8790    0.0000 O   0  0  0  0  0  3  0  0  0  0  0  0\u000a   -2.6988   -1.2978    0.0000 C   0  0  0  0  0  0  0  0  0  0  0  0\u000a   -3.5928   -1.7458    0.0000 O   0  0  0  0  0  3  0  0  0  0  0  0\u000a   -2.0172    2.2488    0.0000 C   0  0  0  0  0  0  0  0  0  0  0  0\u000a   -2.6856    2.9926    0.0000 O   0  0  0  0  0  3  0  0  0  0  0  0\u000a    3.0432   -0.0528    0.0000 Co  0  0  0  0  0  7  0  0  0  0  0  0\u000a    5.1582    2.0334    0.0000 C   0  0  0  0  0  0  0  0  0  0  0  0\u000a    5.8701    2.7356    0.0000 O   0  0  0  0  0  3  0  0  0  0  0  0\u000a    5.6256   -1.5480    0.0000 C   0  0  0  0  0  0  0  0  0  0  0  0\u000a    6.4910   -2.0491    0.0000 O   0  0  0  0  0  3  0  0  0  0  0  0\u000a    1.8156   -2.8239    0.0000 C   0  0  0  0  0  0  0  0  0  0  0  0\u000a    1.4466   -3.7470    0.0000 C   0  0  0  0  0  0  0  0  0  0  0  0\u000a    1.1277   -4.6517    0.0000 C   0  0  0  0  0  0  0  0  0  0  0  0\u000a    2.5635   -5.0115    0.0000 C   0  0  0  0  0  0  0  0  0  0  0  0\u000a    2.7088   -4.0633    0.0000 C   0  0  0  0  0  0  0  0  0  0  0  0\u000a    2.0268   -4.1083    0.0000 C   0  0  0  0  0  0  0  0  0  0  0  0\u000a    2.8188   -3.0753    0.0000 C   0  0  0  0  0  0  0  0  0  0  0  0\u000a  1  2  1  0\u000a  2  3  1  0\u000a  3  4  1  0\u000a  4  5  1  0\u000a  5  6  1  0\u000a  6  7  1  0\u000a  7  8  1  0\u000a  8  9  3  0\u000a  7 10  1  0\u000a 10 11  3  0\u000a  7 12  1  0\u000a 12 13  3  0\u000a  7 14  1  0\u000a 14 15  1  0\u000a 15 16  3  0\u000a 14 17  1  0\u000a 17 18  3  0\u000a 14 19  1  0\u000a 19 20  1  0\u000a 20 21  1  0\u000a 21 22  1  0\u000a 22 23  1  0\u000a 23 24  1  0\u000a 23 25  1  0\u000a  7  5  1  0\u000a 25 14  1  0\u000a 14  5  1  0\u000a 25 19  1  0\u000a 14  6  1  0\u000a 24 20  1  0\u000aM  CHG  5   9   1  11   1  13   1  16   1  18   1\u000aM  END\u000a
p338
sg299
VC18H20Co2O5+5
p339
sg324
g254
sg302
g311
ssg257
(dp340
g294
I2
sg295
(lp341
g263
asg297
V\u000a     RDKit          2D\u000a\u000a 18 20  0  0  0  0  0  0  0  0999 V2000\u000a   -4.5880    0.5544    0.0000 C   0  0  0  0  0  0  0  0  0  0  0  0\u000a   -3.7216    0.0552    0.0000 C   0  0  0  0  0  0  0  0  0  0  0  0\u000a   -2.8560    0.5558    0.0000 C   0  0  0  0  0  0  0  0  0  0  0  0\u000a   -1.9896    0.0566    0.0000 C   0  0  0  0  0  0  0  0  0  0  0  0\u000a   -1.1240    0.5572    0.0000 C   0  0  0  0  0  0  0  0  0  0  0  0\u000a   -0.2576    0.0580    0.0000 C   0  0  0  0  0  0  0  0  0  0  0  0\u000a    1.0404    1.3092    0.0000 Co  0  0  0  0  0  5  0  0  0  0  0  0\u000a    0.3548    3.1876    0.0000 C   0  0  0  0  0  0  0  0  0  0  0  0\u000a    0.0119    4.1270    0.0000 O   0  0  0  0  0  3  0  0  0  0  0  0\u000a    3.0096    1.6580    0.0000 C   0  0  0  0  0  0  0  0  0  0  0  0\u000a    3.9943    1.8324    0.0000 O   0  0  0  0  0  3  0  0  0  0  0  0\u000a    1.0420   -0.6908    0.0000 Co  0  0  0  0  0  6  0  0  0  0  0  0\u000a    2.9736   -0.1716    0.0000 C   0  0  0  0  0  0  0  0  0  0  0  0\u000a    3.9393    0.0880    0.0000 O   0  0  0  0  0  3  0  0  0  0  0  0\u000a    2.0436   -2.4220    0.0000 C   0  0  0  0  0  0  0  0  0  0  0  0\u000a    2.5444   -3.2876    0.0000 O   0  0  0  0  0  3  0  0  0  0  0  0\u000a   -0.3712   -2.1064    0.0000 C   0  0  0  0  0  0  0  0  0  0  0  0\u000a   -1.0777   -2.8141    0.0000 O   0  0  0  0  0  3  0  0  0  0  0  0\u000a  1  2  1  0\u000a  2  3  1  0\u000a  3  4  1  0\u000a  4  5  1  0\u000a  5  6  1  0\u000a  6  7  1  0\u000a  7  8  1  0\u000a  8  9  3  0\u000a  7 10  1  0\u000a 10 11  3  0\u000a  7 12  1  0\u000a 12 13  1  0\u000a 13 14  3  0\u000a 12 15  1  0\u000a 15 16  3  0\u000a 12 17  1  0\u000a 17 18  3  0\u000a  7  5  1  0\u000a 12  5  1  0\u000a 12  6  1  0\u000aM  CHG  5   9   1  11   1  14   1  16   1  18   1\u000aM  END\u000a
p342
sg299
VC11H10Co2O5+5
p343
sg324
g257
sg302
g311
ssg263
(dp344
g294
I1
sg295
(lp345
g267
ag269
asg297
V\u000a     RDKit          2D\u000a\u000a 20 22  0  0  0  0  0  0  0  0999 V2000\u000a    0.9253    5.6018    0.0000 C   0  0  0  0  0  0  0  0  0  0  0  0\u000a    1.3985    4.7204    0.0000 C   0  0  0  0  0  0  0  0  0  0  0  0\u000a    0.8720    3.8698    0.0000 C   0  0  0  0  0  0  0  0  0  0  0  0\u000a    1.3452    2.9885    0.0000 C   0  0  0  0  0  0  0  0  0  0  0  0\u000a    0.8186    2.1379    0.0000 C   0  0  0  0  0  0  0  0  0  0  0  0\u000a    1.2918    1.2565    0.0000 C   0  0  0  0  0  0  0  0  0  0  0  0\u000a   -0.0208    0.0260    0.0000 Co  0  0  0  0  0  6  0  0  0  0  0  0\u000a    0.3464   -1.9308    0.0000 C   0  0  0  0  0  0  0  0  0  0  0  0\u000a    0.5308   -2.9136    0.0000 O   0  0  0  0  0  3  0  0  0  0  0  0\u000a   -1.7992   -0.8652    0.0000 C   0  0  0  0  0  0  0  0  0  0  0  0\u000a   -2.6932   -1.3132    0.0000 O   0  0  0  0  0  3  0  0  0  0  0  0\u000a   -1.3448    1.4992    0.0000 C   0  0  0  0  0  0  0  0  0  0  0  0\u000a   -2.0132    2.2430    0.0000 O   0  0  0  0  0  3  0  0  0  0  0  0\u000a    2.0288   -0.0352    0.0000 Co  0  0  0  0  0  6  0  0  0  0  0  0\u000a    3.4388    1.3556    0.0000 C   0  0  0  0  0  0  0  0  0  0  0  0\u000a    4.1507    2.0578    0.0000 O   0  0  0  0  0  3  0  0  0  0  0  0\u000a    3.7504   -1.0320    0.0000 C   0  0  0  0  0  0  0  0  0  0  0  0\u000a    4.6158   -1.5331    0.0000 O   0  0  0  0  0  3  0  0  0  0  0  0\u000a    1.5448   -1.9664    0.0000 C   0  0  0  0  0  0  0  0  0  0  0  0\u000a    1.3017   -2.9364    0.0000 O   0  0  0  0  0  3  0  0  0  0  0  0\u000a  1  2  1  0\u000a  2  3  1  0\u000a  3  4  1  0\u000a  4  5  1  0\u000a  5  6  1  0\u000a  6  7  1  0\u000a  7  8  1  0\u000a  8  9  3  0\u000a  7 10  1  0\u000a 10 11  3  0\u000a  7 12  1  0\u000a 12 13  3  0\u000a  7 14  1  0\u000a 14 15  1  0\u000a 15 16  3  0\u000a 14 17  1  0\u000a 17 18  3  0\u000a 14 19  1  0\u000a 19 20  3  0\u000a  7  5  1  0\u000a 14  5  1  0\u000a 14  6  1  0\u000aM  CHG  6   9   1  11   1  13   1  16   1  18   1  20   1\u000aM  END\u000a
p346
sg299
VC12H10Co2O6+6
p347
sg324
g263
sg302
g311
ssg92
(dp348
g294
I7
sg295
(lp349
g242
asg299
VC6Co2O6+6
p350
sg297
V\u000a     RDKit          2D\u000a\u000a 14 13  0  0  0  0  0  0  0  0999 V2000\u000a   -1.4836    0.5614    0.0000 O   0  0  0  0  0  3  0  0  0  0  0  0\u000a   -0.6162    0.0638    0.0000 C   0  0  0  0  0  0  0  0  0  0  0  0\u000a    0.2512   -0.4338    0.0000 Co  0  0  0  0  0  4  0  0  0  0  0  0\u000a   -0.2464   -1.3012    0.0000 C   0  0  0  0  0  0  0  0  0  0  0  0\u000a   -0.7440   -2.1686    0.0000 O   0  0  0  0  0  3  0  0  0  0  0  0\u000a    1.1186   -0.9312    0.0000 C   0  0  0  0  0  0  0  0  0  0  0  0\u000a    1.9861   -1.4287    0.0000 O   0  0  0  0  0  3  0  0  0  0  0  0\u000a    0.7488    0.4338    0.0000 Co  0  0  0  0  0  4  0  0  0  0  0  0\u000a    1.6162   -0.0638    0.0000 C   0  0  0  0  0  0  0  0  0  0  0  0\u000a    2.4836   -0.5614    0.0000 O   0  0  0  0  0  3  0  0  0  0  0  0\u000a    1.2464    1.3012    0.0000 C   0  0  0  0  0  0  0  0  0  0  0  0\u000a    1.7440    2.1686    0.0000 O   0  0  0  0  0  3  0  0  0  0  0  0\u000a   -0.1186    0.9312    0.0000 C   0  0  0  0  0  0  0  0  0  0  0  0\u000a   -0.9861    1.4287    0.0000 O   0  0  0  0  0  3  0  0  0  0  0  0\u000a  1  2  3  0\u000a  2  3  1  0\u000a  3  4  1  0\u000a  4  5  3  0\u000a  3  6  1  0\u000a  6  7  3  0\u000a  3  8  1  0\u000a  8  9  1  0\u000a  9 10  3  0\u000a  8 11  1  0\u000a 11 12  3  0\u000a  8 13  1  0\u000a 13 14  3  0\u000aM  CHG  6   1   1   5   1   7   1  10   1  12   1  14   1\u000aM  END\u000a
p351
sg324
g92
sg302
Vbyprod
p352
ssg271
(dp353
g294
I7
sg295
(lp354
g242
asg299
g328
sg297
V\u000a     RDKit          2D\u000a\u000a 29 32  0  0  0  0  0  0  0  0999 V2000\u000a    0.8513   -1.8417    0.0000 C   0  0  0  0  0  0  0  0  0  0  0  0\u000a    1.6784   -1.2793    0.0000 C   0  0  0  0  0  0  0  0  0  0  0  0\u000a    2.5733   -1.7170    0.0000 C   0  0  0  0  0  0  0  0  0  0  0  0\u000a    3.4083   -1.1664    0.0000 C   0  0  0  0  0  0  0  0  0  0  0  0\u000a    4.2976   -1.6340    0.0000 C   0  0  0  0  0  0  0  0  0  0  0  0\u000a    5.3353   -1.0964    0.0000 C   0  0  0  0  0  0  0  0  0  0  0  0\u000a    5.4992   -0.1201    0.0000 O   0  0  0  0  0  0  0  0  0  0  0  0\u000a    5.9869   -1.7857    0.0000 C   0  0  0  0  0  0  0  0  0  0  0  0\u000a    6.8055   -2.2979    0.0000 C   0  0  0  0  0  0  0  0  0  0  0  0\u000a    7.6118   -2.8582    0.0000 C   0  0  0  0  0  0  0  0  0  0  0  0\u000a    7.1338   -3.7413    0.0000 C   0  0  0  0  0  0  0  0  0  0  0  0\u000a    6.2209   -3.3721    0.0000 C   0  0  0  0  0  0  0  0  0  0  0  0\u000a    6.3458   -2.7476    0.0000 C   0  0  0  0  0  0  0  0  0  0  0  0\u000a    5.3470   -2.9672    0.0000 C   0  0  0  0  0  0  0  0  0  0  0  0\u000a    4.4144   -2.7980    0.0000 C   0  0  0  0  0  0  0  0  0  0  0  0\u000a    0.5568   -3.4680    0.0000 Co  0  0  0  0  0  6  0  0  0  0  0  0\u000a    2.9216   -6.6944    0.0000 C   0  0  0  0  0  0  0  0  0  0  0  0\u000a    3.5128   -7.5010    0.0000 O   0  0  0  0  0  3  0  0  0  0  0  0\u000a   -1.7808   -6.7136    0.0000 C   0  0  0  0  0  0  0  0  0  0  0  0\u000a   -2.3652   -7.5250    0.0000 O   0  0  0  0  0  3  0  0  0  0  0  0\u000a   -3.2528   -2.2480    0.0000 C   0  0  0  0  0  0  0  0  0  0  0  0\u000a   -4.2052   -1.9430    0.0000 O   0  0  0  0  0  3  0  0  0  0  0  0\u000a    0.5400    0.5312    0.0000 Co  0  0  0  0  0  4  0  0  0  0  0  0\u000a    4.5400    0.5480    0.0000 C   0  0  0  0  0  0  0  0  0  0  0  0\u000a    5.5400    0.5522    0.0000 O   0  0  0  0  0  3  0  0  0  0  0  0\u000a    0.5232    4.5312    0.0000 C   0  0  0  0  0  0  0  0  0  0  0  0\u000a    0.5190    5.5312    0.0000 O   0  0  0  0  0  3  0  0  0  0  0  0\u000a   -3.4600    0.5144    0.0000 C   0  0  0  0  0  0  0  0  0  0  0  0\u000a   -4.4600    0.5102    0.0000 O   0  0  0  0  0  3  0  0  0  0  0  0\u000a  1  2  1  0\u000a  2  3  1  0\u000a  3  4  1  0\u000a  4  5  1  0\u000a  5  6  1  0\u000a  6  7  1  0\u000a  6  8  2  0\u000a  8  9  1  0\u000a  9 10  1  0\u000a 10 11  1  0\u000a 11 12  1  0\u000a 12 13  1  0\u000a 12 14  1  0\u000a 14 15  1  0\u000a 15 16  1  0\u000a 16 17  1  0\u000a 17 18  3  0\u000a 16 19  1  0\u000a 19 20  3  0\u000a 16 21  1  0\u000a 21 22  3  0\u000a 16 23  1  0\u000a 23 24  1  0\u000a 24 25  3  0\u000a 23 26  1  0\u000a 26 27  3  0\u000a 23 28  1  0\u000a 28 29  3  0\u000a 15  5  1  0\u000a 16  5  1  0\u000a 14  8  1  0\u000a 13  9  1  0\u000aM  CHG  6  18   1  20   1  22   1  25   1  27   1  29   1\u000aM  END\u000a
p355
sg324
g271
sg302
g6
sssVallSteps
p356
(dp357
g276
(dp358
VlinkType
p359
Vmain
p360
ssg278
(dp361
g359
g360
ssg280
(dp362
g359
g360
ssg282
(dp363
g359
g360
ssg284
(dp364
g359
g360
ssg286
(dp365
g359
g360
ssg288
(dp366
g359
g360
ssg290
(dp367
g359
g360
sssVallLink
p368
(dp369
(g242
g92
VElimination
p370
tp371
(lp372
(dp373
Vtarget
p374
g92
sVsource
p375
g242
sg29
g370
sVrxsmiles
p376
g98
sg33
Vtoluene, heat<BR> allow temp:H, allow AB: N
p377
sg38
Vtoluene
p378
sVtype
p379
g360
sas(g242
g239
g370
tp380
(lp381
(dp382
g374
g239
sg375
g242
sg29
g370
sg376
g98
sg33
g377
sg38
g378
sg379
g360
sas(g246
g242
g370
tp383
(lp384
(dp385
g374
g242
sg375
g246
sg29
g370
sg376
VCCCCC12C3C4C5CCC(C5)C4C(=O)[Co]1(C#[O+])(C#[O+])(C#[O+])[Co]32(C#[O+])(C#[O+])C#[O+]>>CCCCC12C(=O)C3C4CCC(C4)C3C1[Co]2(C#[O+])(C#[O+])(C#[O+])[Co](C#[O+])(C#[O+])C#[O+].
p386
sg33
g377
sg38
g378
sg379
g360
sas(g249
g246
VInsertion of carbon monoxide
p387
tp388
(lp389
(dp390
g374
g246
sg375
g249
sg29
g387
sg376
VCCCCC12C3C4C5CCC(C5)C4[Co]1(C#[O+])(C#[O+])(C#[O+])[Co]32(C#[O+])(C#[O+])C#[O+].[C-]#[O+]>>CCCCC12C3C4C5CCC(C5)C4C(=O)[Co]1(C#[O+])(C#[O+])(C#[O+])[Co]32(C#[O+])(C#[O+])C#[O+].
p391
sg33
g377
sg38
g378
sg379
g360
sas(g207
g246
g387
tp392
(lp393
(dp394
g374
g246
sg375
g207
sg29
g387
sg376
g391
sg33
g377
sg38
g378
sg379
g360
sas(g254
g249
VInsertion of alkene
p395
tp396
(lp397
(dp398
g374
g249
sg375
g254
sg29
g395
sg376
VCCCCC12C3[Co]1(C#[O+])(C#[O+])(C#[O+])[Co]321(C#[O+])(C#[O+])C2C3CCC(C3)C21.[C-]#[O+]>>CCCCC12C3C4C5CCC(C5)C4[Co]1(C#[O+])(C#[O+])(C#[O+])[Co]32(C#[O+])(C#[O+])C#[O+].
p399
sg33
g377
sg38
g378
sg379
g360
sas(g207
g249
g395
tp400
(lp401
(dp402
g374
g249
sg375
g207
sg29
g395
sg376
g399
sg33
g377
sg38
g378
sg379
g360
sas(g257
g254
VFormation of pi-complexes
p403
tp404
(lp405
(dp406
g374
g254
sg375
g257
sg29
g403
sg376
VCCCCC12C3[Co]1(C#[O+])(C#[O+])[Co]32(C#[O+])(C#[O+])C#[O+].C1=CC2CCC1C2>>CCCCC12C3[Co]1(C#[O+])(C#[O+])(C#[O+])[Co]321(C#[O+])(C#[O+])C2C3CCC(C3)C21.
p407
sg33
g377
sg38
g378
sg379
g360
sas(g259
g254
g403
tp408
(lp409
(dp410
g374
g254
sg375
g259
sg29
g403
sg376
g407
sg33
g377
sg38
g378
sg379
g360
sas(g263
g207
VDecomplexation of carbon monoxide
p411
tp412
(lp413
(dp414
g374
g207
sg375
g263
sg29
g411
sg376
g211
sg33
g377
sg38
g378
sg379
Valter
p415
sas(g263
g257
g411
tp416
(lp417
(dp418
g374
g257
sg375
g263
sg29
g411
sg376
g211
sg33
g377
sg38
g378
sg379
g360
sas(g267
g207
VAddition of Co complexes to alkynes
p419
tp420
(lp421
(dp422
g374
g207
sg375
g267
sg29
g419
sg376
VO=C1[Co]2(C#[O+])(C#[O+])(C#[O+])C(=O)[Co]12(C#[O+])(C#[O+])C#[O+].C#CCCCC>>CCCCC12C3[Co]1(C#[O+])(C#[O+])(C#[O+])[Co]32(C#[O+])(C#[O+])C#[O+].[C-]#[O+]
p423
sg33
g377
sg38
g378
sg379
g360
sas(g269
g207
g419
tp424
(lp425
(dp426
g374
g207
sg375
g269
sg29
g419
sg376
g423
sg33
g377
sg38
g378
sg379
g360
sas(g267
g263
g419
tp427
(lp428
(dp429
g374
g263
sg375
g267
sg29
g419
sg376
g423
sg33
g377
sg38
g378
sg379
g360
sas(g269
g263
g419
tp430
(lp431
(dp432
g374
g263
sg375
g269
sg29
g419
sg376
g423
sg33
g377
sg38
g378
sg379
g360
sas(g242
g271
g30
tp433
(lp434
(dp435
g374
g271
sg375
g242
sg29
g30
sg33
g34
sg38
g39
sg379
g360
sassVtargetSmiles
p436
g239
sVidToFullRx
p437
(dp438
I1
(dp439
g20
g61
sg66
(dp440
g68
F0.0
sg69
I0
sg70
I0
sg71
(lp441
g62
asg73
(lp442
(lp443
(lp444
g77
aa(lp445
(lp446
g80
ag81
aaaasg27
g82
sg83
I-2
ssg22
(lp447
g62
asg85
I0
sg86
(lp448
I1
aI2
aI3
aI4
aI5
aI6
asg88
(dp449
g90
(lp450
g92
asg93
(lp451
(lp452
g32
aassg96
(lp453
I1
asg41
g98
sg42
I00
sg43
I00
sg44
F-142.7742800000001
sg45
I00
ssI2
(dp454
g20
g99
sg66
(dp455
g68
F0.0
sg69
I0
sg70
I0
sg71
(lp456
g100
asg73
(lp457
(lp458
(lp459
g109
aa(lp460
(lp461
g77
aaaasg27
g112
sg83
I-2
ssg22
(lp462
g100
asg85
I1
sg86
(lp463
I2
aI3
aI4
aI5
aI6
asg88
(dp464
g90
(lp465
sg93
(lp466
(lp467
g32
aassg96
(lp468
I2
asg41
g99
sg42
I00
sg43
I00
sg120
I1
sg44
F-972.5798900000001
sg45
I00
ssI3
(dp469
g20
g121
sg66
(dp470
g68
F0.0
sg69
I0
sg70
I0
sg71
(lp471
g122
asg73
(lp472
(lp473
(lp474
g131
ag132
aa(lp475
(lp476
g109
aaaasg27
g135
sg83
I-2
ssg22
(lp477
g122
asg85
I2
sg86
(lp478
I3
aI4
aI5
aI6
asg88
(dp479
g90
(lp480
sg93
(lp481
(lp482
g32
aassg96
(lp483
I3
asg41
g121
sg42
I00
sg43
I00
sg120
I1
sg44
F90.56015
sg45
I00
ssI4
(dp484
g20
g143
sg66
(dp485
g68
F0.0
sg69
I0
sg70
I0
sg71
(lp486
g144
asg73
(lp487
(lp488
(lp489
g153
ag154
aa(lp490
(lp491
g131
aaaasg27
g157
sg83
I-2
ssg22
(lp492
g144
asg85
I3
sg86
(lp493
I4
aI5
aI6
asg88
(dp494
g90
(lp495
sg93
(lp496
(lp497
g32
aassg96
(lp498
I4
asg41
g143
sg42
I00
sg43
I00
sg120
I1
sg44
F407.86871
sg45
I00
ssI5
(dp499
g20
g165
sg66
(dp500
g68
F0.0
sg69
I0
sg70
I0
sg71
(lp501
g166
asg73
(lp502
(lp503
(lp504
g175
ag176
aa(lp505
(lp506
g179
aaaasg27
g180
sg83
I-2
ssg22
(lp507
g166
asg85
I4
sg86
(lp508
I5
aI6
asg88
(dp509
g90
(lp510
sg93
(lp511
(lp512
g32
aassg96
(lp513
I5
asg41
g165
sg42
I00
sg43
I00
sg44
F-1656.81741
sg45
I00
ssI6
(dp514
g20
g188
sg66
(dp515
g68
F0.0
sg69
I0
sg70
I0
sg71
(lp516
g189
asg73
(lp517
(lp518
(lp519
g198
aa(lp520
(lp521
g175
ag201
aaaasg27
g202
sg83
I-2
ssg22
(lp522
g189
asg85
I5
sg86
(lp523
I6
asg88
(dp524
g90
(lp525
g207
asg93
(lp526
(lp527
g32
aassg96
(lp528
I6
asg41
g211
sg42
I00
sg43
I00
sg44
F1680.28287
sg45
I00
ssI7
(dp529
g20
g212
sg66
(dp530
g68
F0.0
sg69
I0
sg70
I0
sg71
(lp531
g213
asg73
(lp532
(lp533
(lp534
g222
ag223
aa(lp535
(lp536
g198
ag226
ag227
aaaasg27
g228
sg83
I-2
ssg22
(lp537
g213
asg85
I6
sg86
(lp538
sg88
(dp539
g90
(lp540
g207
asg93
(lp541
(lp542
g32
aassg96
(lp543
sg41
g236
sg42
I00
sg43
I00
sg44
F0.1
sg45
I00
ssI8
(dp544
g20
g21
sg22
(lp545
g24
asg25
(lp546
sg27
g28
sg29
g30
sg31
g32
sg33
g34
sg35
g36
sg37
g32
sg38
g39
sg40
g32
sg41
g21
sg42
I00
sg43
I00
sg44
F943.91768
sg45
I00
ssV5_REV
p547
(dp548
g20
VCCCCC12C3[Co]1(C#[O+])(C#[O+])(C#[O+])[Co]321(C#[O+])(C#[O+])C2C3CCC(C3)C21>>CCCCC12C3[Co]1(C#[O+])(C#[O+])[Co]32(C#[O+])(C#[O+])C#[O+].C1=CC2CCC1C2
p549
sg66
(dp550
g68
F0.0
sg69
I0
sg70
I0
sg71
(lp551
g166
asg73
(lp552
(lp553
(lp554
g175
ag176
aa(lp555
(lp556
g179
aaaasg27
g180
sg83
I-2
ssg22
(lp557
g166
asg85
I4
sg86
(lp558
I5
aI6
asg88
(dp559
g90
(lp560
sg93
(lp561
(lp562
g32
aassg96
(lp563
I5
asg41
g549
sg42
I00
sg43
I00
sVorigin
p564
Vhand-made reverse rx
p565
sg44
F1656.81741
sg45
I00
ssV6_REV
p566
(dp567
g20
VCCCCC12C3[Co]1(C#[O+])(C#[O+])[Co]32(C#[O+])(C#[O+])C#[O+]>>CCCCC12C3[Co]1(C#[O+])(C#[O+])(C#[O+])[Co]32(C#[O+])(C#[O+])C#[O+]
p568
sg66
(dp569
g68
F0.0
sg69
I0
sg70
I0
sg71
(lp570
g189
asg73
(lp571
(lp572
(lp573
g198
aa(lp574
(lp575
g175
ag201
aaaasg27
g202
sg83
I-2
ssg22
(lp576
g189
asg85
I5
sg86
(lp577
I6
asg88
(dp578
g90
(lp579
g207
asg93
(lp580
(lp581
g32
aassg96
(lp582
I6
asg41
VCCCCC12C3[Co]1(C#[O+])(C#[O+])[Co]32(C#[O+])(C#[O+])C#[O+].[C-]#[O+]>>CCCCC12C3[Co]1(C#[O+])(C#[O+])(C#[O+])[Co]32(C#[O+])(C#[O+])C#[O+]
p583
sg42
I00
sg43
I00
sg564
g565
sg44
F-1680.28287
sg45
I00
ssV7_REV
p584
(dp585
g20
VCCCCC12C3[Co]1(C#[O+])(C#[O+])(C#[O+])[Co]32(C#[O+])(C#[O+])C#[O+]>>O=C1[Co]2(C#[O+])(C#[O+])(C#[O+])C(=O)[Co]12(C#[O+])(C#[O+])C#[O+].C#CCCCC
p586
sg66
(dp587
g68
F0.0
sg69
I0
sg70
I0
sg71
(lp588
g213
asg73
(lp589
(lp590
(lp591
g222
ag223
aa(lp592
(lp593
g198
ag226
ag227
aaaasg27
g228
sg83
I-2
ssg22
(lp594
g213
asg85
I6
sg86
(lp595
sg88
(dp596
g90
(lp597
g207
asg93
(lp598
(lp599
g32
aassg96
(lp600
sg41
VCCCCC12C3[Co]1(C#[O+])(C#[O+])(C#[O+])[Co]32(C#[O+])(C#[O+])C#[O+].[C-]#[O+].[C-]#[O+]>>C#CCCCC.O=C1[Co]2(C#[O+])(C#[O+])(C#[O+])C(=O)[Co]12(C#[O+])(C#[O+])C#[O+]
p601
sg42
I00
sg43
I00
sg564
g565
sg44
F0.1
sg45
I00
sssVacidBase
p602
(dp603
VwildForms
p604
g50
((lp605
tp606
Rp607
ssVrxAvail
p608
(dp609
Vgen
p610
(dp611
sVcmd
p612
(dp613
ssVtautomers
p614
(dp615
Vprod
p616
(dp617
g271
g50
((lp618
(g242
g271
g24
I8
I1
I00
tp619
atp620
Rp621
ssVsbs
p622
(dp623
g242
g50
((lp624
g619
atp625
Rp626
ssVfull
p627
g50
((lp628
g619
atp629
Rp630
sVrxnum
p631
(dp632
I8
g619
ssssVcommon
p633
(dp634
Vfixed
p635
(dp636
sVallowedCond
p637
(dp638
g627
(lp639
(lp640
(g52
VH
p641
tp642
ag642
ag642
ag642
ag642
ag642
ag642
aasVminimalVariants
p643
(lp644
(lp645
(c__builtin__
frozenset
p646
((lp647
g52
atp648
Rp649
g646
((lp650
g641
atp651
Rp652
tp653
a(g646
((lp654
g52
atp655
Rp656
g646
((lp657
g641
atp658
Rp659
tp660
a(g646
((lp661
g52
atp662
Rp663
g646
((lp664
g641
atp665
Rp666
tp667
a(g646
((lp668
g52
atp669
Rp670
g646
((lp671
g641
atp672
Rp673
tp674
a(g646
((lp675
g52
atp676
Rp677
g646
((lp678
g641
atp679
Rp680
tp681
a(g646
((lp682
g52
atp683
Rp684
g646
((lp685
g641
atp686
Rp687
tp688
a(g646
((lp689
g52
atp690
Rp691
g646
((lp692
g641
atp693
Rp694
tp695
aasVstepsVariants
p696
(lp697
(lp698
(VO=C1[Co]2(C#[O+])(C#[O+])(C#[O+])C(=O)[Co]12(C#[O+])(C#[O+])C#[O+].C#CCCCC>>CCCCC12C3[Co]1(C#[O+])(C#[O+])(C#[O+])[Co]32(C#[O+])(C#[O+])C#[O+]
p699
(g213
tp700
tp701
a(VCCCCC12C3[Co]1(C#[O+])(C#[O+])(C#[O+])[Co]32(C#[O+])(C#[O+])C#[O+]>>CCCCC12C3[Co]1(C#[O+])(C#[O+])[Co]32(C#[O+])(C#[O+])C#[O+]
p702
(g189
tp703
tp704
a(VCCCCC12C3[Co]1(C#[O+])(C#[O+])[Co]32(C#[O+])(C#[O+])C#[O+].C1=CC2CCC1C2>>CCCCC12C3[Co]1(C#[O+])(C#[O+])(C#[O+])[Co]321(C#[O+])(C#[O+])C2C3CCC(C3)C21
p705
(g166
tp706
tp707
a(VCCCCC12C3[Co]1(C#[O+])(C#[O+])(C#[O+])[Co]321(C#[O+])(C#[O+])C2C3CCC(C3)C21.[C-]#[O+]>>CCCCC12C3C4C5CCC(C5)C4[Co]1(C#[O+])(C#[O+])(C#[O+])[Co]32(C#[O+])(C#[O+])C#[O+]
p708
(g144
tp709
tp710
a(VCCCCC12C3C4C5CCC(C5)C4[Co]1(C#[O+])(C#[O+])(C#[O+])[Co]32(C#[O+])(C#[O+])C#[O+].[C-]#[O+]>>CCCCC12C3C4C5CCC(C5)C4C(=O)[Co]1(C#[O+])(C#[O+])(C#[O+])[Co]32(C#[O+])(C#[O+])C#[O+]
p711
(g122
tp712
tp713
a(VCCCCC12C3C4C5CCC(C5)C4C(=O)[Co]1(C#[O+])(C#[O+])(C#[O+])[Co]32(C#[O+])(C#[O+])C#[O+]>>CCCCC12C(=O)C3C4CCC(C4)C3C1[Co]2(C#[O+])(C#[O+])(C#[O+])[Co](C#[O+])(C#[O+])C#[O+]
p714
(g100
tp715
tp716
a(VCCCCC12C(=O)C3C4CCC(C4)C3C1[Co]2(C#[O+])(C#[O+])(C#[O+])[Co](C#[O+])(C#[O+])C#[O+]>>CCCCC1=CC2C3CCC(C3)C2C1=O
p717
(g62
tp718
tp719
aasVcatUsage
p720
(lp721
(lp722
asVconditionsOcc
p723
(lp724
(dp725
Vtemp
p726
(dp727
g641
(lp728
I0
aI1
aI2
aI3
aI4
aI5
aI6
assVAB
p729
(dp730
g52
(lp731
I0
aI1
aI2
aI3
aI4
aI5
aI6
assasVminimalPozBeforeChangeToTarget
p732
(lp733
(dp734
asVrxToGenSbs
p735
(dp736
g716
I6
sg719
I7
sg713
I5
sg710
I4
sg707
I3
sg704
I2
sg701
I1
ssVrxToGenProd
p737
(dp738
g716
I1
sg719
I0
sg713
I2
sg710
I3
sg707
I4
sg704
I5
sg701
I6
sssVworkingCond
p739
(lp740
((I0
(g646
((lp741
g52
atp742
Rp743
g646
((lp744
g641
atp745
Rp746
tp747
tp748
tp749
asVallInitSbs
p750
g50
((lp751
V[C-]#[O+]
p752
aVC#CCCCC
p753
aVC1=CC2CCC1C2
p754
aVO=C1[Co]2(C#[O+])(C#[O+])(C#[O+])C(=O)[Co]12(C#[O+])(C#[O+])C#[O+]
p755
atp756
Rp757
sVisOnepot
p758
I00
sVonePot
p759
(dp760
VCCCCC12C3[Co]1(C#[O+])(C#[O+])[Co]32(C#[O+])(C#[O+])C#[O+]
p761
(lp762
(dp763
Vrx
p764
(VCCCCC12C3[Co]1(C#[O+])(C#[O+])[Co]32(C#[O+])(C#[O+])C#[O+].C1=CC2CCC1C2>>CCCCC12C3[Co]1(C#[O+])(C#[O+])(C#[O+])[Co]321(C#[O+])(C#[O+])C2C3CCC(C3)C21
p765
(g166
tp766
tp767
sVsubs
p768
VC1=CC2CCC1C2
p769
sasVCCCCC12C3C4C5CCC(C5)C4[Co]1(C#[O+])(C#[O+])(C#[O+])[Co]32(C#[O+])(C#[O+])C#[O+]
p770
(lp771
(dp772
g764
(VCCCCC12C3C4C5CCC(C5)C4[Co]1(C#[O+])(C#[O+])(C#[O+])[Co]32(C#[O+])(C#[O+])C#[O+].[C-]#[O+]>>CCCCC12C3C4C5CCC(C5)C4C(=O)[Co]1(C#[O+])(C#[O+])(C#[O+])[Co]32(C#[O+])(C#[O+])C#[O+]
p773
(g122
tp774
tp775
sg768
V[C-]#[O+]
p776
sasVCCCCC12C3[Co]1(C#[O+])(C#[O+])(C#[O+])[Co]321(C#[O+])(C#[O+])C2C3CCC(C3)C21
p777
(lp778
(dp779
g764
(VCCCCC12C3[Co]1(C#[O+])(C#[O+])(C#[O+])[Co]321(C#[O+])(C#[O+])C2C3CCC(C3)C21.[C-]#[O+]>>CCCCC12C3C4C5CCC(C5)C4[Co]1(C#[O+])(C#[O+])(C#[O+])[Co]32(C#[O+])(C#[O+])C#[O+]
p780
(g144
tp781
tp782
sg768
g776
sassVacidBase
p783
(dp784
VnoMainForm
p785
g50
((lp786
VCCCCC1=CC2C(=C1O)C1CCC2C1
p787
aVCCCCC1=CC2C3CCC(C3)C2C1=O
p788
aVCCCCC12C3[Co]1(C#[O+])(C#[O+])(C#[O+])[Co]32(C#[O+])(C#[O+])C#[O+]
p789
aVCCCCC12C3C4C5CCC(C5)C4[Co]1(C#[O+])(C#[O+])(C#[O+])[Co]32(C#[O+])(C#[O+])C#[O+]
p790
aVC#CCCCC
p791
aVC1=CC2CCC1C2
p792
aVO=C1[Co]2(C#[O+])(C#[O+])(C#[O+])C(=O)[Co]12(C#[O+])(C#[O+])C#[O+]
p793
aVCCCCC12C3[Co]1(C#[O+])(C#[O+])(C#[O+])[Co]321(C#[O+])(C#[O+])C2C3CCC(C3)C21
p794
aVCCCCC12C(O)=C3C4CCC(C4)C3C1[Co]2(C#[O+])(C#[O+])(C#[O+])[Co](C#[O+])(C#[O+])C#[O+]
p795
aV[O+]#C[Co](C#[O+])(C#[O+])[Co](C#[O+])(C#[O+])C#[O+]
p796
aVCCCCC12C3C4C5CCC(C5)C4C(=O)[Co]1(C#[O+])(C#[O+])(C#[O+])[Co]32(C#[O+])(C#[O+])C#[O+]
p797
aV[C-]#[O+]
p798
aVCCCCC12C(=O)C3C4CCC(C4)C3C1[Co]2(C#[O+])(C#[O+])(C#[O+])[Co](C#[O+])(C#[O+])C#[O+]
p799
aVCCCCC12C3[Co]1(C#[O+])(C#[O+])[Co]32(C#[O+])(C#[O+])C#[O+]
p800
atp801
Rp802
sVwildToMain
p803
(dp804
sVmainToWild
p805
(dp806
sVwildFormType
p807
(dp808
ssVmainPathInfo
p809
(dp810
VisWaterSbs
p811
I00
sVisWaterCondNeeded
p812
I00
sVreactiveSubstrates
p813
(dp814
sVrxes
p815
(lp816
(VCCCCC12C(=O)C3C4CCC(C4)C3C1[Co]2(C#[O+])(C#[O+])(C#[O+])[Co](C#[O+])(C#[O+])C#[O+]>>CCCCC1=CC2C3CCC(C3)C2C1=O
p817
(g62
tp818
tp819
a(VCCCCC12C3C4C5CCC(C5)C4C(=O)[Co]1(C#[O+])(C#[O+])(C#[O+])[Co]32(C#[O+])(C#[O+])C#[O+]>>CCCCC12C(=O)C3C4CCC(C4)C3C1[Co]2(C#[O+])(C#[O+])(C#[O+])[Co](C#[O+])(C#[O+])C#[O+]
p820
(g100
tp821
tp822
a(VCCCCC12C3C4C5CCC(C5)C4[Co]1(C#[O+])(C#[O+])(C#[O+])[Co]32(C#[O+])(C#[O+])C#[O+].[C-]#[O+]>>CCCCC12C3C4C5CCC(C5)C4C(=O)[Co]1(C#[O+])(C#[O+])(C#[O+])[Co]32(C#[O+])(C#[O+])C#[O+]
p823
(g122
tp824
tp825
a(VCCCCC12C3[Co]1(C#[O+])(C#[O+])(C#[O+])[Co]321(C#[O+])(C#[O+])C2C3CCC(C3)C21.[C-]#[O+]>>CCCCC12C3C4C5CCC(C5)C4[Co]1(C#[O+])(C#[O+])(C#[O+])[Co]32(C#[O+])(C#[O+])C#[O+]
p826
(g144
tp827
tp828
a(VCCCCC12C3[Co]1(C#[O+])(C#[O+])[Co]32(C#[O+])(C#[O+])C#[O+].C1=CC2CCC1C2>>CCCCC12C3[Co]1(C#[O+])(C#[O+])(C#[O+])[Co]321(C#[O+])(C#[O+])C2C3CCC(C3)C21
p829
(g166
tp830
tp831
a(VCCCCC12C3[Co]1(C#[O+])(C#[O+])(C#[O+])[Co]32(C#[O+])(C#[O+])C#[O+]>>CCCCC12C3[Co]1(C#[O+])(C#[O+])[Co]32(C#[O+])(C#[O+])C#[O+]
p832
(g189
tp833
tp834
a(VO=C1[Co]2(C#[O+])(C#[O+])(C#[O+])C(=O)[Co]12(C#[O+])(C#[O+])C#[O+].C#CCCCC>>CCCCC12C3[Co]1(C#[O+])(C#[O+])(C#[O+])[Co]32(C#[O+])(C#[O+])C#[O+]
p835
(g213
tp836
tp837
asVbyprods
p838
(dp839
Vmain
p840
(dp841
VCl[Ti](Cl)(Cl)Cl
p842
g50
((lp843
Vrx196
p844
atp845
Rp846
sVO
p847
g50
((lp848
Vrx244
p849
aVrx480
p850
aVrx431
p851
aVrx96
p852
atp853
Rp854
sV[Na+]
p855
g50
((lp856
Vrx53
p857
aVrx216
p858
aVrx381
p859
aVrx523
p860
aVrx94
p861
ag851
aVrx262
p862
aVrx57
p863
aVrx257
p864
aVrx276
p865
atp866
Rp867
sV[Na+];;;[Na+]
p868
g50
((lp869
g849
ag850
ag852
atp870
Rp871
sV[H][H]
p872
g50
((lp873
Vrx465
p874
aVrx418
p875
ag850
ag849
ag852
ag862
aVrx437
p876
aVrx492
p877
atp878
Rp879
sVOC([O-])=O
p880
g50
((lp881
Vrx159
p882
aVrx256
p883
aVrx416
p884
aVrx297
p885
aVrx200
p886
aVrx490
p887
aVrx78
p888
aVrx397
p889
aVrx214
p890
aVrx315
p891
aVrx472
p892
aVrx124
p893
atp894
Rp895
sV[K+]
p896
g50
((lp897
g875
ag882
ag883
ag884
ag885
ag886
aVrx307
p898
ag888
ag889
aVrx434
p899
ag891
aVrx288
p900
ag892
ag877
aVrx186
p901
atp902
Rp903
sVOS(O)(=O)=O
p904
g50
((lp905
Vrx76
p906
aVrx317
p907
aVrx334
p908
aVrx386
p909
aVrx336
p910
aVrx309
p911
atp912
Rp913
sV[O-]S([O-])(=O)=O
p914
g50
((lp915
g910
ag911
atp916
Rp917
sV[Mg++]
p918
g50
((lp919
g910
ag911
atp920
Rp921
sVO=C=O
p922
g50
((lp923
g851
atp924
Rp925
sVCC[NH+](CC)CC
p926
g50
((lp927
Vrx21
p928
aVrx22
p929
aVrx428
p930
aVrx92
p931
aVrx493
p932
atp933
Rp934
sVCl
p935
g50
((lp936
Vrx399
p937
aVrx438
p938
aVrx24
p939
aVrx509
p940
aVrx329
p941
aVrx420
p942
aVrx273
p943
aVrx495
p944
atp945
Rp946
sVC1CCNCC1;;;[K+]
p947
g50
((lp948
g890
ag887
ag893
atp949
Rp950
sVCCN(CC)CC
p951
g50
((lp952
Vrx356
p953
aVrx11
p954
atp955
Rp956
sVCC(C)(C)O
p957
g50
((lp958
Vrx137
p959
aVrx445
p960
aVrx359
p961
atp962
Rp963
sV[K+];;;CCCC
p964
g50
((lp965
g960
atp966
Rp967
sV[Li+]
p968
g50
((lp969
Vrx426
p970
aVrx221
p971
ag874
ag960
aVrx205
p972
aVrx267
p973
ag857
aVrx439
p974
aVrx70
p975
aVrx98
p976
aVrx193
p977
aVrx303
p978
aVrx450
p979
aVrx230
p980
aVrx179
p981
ag876
atp982
Rp983
sV[K+];;;[H][N+]1=C2CCCCCN2CCC1
p984
g50
((lp985
g959
ag961
atp986
Rp987
sV[Na+];;;[K+]
p988
g50
((lp989
Vrx178
p990
aVrx234
p991
atp992
Rp993
sVCCCC
p994
g50
((lp995
Vrx206
p996
ag972
atp997
Rp998
sVCC(C)NC(C)C
p999
g50
((lp1000
g981
ag977
ag860
atp1001
Rp1002
sVCN(C)P(=O)(N(C)C)N(C)C
p1003
g50
((lp1004
g977
atp1005
Rp1006
sV[H][N+]1([H])CCCCC1;;;[NH4+]
p1007
g50
((lp1008
Vrx167
p1009
atp1010
Rp1011
sVCC(=O)O
p1012
g50
((lp1013
g858
aVrx180
p1014
ag859
aVrx247
p1015
ag863
aVrx298
p1016
ag1009
ag864
atp1017
Rp1018
sVO;;;O
p1019
g50
((lp1020
g861
atp1021
Rp1022
sVC1C[NH+]=C2CCCCCN2C1
p1023
g50
((lp1024
Vrx446
p1025
aVrx220
p1026
atp1027
Rp1028
sVc1cc[nH+]cc1
p1029
g50
((lp1030
Vrx195
p1031
atp1032
Rp1033
sVCl[Al](Cl)Cl
p1034
g50
((lp1035
Vrx142
p1036
atp1037
Rp1038
sVCC(=O)[O-]
p1039
g50
((lp1040
Vrx25
p1041
aVrx417
p1042
aVrx148
p1043
aVrx281
p1044
atp1045
Rp1046
sV[I-]
p1047
g50
((lp1048
g978
ag980
atp1049
Rp1050
sVOC(C)(C)C
p1051
g50
((lp1052
g899
ag901
atp1053
Rp1054
sVOS(=O)(=O)[O-]
p1055
g50
((lp1056
Vrx255
p1057
aVrx104
p1058
aVrx29
p1059
aVrx64
p1060
atp1061
Rp1062
sV[Li+];;;CC(C)NC(C)C
p1063
g50
((lp1064
g972
atp1065
Rp1066
sV[H][H];;;CCCC
p1067
g50
((lp1068
g857
atp1069
Rp1070
sV[Li+];;;[H][N+]1=C2CCCCCN2CCC1
p1071
g50
((lp1072
g996
atp1073
Rp1074
sVO=P(N(C)C)(N(C)C)N(C)C
p1075
g50
((lp1076
Vrx387
p1077
atp1078
Rp1079
sVOC(=O)[O-]
p1080
g50
((lp1081
g898
atp1082
Rp1083
sVCC(C)NC(C)C;;;C1C[NH+]=C2CCCCCN2C1
p1084
g50
((lp1085
g974
ag973
atp1086
Rp1087
sVCC(C)NC(C)C;;;C[Si](C)(C)N[Si](C)(C)C
p1088
g50
((lp1089
g976
atp1090
Rp1091
sV[Na+];;;C1C[NH+]=C2CCCCCN2C1
p1092
g50
((lp1093
g976
atp1094
Rp1095
sVCCCC;;;[Na+]
p1096
g50
((lp1097
g874
ag876
atp1098
Rp1099
sV[H][H];;;[Li+]
p1100
g50
((lp1101
g860
atp1102
Rp1103
sVOC(=O)C
p1104
g50
((lp1105
Vrx36
p1106
aVrx411
p1107
atp1108
Rp1109
sVCCCC[N+](CCCC)(CCCC)CCCC;;;[Cs+]
p1110
g50
((lp1111
Vrx260
p1112
atp1113
Rp1114
sVC[Si](C)(C)N[Si](C)(C)C
p1115
g50
((lp1116
g865
atp1117
Rp1118
sV[O-]S(=O)(=O)C(F)(F)F
p1119
g50
((lp1120
g970
ag979
atp1121
Rp1122
sVOC(=O)C(F)(F)F;;;Cl[Ti](Cl)(Cl)Cl
p1123
g50
((lp1124
g844
atp1125
Rp1126
sVCCN(CC)CC;;;c1ccncc1
p1127
g50
((lp1128
Vrx520
p1129
atp1130
Rp1131
sVCc1ccc(cc1)S(O)(=O)=O
p1132
g50
((lp1133
Vrx339
p1134
aVrx245
p1135
aVrx432
p1136
aVrx313
p1137
aVrx522
p1138
atp1139
Rp1140
sVCl;;;OS(=O)(=O)O
p1141
g50
((lp1142
Vrx368
p1143
atp1144
Rp1145
sV-;;;-
p1146
g50
((lp1147
Vrx248
p1148
aVrx172
p1149
aVrx34
p1150
aVrx510
p1151
aVrx169
p1152
aVrx192
p1153
atp1154
Rp1155
sVCC(=O)O;;;CC(=O)O
p1156
g50
((lp1157
g937
atp1158
Rp1159
sVOc1c(Cl)c(Cl)c(O)c(C#N)c1C#N
p1160
g50
((lp1161
Vrx318
p1162
atp1163
Rp1164
sV-;;;[La];;;CCN(CC)CC
p1165
g50
((lp1166
Vrx133
p1167
atp1168
Rp1169
sVOC(=O)C(F)(F)F
p1170
g50
((lp1171
Vrx85
p1172
atp1173
Rp1174
sV[Fe+3]
p1175
g50
((lp1176
Vrx198
p1177
atp1178
Rp1179
sV-;;;Cl[Zn]Cl
p1180
g50
((lp1181
Vrx311
p1182
atp1183
Rp1184
sVP(=O)(O)(O)O
p1185
g50
((lp1186
Vrx253
p1187
aVrx32
p1188
atp1189
Rp1190
sVC(F)(F)(F)S(=O)(=O)[O-]
p1191
g50
((lp1192
g940
ag938
ag943
ag944
atp1193
Rp1194
sV[Sc+3];;;CNC
p1195
g50
((lp1196
g940
ag938
ag943
ag944
atp1197
Rp1198
sVB(F)(F)F
p1199
g50
((lp1200
Vrx396
p1201
atp1202
Rp1203
sVCCOCC;;;-
p1204
g50
((lp1205
g1201
atp1206
Rp1207
ssValter
p1208
(dp1209
ssVredox
p1210
g50
((lp1211
tp1212
Rp1213
sVhasCat
p1214
(dp1215
sVinitSubstrates
p1216
g50
((lp1217
VC#CCCCC
p1218
aV[C-]#[O+]
p1219
aVO=C1[Co]2(C#[O+])(C#[O+])(C#[O+])C(=O)[Co]12(C#[O+])(C#[O+])C#[O+]
p1220
aVC1=CC2CCC1C2
p1221
atp1222
Rp1223
sVsmilesToGen
p1224
(dp1225
VC1=CC2CCC1C2
p1226
I0
sVC#CCCCC
p1227
I0
sVO=C1[Co]2(C#[O+])(C#[O+])(C#[O+])C(=O)[Co]12(C#[O+])(C#[O+])C#[O+]
p1228
I0
sg1219
I0
sVCCCCC12C3[Co]1(C#[O+])(C#[O+])(C#[O+])[Co]32(C#[O+])(C#[O+])C#[O+]
p1229
I1
sVCCCCC12C3[Co]1(C#[O+])(C#[O+])[Co]32(C#[O+])(C#[O+])C#[O+]
p1230
I2
sVCCCCC12C3[Co]1(C#[O+])(C#[O+])(C#[O+])[Co]321(C#[O+])(C#[O+])C2C3CCC(C3)C21
p1231
I3
sVCCCCC12C3C4C5CCC(C5)C4[Co]1(C#[O+])(C#[O+])(C#[O+])[Co]32(C#[O+])(C#[O+])C#[O+]
p1232
I4
sVCCCCC12C3C4C5CCC(C5)C4C(=O)[Co]1(C#[O+])(C#[O+])(C#[O+])[Co]32(C#[O+])(C#[O+])C#[O+]
p1233
I5
sVCCCCC12C(=O)C3C4CCC(C4)C3C1[Co]2(C#[O+])(C#[O+])(C#[O+])[Co](C#[O+])(C#[O+])C#[O+]
p1234
I6
sVCCCCC1=CC2C3CCC(C3)C2C1=O
p1235
I7
sV[O+]#C[Co](C#[O+])(C#[O+])[Co](C#[O+])(C#[O+])C#[O+]
p1236
I7
ssVgraph
p1237
ccopy_reg
_reconstructor
p1238
(cnetworkx.classes.digraph
DiGraph
p1239
c__builtin__
object
p1240
Ntp1241
Rp1242
(dp1243
Vgraph_attr_dict_factory
p1244
c__builtin__
dict
p1245
sVnode_dict_factory
p1246
g1245
sVnode_attr_dict_factory
p1247
g1245
sVadjlist_outer_dict_factory
p1248
g1245
sVadjlist_inner_dict_factory
p1249
g1245
sVedge_attr_dict_factory
p1250
g1245
sg237
(dp1251
sV_node
p1252
(dp1253
VCCCCC12C(=O)C3C4CCC(C4)C3C1[Co]2(C#[O+])(C#[O+])(C#[O+])[Co](C#[O+])(C#[O+])C#[O+]
p1254
(dp1255
s(VCCCCC12C(=O)C3C4CCC(C4)C3C1[Co]2(C#[O+])(C#[O+])(C#[O+])[Co](C#[O+])(C#[O+])C#[O+]>>CCCCC1=CC2C3CCC(C3)C2C1=O
p1256
(VKM6479B
p1257
tp1258
tp1259
(dp1260
sg1235
(dp1261
sg1236
(dp1262
sVCCCCC12C3C4C5CCC(C5)C4C(=O)[Co]1(C#[O+])(C#[O+])(C#[O+])[Co]32(C#[O+])(C#[O+])C#[O+]
p1263
(dp1264
s(VCCCCC12C3C4C5CCC(C5)C4C(=O)[Co]1(C#[O+])(C#[O+])(C#[O+])[Co]32(C#[O+])(C#[O+])C#[O+]>>CCCCC12C(=O)C3C4CCC(C4)C3C1[Co]2(C#[O+])(C#[O+])(C#[O+])[Co](C#[O+])(C#[O+])C#[O+]
p1265
(VKM6469B
p1266
tp1267
tp1268
(dp1269
sVCCCCC12C3C4C5CCC(C5)C4[Co]1(C#[O+])(C#[O+])(C#[O+])[Co]32(C#[O+])(C#[O+])C#[O+]
p1270
(dp1271
s(VCCCCC12C3C4C5CCC(C5)C4[Co]1(C#[O+])(C#[O+])(C#[O+])[Co]32(C#[O+])(C#[O+])C#[O+].[C-]#[O+]>>CCCCC12C3C4C5CCC(C5)C4C(=O)[Co]1(C#[O+])(C#[O+])(C#[O+])[Co]32(C#[O+])(C#[O+])C#[O+]
p1272
(VKM6468B
p1273
tp1274
tp1275
(dp1276
sV[C-]#[O+]
p1277
(dp1278
sVCCCCC12C3[Co]1(C#[O+])(C#[O+])(C#[O+])[Co]321(C#[O+])(C#[O+])C2C3CCC(C3)C21
p1279
(dp1280
s(VCCCCC12C3[Co]1(C#[O+])(C#[O+])(C#[O+])[Co]321(C#[O+])(C#[O+])C2C3CCC(C3)C21.[C-]#[O+]>>CCCCC12C3C4C5CCC(C5)C4[Co]1(C#[O+])(C#[O+])(C#[O+])[Co]32(C#[O+])(C#[O+])C#[O+]
p1281
(VKM6467B
p1282
tp1283
tp1284
(dp1285
sVCCCCC12C3[Co]1(C#[O+])(C#[O+])[Co]32(C#[O+])(C#[O+])C#[O+]
p1286
(dp1287
s(VCCCCC12C3[Co]1(C#[O+])(C#[O+])[Co]32(C#[O+])(C#[O+])C#[O+].C1=CC2CCC1C2>>CCCCC12C3[Co]1(C#[O+])(C#[O+])(C#[O+])[Co]321(C#[O+])(C#[O+])C2C3CCC(C3)C21
p1288
(VKM6465
p1289
tp1290
tp1291
(dp1292
sg1226
(dp1293
sVCCCCC12C3[Co]1(C#[O+])(C#[O+])(C#[O+])[Co]32(C#[O+])(C#[O+])C#[O+]
p1294
(dp1295
s(VCCCCC12C3[Co]1(C#[O+])(C#[O+])(C#[O+])[Co]32(C#[O+])(C#[O+])C#[O+]>>CCCCC12C3[Co]1(C#[O+])(C#[O+])[Co]32(C#[O+])(C#[O+])C#[O+]
p1296
(VKM6464
p1297
tp1298
tp1299
(dp1300
sg1227
(dp1301
s(VO=C1[Co]2(C#[O+])(C#[O+])(C#[O+])C(=O)[Co]12(C#[O+])(C#[O+])C#[O+].C#CCCCC>>CCCCC12C3[Co]1(C#[O+])(C#[O+])(C#[O+])[Co]32(C#[O+])(C#[O+])C#[O+]
p1302
(VKM6463
p1303
tp1304
tp1305
(dp1306
sg1228
(dp1307
ssV_adj
p1308
(dp1309
g1254
(dp1310
g1259
(dp1311
ssg1259
(dp1312
g1235
(dp1313
sg1236
(dp1314
ssg1235
(dp1315
sg1236
(dp1316
sg1263
(dp1317
g1268
(dp1318
ssg1268
(dp1319
g1234
(dp1320
ssg1270
(dp1321
g1275
(dp1322
ssg1275
(dp1323
g1233
(dp1324
ssg1277
(dp1325
g1275
(dp1326
sg1284
(dp1327
ssg1279
(dp1328
g1284
(dp1329
ssg1284
(dp1330
g1232
(dp1331
ssg1286
(dp1332
g1291
(dp1333
ssg1291
(dp1334
g1231
(dp1335
ssg1226
(dp1336
g1291
(dp1337
ssg1294
(dp1338
g1299
(dp1339
ssg1299
(dp1340
g1230
(dp1341
sV[C-]#[O+]
p1342
(dp1343
ssg1227
(dp1344
g1305
(dp1345
ssg1305
(dp1346
g1229
(dp1347
sV[C-]#[O+]
p1348
(dp1349
ssg1228
(dp1350
g1305
(dp1351
sssV_pred
p1352
(dp1353
g1254
(dp1354
g1268
g1320
ssg1259
(dp1355
g1254
g1311
ssg1235
(dp1356
g1259
g1313
ssg1236
(dp1357
g1259
g1314
ssg1263
(dp1358
g1275
g1324
ssg1268
(dp1359
g1263
g1318
ssg1270
(dp1360
g1284
g1331
ssg1275
(dp1361
g1270
g1322
sg1277
g1326
ssg1277
(dp1362
g1299
g1343
sg1305
g1349
ssg1279
(dp1363
g1291
g1335
ssg1284
(dp1364
g1279
g1329
sV[C-]#[O+]
p1365
g1327
ssg1286
(dp1366
g1299
g1341
ssg1291
(dp1367
g1286
g1333
sg1226
g1337
ssg1226
(dp1368
sg1294
(dp1369
g1305
g1347
ssg1299
(dp1370
g1294
g1339
ssg1227
(dp1371
sg1305
(dp1372
g1227
g1345
sg1228
g1351
ssg1228
(dp1373
ssV_succ
p1374
g1309
sVnodes
p1375
g1238
(cnetworkx.classes.reportviews
NodeView
p1376
g1240
Ntp1377
Rp1378
(dp1379
V_nodes
p1380
g1253
sbsbsssg1237
g1238
(g1239
g1240
Ntp1381
Rp1382
(dp1383
g1244
g1245
sg1246
g1245
sg1247
g1245
sg1248
g1245
sg1249
g1245
sg1250
g1245
sg237
(dp1384
sg1252
(dp1385
I1
(dp1386
sVCCCCC1=CC2C3CCC(C3)C2C1=O
p1387
(dp1388
sV[O+]#C[Co](C#[O+])(C#[O+])[Co](C#[O+])(C#[O+])C#[O+]
p1389
(dp1390
sVCCCCC12C(=O)C3C4CCC(C4)C3C1[Co]2(C#[O+])(C#[O+])(C#[O+])[Co](C#[O+])(C#[O+])C#[O+]
p1391
(dp1392
sI8
(dp1393
sI2
(dp1394
sVCCCCC12C3C4C5CCC(C5)C4C(=O)[Co]1(C#[O+])(C#[O+])(C#[O+])[Co]32(C#[O+])(C#[O+])C#[O+]
p1395
(dp1396
sI3
(dp1397
sVCCCCC12C3C4C5CCC(C5)C4[Co]1(C#[O+])(C#[O+])(C#[O+])[Co]32(C#[O+])(C#[O+])C#[O+]
p1398
(dp1399
sV[C-]#[O+]
p1400
(dp1401
sI4
(dp1402
sVCCCCC12C3[Co]1(C#[O+])(C#[O+])(C#[O+])[Co]321(C#[O+])(C#[O+])C2C3CCC(C3)C21
p1403
(dp1404
sI5
(dp1405
sVCCCCC12C3[Co]1(C#[O+])(C#[O+])[Co]32(C#[O+])(C#[O+])C#[O+]
p1406
(dp1407
sVC1=CC2CCC1C2
p1408
(dp1409
sI6
(dp1410
sVCCCCC12C3[Co]1(C#[O+])(C#[O+])(C#[O+])[Co]32(C#[O+])(C#[O+])C#[O+]
p1411
(dp1412
sI7
(dp1413
sVO=C1[Co]2(C#[O+])(C#[O+])(C#[O+])C(=O)[Co]12(C#[O+])(C#[O+])C#[O+]
p1414
(dp1415
sVC#CCCCC
p1416
(dp1417
sVCCCCC12C(O)=C3C4CCC(C4)C3C1[Co]2(C#[O+])(C#[O+])(C#[O+])[Co](C#[O+])(C#[O+])C#[O+]
p1418
(dp1419
sV5_REV
p1420
(dp1421
sV6_REV
p1422
(dp1423
sV7_REV
p1424
(dp1425
ssg1308
(dp1426
I1
(dp1427
g1387
(dp1428
sg1389
(dp1429
ssg1387
(dp1430
sg1389
(dp1431
sg1391
(dp1432
I1
(dp1433
sI8
(dp1434
ssI8
(dp1435
g1418
(dp1436
ssI2
(dp1437
VCCCCC12C(=O)C3C4CCC(C4)C3C1[Co]2(C#[O+])(C#[O+])(C#[O+])[Co](C#[O+])(C#[O+])C#[O+]
p1438
(dp1439
ssg1395
(dp1440
I2
(dp1441
ssI3
(dp1442
VCCCCC12C3C4C5CCC(C5)C4C(=O)[Co]1(C#[O+])(C#[O+])(C#[O+])[Co]32(C#[O+])(C#[O+])C#[O+]
p1443
(dp1444
ssg1398
(dp1445
I3
(dp1446
ssg1400
(dp1447
I3
(dp1448
sI4
(dp1449
sg1422
(dp1450
sg1424
(dp1451
ssI4
(dp1452
VCCCCC12C3C4C5CCC(C5)C4[Co]1(C#[O+])(C#[O+])(C#[O+])[Co]32(C#[O+])(C#[O+])C#[O+]
p1453
(dp1454
ssg1403
(dp1455
I4
(dp1456
sg1420
(dp1457
ssI5
(dp1458
VCCCCC12C3[Co]1(C#[O+])(C#[O+])(C#[O+])[Co]321(C#[O+])(C#[O+])C2C3CCC(C3)C21
p1459
(dp1460
ssg1406
(dp1461
I5
(dp1462
sg1422
(dp1463
ssg1408
(dp1464
I5
(dp1465
ssI6
(dp1466
VCCCCC12C3[Co]1(C#[O+])(C#[O+])[Co]32(C#[O+])(C#[O+])C#[O+]
p1467
(dp1468
sV[C-]#[O+]
p1469
(dp1470
ssg1411
(dp1471
I6
(dp1472
sg1424
(dp1473
ssI7
(dp1474
VCCCCC12C3[Co]1(C#[O+])(C#[O+])(C#[O+])[Co]32(C#[O+])(C#[O+])C#[O+]
p1475
(dp1476
sV[C-]#[O+]
p1477
(dp1478
ssg1414
(dp1479
I7
(dp1480
ssg1416
(dp1481
I7
(dp1482
ssg1418
(dp1483
sg1420
(dp1484
VC1=CC2CCC1C2
p1485
(dp1486
sVCCCCC12C3[Co]1(C#[O+])(C#[O+])[Co]32(C#[O+])(C#[O+])C#[O+]
p1487
(dp1488
ssg1422
(dp1489
VCCCCC12C3[Co]1(C#[O+])(C#[O+])(C#[O+])[Co]32(C#[O+])(C#[O+])C#[O+]
p1490
(dp1491
ssg1424
(dp1492
VC#CCCCC
p1493
(dp1494
sVO=C1[Co]2(C#[O+])(C#[O+])(C#[O+])C(=O)[Co]12(C#[O+])(C#[O+])C#[O+]
p1495
(dp1496
sssg1352
(dp1497
I1
(dp1498
g1391
g1433
ssg1387
(dp1499
I1
g1428
ssg1389
(dp1500
I1
g1429
ssg1391
(dp1501
I2
g1439
ssI8
(dp1502
g1391
g1434
ssI2
(dp1503
g1395
g1441
ssg1395
(dp1504
I3
g1444
ssI3
(dp1505
g1398
g1446
sg1400
g1448
ssg1398
(dp1506
I4
g1454
ssg1400
(dp1507
I6
g1470
sI7
g1478
ssI4
(dp1508
g1400
g1449
sg1403
g1456
ssg1403
(dp1509
I5
g1460
ssI5
(dp1510
g1406
g1462
sg1408
g1465
ssg1406
(dp1511
I6
g1468
sg1420
g1488
ssg1408
(dp1512
g1420
g1486
ssI6
(dp1513
g1411
g1472
ssg1411
(dp1514
I7
g1476
sg1422
g1491
ssI7
(dp1515
g1414
g1480
sg1416
g1482
ssg1414
(dp1516
g1424
g1496
ssg1416
(dp1517
g1424
g1494
ssg1418
(dp1518
I8
g1436
ssg1420
(dp1519
VCCCCC12C3[Co]1(C#[O+])(C#[O+])(C#[O+])[Co]321(C#[O+])(C#[O+])C2C3CCC(C3)C21
p1520
g1457
ssg1422
(dp1521
V[C-]#[O+]
p1522
g1450
sVCCCCC12C3[Co]1(C#[O+])(C#[O+])[Co]32(C#[O+])(C#[O+])C#[O+]
p1523
g1463
ssg1424
(dp1524
V[C-]#[O+]
p1525
g1451
sVCCCCC12C3[Co]1(C#[O+])(C#[O+])(C#[O+])[Co]32(C#[O+])(C#[O+])C#[O+]
p1526
g1473
sssg1374
g1426
sg1375
g1238
(g1376
g1240
Ntp1527
Rp1528
(dp1529
g1380
g1385
sbsbssI1
(dp1530
g4
(dp1531
g6
(dp1532
g8
(lp1533
sg10
(lp1534
(lp1535
a(lp1536
a(lp1537
a(lp1538
a(lp1539
a(lp1540
a(lp1541
(dp1542
g20
VCCCCC12C(=O)C3C4CCC(C4)C3C1[Co]2(C#[O+])(C#[O+])(C#[O+])[Co](C#[O+])(C#[O+])C#[O+]>>CCCCC12C(O)=C3C4CCC(C4)C3C1[Co]2(C#[O+])(C#[O+])(C#[O+])[Co](C#[O+])(C#[O+])C#[O+]
p1543
sg22
(lp1544
g24
asg25
(lp1545
sg27
V[C:1]1(=[O:2])[CH:10]2[CH:9]([CH:14]3[CH2:13][CH2:12][CH:11]2[CH2:15]3)[CH:1003]2[C:1004]1([CH2:1005][CH2:1006][CH2:1007][CH3:1008])[Co:1018]2([C:1019]#[O+:1020])([C:1021]#[O+:1022])([C:1023]#[O+:1024])[Co:1027]([C:1001]#[O+:1002])([C:1030]#[O+:1031])[C:1032]#[O+:1033]>>[C:1]1([OH:2])=[C:10]2[CH:9]([CH:14]3[CH2:13][CH2:12][CH:11]2[CH2:15]3)[CH:1003]2[C:1004]1([CH2:1005][CH2:1006][CH2:1007][CH3:1008])[Co:1018]2([C:1019]#[O+:1020])([C:1021]#[O+:1022])([C:1023]#[O+:1024])[Co:1027]([C:1001]#[O+:1002])([C:1030]#[O+:1031])[C:1032]#[O+:1033]
p1546
sg29
V(thio)Keto-enol tautomerisation
p1547
sg31
g32
sg33
V<BR> allow temp:rt.H, allow AB: B.WB.N.WA.A.SA.LA
p1548
sg35
g36
sg37
g32
sg38
g39
sg40
g32
sg41
g1543
sg42
I00
sg43
I00
sg44
F943.91768
sg45
I00
saasVsmiMolMap
p1549
(dp1550
VCCCCC1=CC2C3CCC(C3)C2C1=O
p1551
V\u000a     RDKit          2D\u000a\u000a 15 17  0  0  0  0  0  0  0  0999 V2000\u000a   -3.0622   -2.7302    0.0000 C   0  0  0  0  0  0  0  0  0  0  0  0\u000a   -2.6058   -1.8402    0.0000 C   0  0  0  0  0  0  0  0  0  0  0  0\u000a   -1.6106   -1.7956    0.0000 C   0  0  0  0  0  0  0  0  0  0  0  0\u000a   -1.1416   -0.9122    0.0000 C   0  0  0  0  0  0  0  0  0  0  0  0\u000a   -0.1370   -0.8964    0.0000 C   0  0  0  0  0  0  0  0  0  0  0  0\u000a    0.5234   -1.8620    0.0000 C   0  0  0  0  0  0  0  0  0  0  0  0\u000a    1.4230   -1.5636    0.0000 C   0  0  0  0  0  0  0  0  0  0  0  0\u000a    2.3840   -1.5002    0.0000 C   0  0  0  0  0  0  0  0  0  0  0  0\u000a    3.3622   -1.3868    0.0000 C   0  0  0  0  0  0  0  0  0  0  0  0\u000a    3.3586   -0.3826    0.0000 C   0  0  0  0  0  0  0  0  0  0  0  0\u000a    2.3824   -0.2772    0.0000 C   0  0  0  0  0  0  0  0  0  0  0  0\u000a    2.1944   -0.8922    0.0000 C   0  0  0  0  0  0  0  0  0  0  0  0\u000a    1.4184   -0.2200    0.0000 C   0  0  0  0  0  0  0  0  0  0  0  0\u000a    0.5162    0.0728    0.0000 C   0  0  0  0  0  0  0  0  0  0  0  0\u000a    0.1922    1.0082    0.0000 O   0  0  0  0  0  0  0  0  0  0  0  0\u000a  1  2  1  0\u000a  2  3  1  0\u000a  3  4  1  0\u000a  4  5  1  0\u000a  5  6  2  0\u000a  6  7  1  0\u000a  7  8  1  0\u000a  8  9  1  0\u000a  9 10  1  0\u000a 10 11  1  0\u000a 11 12  1  0\u000a 11 13  1  0\u000a 13 14  1  0\u000a 14 15  2  0\u000a 14  5  1  0\u000a 13  7  1  0\u000a 12  8  1  0\u000aM  END\u000a
p1552
sVCCCCC12C3[Co]1(C#[O+])(C#[O+])[Co]32(C#[O+])(C#[O+])C#[O+]
p1553
V\u000a     RDKit          2D\u000a\u000a 18 20  0  0  0  0  0  0  0  0999 V2000\u000a   -4.5880    0.5544    0.0000 C   0  0  0  0  0  0  0  0  0  0  0  0\u000a   -3.7216    0.0552    0.0000 C   0  0  0  0  0  0  0  0  0  0  0  0\u000a   -2.8560    0.5558    0.0000 C   0  0  0  0  0  0  0  0  0  0  0  0\u000a   -1.9896    0.0566    0.0000 C   0  0  0  0  0  0  0  0  0  0  0  0\u000a   -1.1240    0.5572    0.0000 C   0  0  0  0  0  0  0  0  0  0  0  0\u000a   -0.2576    0.0580    0.0000 C   0  0  0  0  0  0  0  0  0  0  0  0\u000a    1.0404    1.3092    0.0000 Co  0  0  0  0  0  5  0  0  0  0  0  0\u000a    0.3548    3.1876    0.0000 C   0  0  0  0  0  0  0  0  0  0  0  0\u000a    0.0119    4.1270    0.0000 O   0  0  0  0  0  3  0  0  0  0  0  0\u000a    3.0096    1.6580    0.0000 C   0  0  0  0  0  0  0  0  0  0  0  0\u000a    3.9943    1.8324    0.0000 O   0  0  0  0  0  3  0  0  0  0  0  0\u000a    1.0420   -0.6908    0.0000 Co  0  0  0  0  0  6  0  0  0  0  0  0\u000a    2.9736   -0.1716    0.0000 C   0  0  0  0  0  0  0  0  0  0  0  0\u000a    3.9393    0.0880    0.0000 O   0  0  0  0  0  3  0  0  0  0  0  0\u000a    2.0436   -2.4220    0.0000 C   0  0  0  0  0  0  0  0  0  0  0  0\u000a    2.5444   -3.2876    0.0000 O   0  0  0  0  0  3  0  0  0  0  0  0\u000a   -0.3712   -2.1064    0.0000 C   0  0  0  0  0  0  0  0  0  0  0  0\u000a   -1.0777   -2.8141    0.0000 O   0  0  0  0  0  3  0  0  0  0  0  0\u000a  1  2  1  0\u000a  2  3  1  0\u000a  3  4  1  0\u000a  4  5  1  0\u000a  5  6  1  0\u000a  6  7  1  0\u000a  7  8  1  0\u000a  8  9  3  0\u000a  7 10  1  0\u000a 10 11  3  0\u000a  7 12  1  0\u000a 12 13  1  0\u000a 13 14  3  0\u000a 12 15  1  0\u000a 15 16  3  0\u000a 12 17  1  0\u000a 17 18  3  0\u000a  7  5  1  0\u000a 12  5  1  0\u000a 12  6  1  0\u000aM  CHG  5   9   1  11   1  14   1  16   1  18   1\u000aM  END\u000a
p1554
sV[C-]#[O+]
p1555
V\u000a     RDKit          2D\u000a\u000a  2  1  0  0  0  0  0  0  0  0999 V2000\u000a   -1.0000    0.0000    0.0000 C   0  0  0  0  0  3  0  0  0  0  0  0\u000a    0.0000    0.0000    0.0000 O   0  0  0  0  0  3  0  0  0  0  0  0\u000a  1  2  3  0\u000aM  CHG  2   1  -1   2   1\u000aM  END\u000a
p1556
sVC1=CC2CCC1C2
p1557
V\u000a     RDKit          2D\u000a\u000a  7  8  0  0  0  0  0  0  0  0999 V2000\u000a   -0.7782    0.8310    0.0000 C   0  0  0  0  0  0  0  0  0  0  0  0\u000a   -0.7772   -0.2032    0.0000 C   0  0  0  0  0  0  0  0  0  0  0  0\u000a    0.2080   -0.3358    0.0000 C   0  0  0  0  0  0  0  0  0  0  0  0\u000a    1.1632   -0.4244    0.0000 C   0  0  0  0  0  0  0  0  0  0  0  0\u000a    1.1618    1.0558    0.0000 C   0  0  0  0  0  0  0  0  0  0  0  0\u000a    0.2068    0.9654    0.0000 C   0  0  0  0  0  0  0  0  0  0  0  0\u000a    0.4168    0.3150    0.0000 C   0  0  0  0  0  0  0  0  0  0  0  0\u000a  1  2  2  0\u000a  2  3  1  0\u000a  3  4  1  0\u000a  4  5  1  0\u000a  5  6  1  0\u000a  6  7  1  0\u000a  6  1  1  0\u000a  7  3  1  0\u000aM  END\u000a
p1558
sVCCCCC12C3[Co]1(C#[O+])(C#[O+])(C#[O+])[Co]32(C#[O+])(C#[O+])C#[O+]
p1559
V\u000a     RDKit          2D\u000a\u000a 20 22  0  0  0  0  0  0  0  0999 V2000\u000a    0.9253    5.6018    0.0000 C   0  0  0  0  0  0  0  0  0  0  0  0\u000a    1.3985    4.7204    0.0000 C   0  0  0  0  0  0  0  0  0  0  0  0\u000a    0.8720    3.8698    0.0000 C   0  0  0  0  0  0  0  0  0  0  0  0\u000a    1.3452    2.9885    0.0000 C   0  0  0  0  0  0  0  0  0  0  0  0\u000a    0.8186    2.1379    0.0000 C   0  0  0  0  0  0  0  0  0  0  0  0\u000a    1.2918    1.2565    0.0000 C   0  0  0  0  0  0  0  0  0  0  0  0\u000a   -0.0208    0.0260    0.0000 Co  0  0  0  0  0  6  0  0  0  0  0  0\u000a    0.3464   -1.9308    0.0000 C   0  0  0  0  0  0  0  0  0  0  0  0\u000a    0.5308   -2.9136    0.0000 O   0  0  0  0  0  3  0  0  0  0  0  0\u000a   -1.7992   -0.8652    0.0000 C   0  0  0  0  0  0  0  0  0  0  0  0\u000a   -2.6932   -1.3132    0.0000 O   0  0  0  0  0  3  0  0  0  0  0  0\u000a   -1.3448    1.4992    0.0000 C   0  0  0  0  0  0  0  0  0  0  0  0\u000a   -2.0132    2.2430    0.0000 O   0  0  0  0  0  3  0  0  0  0  0  0\u000a    2.0288   -0.0352    0.0000 Co  0  0  0  0  0  6  0  0  0  0  0  0\u000a    3.4388    1.3556    0.0000 C   0  0  0  0  0  0  0  0  0  0  0  0\u000a    4.1507    2.0578    0.0000 O   0  0  0  0  0  3  0  0  0  0  0  0\u000a    3.7504   -1.0320    0.0000 C   0  0  0  0  0  0  0  0  0  0  0  0\u000a    4.6158   -1.5331    0.0000 O   0  0  0  0  0  3  0  0  0  0  0  0\u000a    1.5448   -1.9664    0.0000 C   0  0  0  0  0  0  0  0  0  0  0  0\u000a    1.3017   -2.9364    0.0000 O   0  0  0  0  0  3  0  0  0  0  0  0\u000a  1  2  1  0\u000a  2  3  1  0\u000a  3  4  1  0\u000a  4  5  1  0\u000a  5  6  1  0\u000a  6  7  1  0\u000a  7  8  1  0\u000a  8  9  3  0\u000a  7 10  1  0\u000a 10 11  3  0\u000a  7 12  1  0\u000a 12 13  3  0\u000a  7 14  1  0\u000a 14 15  1  0\u000a 15 16  3  0\u000a 14 17  1  0\u000a 17 18  3  0\u000a 14 19  1  0\u000a 19 20  3  0\u000a  7  5  1  0\u000a 14  5  1  0\u000a 14  6  1  0\u000aM  CHG  6   9   1  11   1  13   1  16   1  18   1  20   1\u000aM  END\u000a
p1560
sVCCCCC12C(O)=C3C4CCC(C4)C3C1[Co]2(C#[O+])(C#[O+])(C#[O+])[Co](C#[O+])(C#[O+])C#[O+]
p1561
V\u000a     RDKit          2D\u000a\u000a 29 32  0  0  0  0  0  0  0  0999 V2000\u000a    0.8513   -1.8417    0.0000 C   0  0  0  0  0  0  0  0  0  0  0  0\u000a    1.6784   -1.2793    0.0000 C   0  0  0  0  0  0  0  0  0  0  0  0\u000a    2.5733   -1.7170    0.0000 C   0  0  0  0  0  0  0  0  0  0  0  0\u000a    3.4083   -1.1664    0.0000 C   0  0  0  0  0  0  0  0  0  0  0  0\u000a    4.2976   -1.6340    0.0000 C   0  0  0  0  0  0  0  0  0  0  0  0\u000a    5.3353   -1.0964    0.0000 C   0  0  0  0  0  0  0  0  0  0  0  0\u000a    5.4992   -0.1201    0.0000 O   0  0  0  0  0  0  0  0  0  0  0  0\u000a    5.9869   -1.7857    0.0000 C   0  0  0  0  0  0  0  0  0  0  0  0\u000a    6.8055   -2.2979    0.0000 C   0  0  0  0  0  0  0  0  0  0  0  0\u000a    7.6118   -2.8582    0.0000 C   0  0  0  0  0  0  0  0  0  0  0  0\u000a    7.1338   -3.7413    0.0000 C   0  0  0  0  0  0  0  0  0  0  0  0\u000a    6.2209   -3.3721    0.0000 C   0  0  0  0  0  0  0  0  0  0  0  0\u000a    6.3458   -2.7476    0.0000 C   0  0  0  0  0  0  0  0  0  0  0  0\u000a    5.3470   -2.9672    0.0000 C   0  0  0  0  0  0  0  0  0  0  0  0\u000a    4.4144   -2.7980    0.0000 C   0  0  0  0  0  0  0  0  0  0  0  0\u000a    0.5568   -3.4680    0.0000 Co  0  0  0  0  0  6  0  0  0  0  0  0\u000a    2.9216   -6.6944    0.0000 C   0  0  0  0  0  0  0  0  0  0  0  0\u000a    3.5128   -7.5010    0.0000 O   0  0  0  0  0  3  0  0  0  0  0  0\u000a   -1.7808   -6.7136    0.0000 C   0  0  0  0  0  0  0  0  0  0  0  0\u000a   -2.3652   -7.5250    0.0000 O   0  0  0  0  0  3  0  0  0  0  0  0\u000a   -3.2528   -2.2480    0.0000 C   0  0  0  0  0  0  0  0  0  0  0  0\u000a   -4.2052   -1.9430    0.0000 O   0  0  0  0  0  3  0  0  0  0  0  0\u000a    0.5400    0.5312    0.0000 Co  0  0  0  0  0  4  0  0  0  0  0  0\u000a    4.5400    0.5480    0.0000 C   0  0  0  0  0  0  0  0  0  0  0  0\u000a    5.5400    0.5522    0.0000 O   0  0  0  0  0  3  0  0  0  0  0  0\u000a    0.5232    4.5312    0.0000 C   0  0  0  0  0  0  0  0  0  0  0  0\u000a    0.5190    5.5312    0.0000 O   0  0  0  0  0  3  0  0  0  0  0  0\u000a   -3.4600    0.5144    0.0000 C   0  0  0  0  0  0  0  0  0  0  0  0\u000a   -4.4600    0.5102    0.0000 O   0  0  0  0  0  3  0  0  0  0  0  0\u000a  1  2  1  0\u000a  2  3  1  0\u000a  3  4  1  0\u000a  4  5  1  0\u000a  5  6  1  0\u000a  6  7  1  0\u000a  6  8  2  0\u000a  8  9  1  0\u000a  9 10  1  0\u000a 10 11  1  0\u000a 11 12  1  0\u000a 12 13  1  0\u000a 12 14  1  0\u000a 14 15  1  0\u000a 15 16  1  0\u000a 16 17  1  0\u000a 17 18  3  0\u000a 16 19  1  0\u000a 19 20  3  0\u000a 16 21  1  0\u000a 21 22  3  0\u000a 16 23  1  0\u000a 23 24  1  0\u000a 24 25  3  0\u000a 23 26  1  0\u000a 26 27  3  0\u000a 23 28  1  0\u000a 28 29  3  0\u000a 15  5  1  0\u000a 16  5  1  0\u000a 14  8  1  0\u000a 13  9  1  0\u000aM  CHG  6  18   1  20   1  22   1  25   1  27   1  29   1\u000aM  END\u000a
p1562
sVCCCCC1=CC2C(=C1O)C1CCC2C1
p1563
V\u000a     RDKit          2D\u000a\u000a 15 17  0  0  0  0  0  0  0  0999 V2000\u000a   -4.0622   -2.7302    0.0000 C   0  0  0  0  0  0  0  0  0  0  0  0\u000a   -3.6058   -1.8402    0.0000 C   0  0  0  0  0  0  0  0  0  0  0  0\u000a   -2.6106   -1.7956    0.0000 C   0  0  0  0  0  0  0  0  0  0  0  0\u000a   -2.1416   -0.9122    0.0000 C   0  0  0  0  0  0  0  0  0  0  0  0\u000a   -1.1370   -0.8964    0.0000 C   0  0  0  0  0  0  0  0  0  0  0  0\u000a   -0.4766   -1.8620    0.0000 C   0  0  0  0  0  0  0  0  0  0  0  0\u000a    0.4230   -1.5636    0.0000 C   0  0  0  0  0  0  0  0  0  0  0  0\u000a    0.4184   -0.2200    0.0000 C   0  0  0  0  0  0  0  0  0  0  0  0\u000a   -0.4838    0.0728    0.0000 C   0  0  0  0  0  0  0  0  0  0  0  0\u000a   -0.8078    1.0082    0.0000 O   0  0  0  0  0  0  0  0  0  0  0  0\u000a    1.3824   -0.2772    0.0000 C   0  0  0  0  0  0  0  0  0  0  0  0\u000a    2.3586   -0.3826    0.0000 C   0  0  0  0  0  0  0  0  0  0  0  0\u000a    2.3622   -1.3868    0.0000 C   0  0  0  0  0  0  0  0  0  0  0  0\u000a    1.3840   -1.5002    0.0000 C   0  0  0  0  0  0  0  0  0  0  0  0\u000a    1.1944   -0.8922    0.0000 C   0  0  0  0  0  0  0  0  0  0  0  0\u000a  1  2  1  0\u000a  2  3  1  0\u000a  3  4  1  0\u000a  4  5  1  0\u000a  5  6  2  0\u000a  6  7  1  0\u000a  7  8  1  0\u000a  8  9  2  0\u000a  9 10  1  0\u000a  8 11  1  0\u000a 11 12  1  0\u000a 12 13  1  0\u000a 13 14  1  0\u000a 14 15  1  0\u000a  9  5  1  0\u000a 15 11  1  0\u000a 14  7  1  0\u000aM  END\u000a
p1564
sVCCCCC12C3C4C5CCC(C5)C4[Co]1(C#[O+])(C#[O+])(C#[O+])[Co]32(C#[O+])(C#[O+])C#[O+]
p1565
V\u000a     RDKit          2D\u000a\u000a 27 31  0  0  0  0  0  0  0  0999 V2000\u000a   -2.0292    1.3950    0.0000 C   0  0  0  0  0  0  0  0  0  0  0  0\u000a   -1.2326    2.0075    0.0000 C   0  0  0  0  0  0  0  0  0  0  0  0\u000a   -0.3023    1.6244    0.0000 C   0  0  0  0  0  0  0  0  0  0  0  0\u000a    0.4973    2.2377    0.0000 C   0  0  0  0  0  0  0  0  0  0  0  0\u000a    1.4296    1.8531    0.0000 C   0  0  0  0  0  0  0  0  0  0  0  0\u000a    2.2315    2.4659    0.0000 C   0  0  0  0  0  0  0  0  0  0  0  0\u000a    2.1083    3.4543    0.0000 C   0  0  0  0  0  0  0  0  0  0  0  0\u000a    2.7591    4.2102    0.0000 C   0  0  0  0  0  0  0  0  0  0  0  0\u000a    3.3539    4.9627    0.0000 C   0  0  0  0  0  0  0  0  0  0  0  0\u000a    2.0975    5.7711    0.0000 C   0  0  0  0  0  0  0  0  0  0  0  0\u000a    1.6593    4.9184    0.0000 C   0  0  0  0  0  0  0  0  0  0  0  0\u000a    2.3235    4.7427    0.0000 C   0  0  0  0  0  0  0  0  0  0  0  0\u000a    1.2405    4.0111    0.0000 C   0  0  0  0  0  0  0  0  0  0  0  0\u000a   -0.0312    0.0390    0.0000 Co  0  0  0  0  0  6  0  0  0  0  0  0\u000a    0.5196   -2.8962    0.0000 C   0  0  0  0  0  0  0  0  0  0  0  0\u000a    0.7040   -3.8790    0.0000 O   0  0  0  0  0  3  0  0  0  0  0  0\u000a   -2.6988   -1.2978    0.0000 C   0  0  0  0  0  0  0  0  0  0  0  0\u000a   -3.5928   -1.7458    0.0000 O   0  0  0  0  0  3  0  0  0  0  0  0\u000a   -2.0172    2.2488    0.0000 C   0  0  0  0  0  0  0  0  0  0  0  0\u000a   -2.6856    2.9926    0.0000 O   0  0  0  0  0  3  0  0  0  0  0  0\u000a    3.0432   -0.0528    0.0000 Co  0  0  0  0  0  6  0  0  0  0  0  0\u000a    5.1582    2.0334    0.0000 C   0  0  0  0  0  0  0  0  0  0  0  0\u000a    5.8701    2.7356    0.0000 O   0  0  0  0  0  3  0  0  0  0  0  0\u000a    5.6256   -1.5480    0.0000 C   0  0  0  0  0  0  0  0  0  0  0  0\u000a    6.4910   -2.0491    0.0000 O   0  0  0  0  0  3  0  0  0  0  0  0\u000a    2.3172   -2.9496    0.0000 C   0  0  0  0  0  0  0  0  0  0  0  0\u000a    2.0741   -3.9196    0.0000 O   0  0  0  0  0  3  0  0  0  0  0  0\u000a  1  2  1  0\u000a  2  3  1  0\u000a  3  4  1  0\u000a  4  5  1  0\u000a  5  6  1  0\u000a  6  7  1  0\u000a  7  8  1  0\u000a  8  9  1  0\u000a  9 10  1  0\u000a 10 11  1  0\u000a 11 12  1  0\u000a 11 13  1  0\u000a 13 14  1  0\u000a 14 15  1  0\u000a 15 16  3  0\u000a 14 17  1  0\u000a 17 18  3  0\u000a 14 19  1  0\u000a 19 20  3  0\u000a 14 21  1  0\u000a 21 22  1  0\u000a 22 23  3  0\u000a 21 24  1  0\u000a 24 25  3  0\u000a 21 26  1  0\u000a 26 27  3  0\u000a 14  5  1  0\u000a 21  5  1  0\u000a 21  6  1  0\u000a 13  7  1  0\u000a 12  8  1  0\u000aM  CHG  6  16   1  18   1  20   1  23   1  25   1  27   1\u000aM  END\u000a
p1566
sVCCCCC12C(=O)C3C4CCC(C4)C3C1[Co]2(C#[O+])(C#[O+])(C#[O+])[Co](C#[O+])(C#[O+])C#[O+]
p1567
V\u000a     RDKit          2D\u000a\u000a 29 32  0  0  0  0  0  0  0  0999 V2000\u000a    0.8513   -1.8417    0.0000 C   0  0  0  0  0  0  0  0  0  0  0  0\u000a    1.6784   -1.2793    0.0000 C   0  0  0  0  0  0  0  0  0  0  0  0\u000a    2.5733   -1.7170    0.0000 C   0  0  0  0  0  0  0  0  0  0  0  0\u000a    3.4083   -1.1664    0.0000 C   0  0  0  0  0  0  0  0  0  0  0  0\u000a    4.2976   -1.6340    0.0000 C   0  0  0  0  0  0  0  0  0  0  0  0\u000a    5.3353   -1.0964    0.0000 C   0  0  0  0  0  0  0  0  0  0  0  0\u000a    5.4992   -0.1201    0.0000 O   0  0  0  0  0  0  0  0  0  0  0  0\u000a    5.9869   -1.7857    0.0000 C   0  0  0  0  0  0  0  0  0  0  0  0\u000a    6.8055   -2.2979    0.0000 C   0  0  0  0  0  0  0  0  0  0  0  0\u000a    7.6118   -2.8582    0.0000 C   0  0  0  0  0  0  0  0  0  0  0  0\u000a    7.1338   -3.7413    0.0000 C   0  0  0  0  0  0  0  0  0  0  0  0\u000a    6.2209   -3.3721    0.0000 C   0  0  0  0  0  0  0  0  0  0  0  0\u000a    6.3458   -2.7476    0.0000 C   0  0  0  0  0  0  0  0  0  0  0  0\u000a    5.3470   -2.9672    0.0000 C   0  0  0  0  0  0  0  0  0  0  0  0\u000a    4.4144   -2.7980    0.0000 C   0  0  0  0  0  0  0  0  0  0  0  0\u000a    0.5568   -3.4680    0.0000 Co  0  0  0  0  0  6  0  0  0  0  0  0\u000a    2.9216   -6.6944    0.0000 C   0  0  0  0  0  0  0  0  0  0  0  0\u000a    3.5128   -7.5010    0.0000 O   0  0  0  0  0  3  0  0  0  0  0  0\u000a   -1.7808   -6.7136    0.0000 C   0  0  0  0  0  0  0  0  0  0  0  0\u000a   -2.3652   -7.5250    0.0000 O   0  0  0  0  0  3  0  0  0  0  0  0\u000a   -3.2528   -2.2480    0.0000 C   0  0  0  0  0  0  0  0  0  0  0  0\u000a   -4.2052   -1.9430    0.0000 O   0  0  0  0  0  3  0  0  0  0  0  0\u000a    0.5400    0.5312    0.0000 Co  0  0  0  0  0  4  0  0  0  0  0  0\u000a    4.5400    0.5480    0.0000 C   0  0  0  0  0  0  0  0  0  0  0  0\u000a    5.5400    0.5522    0.0000 O   0  0  0  0  0  3  0  0  0  0  0  0\u000a    0.5232    4.5312    0.0000 C   0  0  0  0  0  0  0  0  0  0  0  0\u000a    0.5190    5.5312    0.0000 O   0  0  0  0  0  3  0  0  0  0  0  0\u000a   -3.4600    0.5144    0.0000 C   0  0  0  0  0  0  0  0  0  0  0  0\u000a   -4.4600    0.5102    0.0000 O   0  0  0  0  0  3  0  0  0  0  0  0\u000a  1  2  1  0\u000a  2  3  1  0\u000a  3  4  1  0\u000a  4  5  1  0\u000a  5  6  1  0\u000a  6  7  2  0\u000a  6  8  1  0\u000a  8  9  1  0\u000a  9 10  1  0\u000a 10 11  1  0\u000a 11 12  1  0\u000a 12 13  1  0\u000a 12 14  1  0\u000a 14 15  1  0\u000a 15 16  1  0\u000a 16 17  1  0\u000a 17 18  3  0\u000a 16 19  1  0\u000a 19 20  3  0\u000a 16 21  1  0\u000a 21 22  3  0\u000a 16 23  1  0\u000a 23 24  1  0\u000a 24 25  3  0\u000a 23 26  1  0\u000a 26 27  3  0\u000a 23 28  1  0\u000a 28 29  3  0\u000a 15  5  1  0\u000a 16  5  1  0\u000a 14  8  1  0\u000a 13  9  1  0\u000aM  CHG  6  18   1  20   1  22   1  25   1  27   1  29   1\u000aM  END\u000a
p1568
sVCCCCC12C3[Co]1(C#[O+])(C#[O+])(C#[O+])[Co]321(C#[O+])(C#[O+])C2C3CCC(C3)C21
p1569
V\u000a     RDKit          2D\u000a\u000a 25 30  0  0  0  0  0  0  0  0999 V2000\u000a    1.4529    6.4504    0.0000 C   0  0  0  0  0  0  0  0  0  0  0  0\u000a    1.9261    5.5690    0.0000 C   0  0  0  0  0  0  0  0  0  0  0  0\u000a    1.3996    4.7184    0.0000 C   0  0  0  0  0  0  0  0  0  0  0  0\u000a    1.8728    3.8371    0.0000 C   0  0  0  0  0  0  0  0  0  0  0  0\u000a    1.3462    2.9865    0.0000 C   0  0  0  0  0  0  0  0  0  0  0  0\u000a    1.8194    2.1051    0.0000 C   0  0  0  0  0  0  0  0  0  0  0  0\u000a   -0.0312    0.0390    0.0000 Co  0  0  0  0  0  6  0  0  0  0  0  0\u000a    0.5196   -2.8962    0.0000 C   0  0  0  0  0  0  0  0  0  0  0  0\u000a    0.7040   -3.8790    0.0000 O   0  0  0  0  0  3  0  0  0  0  0  0\u000a   -2.6988   -1.2978    0.0000 C   0  0  0  0  0  0  0  0  0  0  0  0\u000a   -3.5928   -1.7458    0.0000 O   0  0  0  0  0  3  0  0  0  0  0  0\u000a   -2.0172    2.2488    0.0000 C   0  0  0  0  0  0  0  0  0  0  0  0\u000a   -2.6856    2.9926    0.0000 O   0  0  0  0  0  3  0  0  0  0  0  0\u000a    3.0432   -0.0528    0.0000 Co  0  0  0  0  0  7  0  0  0  0  0  0\u000a    5.1582    2.0334    0.0000 C   0  0  0  0  0  0  0  0  0  0  0  0\u000a    5.8701    2.7356    0.0000 O   0  0  0  0  0  3  0  0  0  0  0  0\u000a    5.6256   -1.5480    0.0000 C   0  0  0  0  0  0  0  0  0  0  0  0\u000a    6.4910   -2.0491    0.0000 O   0  0  0  0  0  3  0  0  0  0  0  0\u000a    1.8156   -2.8239    0.0000 C   0  0  0  0  0  0  0  0  0  0  0  0\u000a    1.4466   -3.7470    0.0000 C   0  0  0  0  0  0  0  0  0  0  0  0\u000a    1.1277   -4.6517    0.0000 C   0  0  0  0  0  0  0  0  0  0  0  0\u000a    2.5635   -5.0115    0.0000 C   0  0  0  0  0  0  0  0  0  0  0  0\u000a    2.7088   -4.0633    0.0000 C   0  0  0  0  0  0  0  0  0  0  0  0\u000a    2.0268   -4.1083    0.0000 C   0  0  0  0  0  0  0  0  0  0  0  0\u000a    2.8188   -3.0753    0.0000 C   0  0  0  0  0  0  0  0  0  0  0  0\u000a  1  2  1  0\u000a  2  3  1  0\u000a  3  4  1  0\u000a  4  5  1  0\u000a  5  6  1  0\u000a  6  7  1  0\u000a  7  8  1  0\u000a  8  9  3  0\u000a  7 10  1  0\u000a 10 11  3  0\u000a  7 12  1  0\u000a 12 13  3  0\u000a  7 14  1  0\u000a 14 15  1  0\u000a 15 16  3  0\u000a 14 17  1  0\u000a 17 18  3  0\u000a 14 19  1  0\u000a 19 20  1  0\u000a 20 21  1  0\u000a 21 22  1  0\u000a 22 23  1  0\u000a 23 24  1  0\u000a 23 25  1  0\u000a  7  5  1  0\u000a 25 14  1  0\u000a 14  5  1  0\u000a 25 19  1  0\u000a 14  6  1  0\u000a 24 20  1  0\u000aM  CHG  5   9   1  11   1  13   1  16   1  18   1\u000aM  END\u000a
p1570
sVCCCCC12C3C4C5CCC(C5)C4C(=O)[Co]1(C#[O+])(C#[O+])(C#[O+])[Co]32(C#[O+])(C#[O+])C#[O+]
p1571
V\u000a     RDKit          2D\u000a\u000a 29 33  0  0  0  0  0  0  0  0999 V2000\u000a   -1.4088    3.5659    0.0000 C   0  0  0  0  0  0  0  0  0  0  0  0\u000a   -0.4510    3.8580    0.0000 C   0  0  0  0  0  0  0  0  0  0  0  0\u000a    0.2856    3.1749    0.0000 C   0  0  0  0  0  0  0  0  0  0  0  0\u000a    1.2472    3.4709    0.0000 C   0  0  0  0  0  0  0  0  0  0  0  0\u000a    1.9932    2.7904    0.0000 C   0  0  0  0  0  0  0  0  0  0  0  0\u000a    2.9536    3.0987    0.0000 C   0  0  0  0  0  0  0  0  0  0  0  0\u000a    3.1535    4.0673    0.0000 C   0  0  0  0  0  0  0  0  0  0  0  0\u000a    3.9994    4.5852    0.0000 C   0  0  0  0  0  0  0  0  0  0  0  0\u000a    4.7956    5.1195    0.0000 C   0  0  0  0  0  0  0  0  0  0  0  0\u000a    3.8579    6.2716    0.0000 C   0  0  0  0  0  0  0  0  0  0  0  0\u000a    3.1733    5.6007    0.0000 C   0  0  0  0  0  0  0  0  0  0  0  0\u000a    3.7528    5.2284    0.0000 C   0  0  0  0  0  0  0  0  0  0  0  0\u000a    2.4942    4.8781    0.0000 C   0  0  0  0  0  0  0  0  0  0  0  0\u000a    1.5016    4.8981    0.0000 C   0  0  0  0  0  0  0  0  0  0  0  0\u000a    1.0241    5.7753    0.0000 O   0  0  0  0  0  0  0  0  0  0  0  0\u000a   -0.0416    0.0520    0.0000 Co  0  0  0  0  0  6  0  0  0  0  0  0\u000a    0.6928   -3.8616    0.0000 C   0  0  0  0  0  0  0  0  0  0  0  0\u000a    0.8772   -4.8444    0.0000 O   0  0  0  0  0  3  0  0  0  0  0  0\u000a   -3.5984   -1.7304    0.0000 C   0  0  0  0  0  0  0  0  0  0  0  0\u000a   -4.4924   -2.1784    0.0000 O   0  0  0  0  0  3  0  0  0  0  0  0\u000a   -2.6896    2.9984    0.0000 C   0  0  0  0  0  0  0  0  0  0  0  0\u000a   -3.3580    3.7422    0.0000 O   0  0  0  0  0  3  0  0  0  0  0  0\u000a    4.0576   -0.0704    0.0000 Co  0  0  0  0  0  6  0  0  0  0  0  0\u000a    6.8776    2.7112    0.0000 C   0  0  0  0  0  0  0  0  0  0  0  0\u000a    7.5895    3.4134    0.0000 O   0  0  0  0  0  3  0  0  0  0  0  0\u000a    7.5008   -2.0640    0.0000 C   0  0  0  0  0  0  0  0  0  0  0  0\u000a    8.3662   -2.5651    0.0000 O   0  0  0  0  0  3  0  0  0  0  0  0\u000a    3.0896   -3.9328    0.0000 C   0  0  0  0  0  0  0  0  0  0  0  0\u000a    2.8465   -4.9028    0.0000 O   0  0  0  0  0  3  0  0  0  0  0  0\u000a  1  2  1  0\u000a  2  3  1  0\u000a  3  4  1  0\u000a  4  5  1  0\u000a  5  6  1  0\u000a  6  7  1  0\u000a  7  8  1  0\u000a  8  9  1  0\u000a  9 10  1  0\u000a 10 11  1  0\u000a 11 12  1  0\u000a 11 13  1  0\u000a 13 14  1  0\u000a 14 15  2  0\u000a 14 16  1  0\u000a 16 17  1  0\u000a 17 18  3  0\u000a 16 19  1  0\u000a 19 20  3  0\u000a 16 21  1  0\u000a 21 22  3  0\u000a 16 23  1  0\u000a 23 24  1  0\u000a 24 25  3  0\u000a 23 26  1  0\u000a 26 27  3  0\u000a 23 28  1  0\u000a 28 29  3  0\u000a 16  5  1  0\u000a 23  5  1  0\u000a 23  6  1  0\u000a 13  7  1  0\u000a 12  8  1  0\u000aM  CHG  6  18   1  20   1  22   1  25   1  27   1  29   1\u000aM  END\u000a
p1572
sssg33
(dp1573
g47
(lp1574
g49
asg33
g50
((lp1575
g52
atp1576
Rp1577
sg55
g50
((lp1578
g32
ag1551
ag1559
ag1565
aVC#CCCCC
p1579
ag1557
aVO=C1[Co]2(C#[O+])(C#[O+])(C#[O+])C(=O)[Co]12(C#[O+])(C#[O+])C#[O+]
p1580
ag1569
ag1561
aV[O+]#C[Co](C#[O+])(C#[O+])[Co](C#[O+])(C#[O+])C#[O+]
p1581
ag1571
ag1555
ag1567
ag1553
atp1582
Rp1583
sVaddedSbs
p1584
g32
sVincompatMode
p1585
Vconservative
p1586
ssg59
(dp1587
(VCCCCC12C(=O)C3C4CCC(C4)C3C1[Co]2(C#[O+])(C#[O+])(C#[O+])[Co](C#[O+])(C#[O+])C#[O+]>>CCCCC1=CC2C3CCC(C3)C2C1=O
p1588
(g62
tp1589
tp1590
(dp1591
g20
g1588
sg66
(dp1592
g68
F0.0
sg69
I0
sg70
I0
sg71
(lp1593
g62
asg73
(lp1594
((lp1595
V[CH3:153][CH2:154][CH2:155][CH2:156][C:157]12[C:158](=[O:159])[CH:160]3[CH:161]4[CH2:162][CH2:163][CH:164]([CH2:165]4)[CH:166]3[CH:167]1[Co:168]2([C:169]#[O+:170])([C:171]#[O+:172])([C:173]#[O+:174])[Co:175]([C:176]#[O+:177])([C:178]#[O+:179])[C:180]#[O+:181]
p1596
a(lp1597
(V[CH3:153][CH2:154][CH2:155][CH2:156][C:157]1=[CH:167][CH:166]2[CH:160]([C:158]1=[O:159])[CH:161]1[CH2:162][CH2:163][CH:164]2[CH2:165]1
p1598
V[Co:168]([C:169]#[O+:170])([C:171]#[O+:172])([C:173]#[O+:174])[Co:175]([C:176]#[O+:177])([C:178]#[O+:179])[C:180]#[O+:181]
p1599
tp1600
atp1601
asg27
V[CH3:153][CH2:154][CH2:155][CH2:156][C:157]12[C:158](=[O:159])[CH:160]3[CH:161]4[CH2:162][CH2:163][CH:164]([CH2:165]4)[CH:166]3[CH:167]1[Co:168]2([C:169]#[O+:170])([C:171]#[O+:172])([C:173]#[O+:174])[Co:175]([C:176]#[O+:177])([C:178]#[O+:179])[C:180]#[O+:181]>>[CH3:153][CH2:154][CH2:155][CH2:156][C:157]1=[CH:167][CH:166]2[CH:160]([C:158]1=[O:159])[CH:161]1[CH2:162][CH2:163][CH:164]2[CH2:165]1.[Co:168]([C:169]#[O+:170])([C:171]#[O+:172])([C:173]#[O+:174])[Co:175]([C:176]#[O+:177])([C:178]#[O+:179])[C:180]#[O+:181]
p1602
sg83
I-2
ssg22
(lp1603
g62
asg41
VCCCCC12C(=O)C3C4CCC(C4)C3C1[Co]2(C#[O+])(C#[O+])(C#[O+])[Co](C#[O+])(C#[O+])C#[O+]>>CCCCC1=CC2C3CCC(C3)C2C1=O.[O+]#C[Co](C#[O+])(C#[O+])[Co](C#[O+])(C#[O+])C#[O+]
p1604
sg42
I00
sg43
I00
sg44
F-142.7742800000001
sg45
I00
ss(VCCCCC12C3C4C5CCC(C5)C4C(=O)[Co]1(C#[O+])(C#[O+])(C#[O+])[Co]32(C#[O+])(C#[O+])C#[O+]>>CCCCC12C(=O)C3C4CCC(C4)C3C1[Co]2(C#[O+])(C#[O+])(C#[O+])[Co](C#[O+])(C#[O+])C#[O+]
p1605
(g100
tp1606
tp1607
(dp1608
g20
g1605
sg66
(dp1609
g68
F0.0
sg69
I0
sg70
I0
sg71
(lp1610
g100
asg73
(lp1611
((lp1612
V[CH3:124][CH2:125][CH2:126][CH2:127][C:128]12[CH:129]3[CH:130]4[CH:131]5[CH2:132][CH2:133][CH:134]([CH2:135]5)[CH:136]4[C:137](=[O:138])[Co:139]1([C:140]#[O+:141])([C:142]#[O+:143])([C:144]#[O+:145])[Co:146]23([C:147]#[O+:148])([C:149]#[O+:150])[C:151]#[O+:152]
p1613
a(lp1614
(V[CH3:124][CH2:125][CH2:126][CH2:127][C:128]12[CH:129]([CH:130]3[CH:131]4[CH2:132][CH2:133][CH:134]([CH2:135]4)[CH:136]3[C:137]1=[O:138])[Co:146]2([Co:139]([C:140]#[O+:141])([C:142]#[O+:143])[C:144]#[O+:145])([C:147]#[O+:148])([C:149]#[O+:150])[C:151]#[O+:152]
p1615
tp1616
atp1617
asg27
V[CH3:124][CH2:125][CH2:126][CH2:127][C:128]12[CH:129]3[CH:130]4[CH:131]5[CH2:132][CH2:133][CH:134]([CH2:135]5)[CH:136]4[C:137](=[O:138])[Co:139]1([C:140]#[O+:141])([C:142]#[O+:143])([C:144]#[O+:145])[Co:146]23([C:147]#[O+:148])([C:149]#[O+:150])[C:151]#[O+:152]>>[CH3:124][CH2:125][CH2:126][CH2:127][C:128]12[CH:129]([CH:130]3[CH:131]4[CH2:132][CH2:133][CH:134]([CH2:135]4)[CH:136]3[C:137]1=[O:138])[Co:146]2([Co:139]([C:140]#[O+:141])([C:142]#[O+:143])[C:144]#[O+:145])([C:147]#[O+:148])([C:149]#[O+:150])[C:151]#[O+:152]
p1618
sg83
I-2
ssg22
(lp1619
g100
asg41
g1605
sg42
I00
sg43
I00
sg120
I1
sg44
F-972.5798900000001
sg45
I00
ss(VCCCCC12C3C4C5CCC(C5)C4[Co]1(C#[O+])(C#[O+])(C#[O+])[Co]32(C#[O+])(C#[O+])C#[O+].[C-]#[O+]>>CCCCC12C3C4C5CCC(C5)C4C(=O)[Co]1(C#[O+])(C#[O+])(C#[O+])[Co]32(C#[O+])(C#[O+])C#[O+]
p1620
(g122
tp1621
tp1622
(dp1623
g20
g1620
sg66
(dp1624
g68
F0.0
sg69
I0
sg70
I0
sg71
(lp1625
g122
asg73
(lp1626
((lp1627
V[CH3:97][CH2:98][CH2:99][CH2:100][C:101]12[CH:102]3[CH:103]4[CH:104]5[CH2:105][CH2:106][CH:107]([CH2:108]5)[CH:109]4[Co:110]1([C:111]#[O+:112])([C:113]#[O+:114])([C:115]#[O+:116])[Co:117]23([C:118]#[O+:119])([C:120]#[O+:121])[C:122]#[O+:123]
p1628
aV[C-:1]#[O+:2]
p1629
a(lp1630
(V[C:1](#[O+:2])[Co:110]12([C:113]#[O+:114])([C:115]#[O+:116])[C:101]3([CH2:100][CH2:99][CH2:98][CH3:97])[CH:102]([CH:103]4[CH:104]5[CH2:105][CH2:106][CH:107]([CH2:108]5)[CH:109]4[C:111]1=[O:112])[Co:117]32([C:118]#[O+:119])([C:120]#[O+:121])[C:122]#[O+:123]
p1631
tp1632
atp1633
asg27
V[CH3:97][CH2:98][CH2:99][CH2:100][C:101]12[CH:102]3[CH:103]4[CH:104]5[CH2:105][CH2:106][CH:107]([CH2:108]5)[CH:109]4[Co:110]1([C:111]#[O+:112])([C:113]#[O+:114])([C:115]#[O+:116])[Co:117]23([C:118]#[O+:119])([C:120]#[O+:121])[C:122]#[O+:123].[C-:1]#[O+:2]>>[C:1](#[O+:2])[Co:110]12([C:113]#[O+:114])([C:115]#[O+:116])[C:101]3([CH2:100][CH2:99][CH2:98][CH3:97])[CH:102]([CH:103]4[CH:104]5[CH2:105][CH2:106][CH:107]([CH2:108]5)[CH:109]4[C:111]1=[O:112])[Co:117]32([C:118]#[O+:119])([C:120]#[O+:121])[C:122]#[O+:123]
p1634
sg83
I-2
ssg22
(lp1635
g122
asg41
g1620
sg42
I00
sg43
I00
sg120
I1
sg44
F90.56015
sg45
I00
ss(VCCCCC12C3[Co]1(C#[O+])(C#[O+])(C#[O+])[Co]321(C#[O+])(C#[O+])C2C3CCC(C3)C21.[C-]#[O+]>>CCCCC12C3C4C5CCC(C5)C4[Co]1(C#[O+])(C#[O+])(C#[O+])[Co]32(C#[O+])(C#[O+])C#[O+]
p1636
(g144
tp1637
tp1638
(dp1639
g20
g1636
sg66
(dp1640
g68
F0.0
sg69
I0
sg70
I0
sg71
(lp1641
g144
asg73
(lp1642
((lp1643
V[CH3:72][CH2:73][CH2:74][CH2:75][C:76]12[CH:77]3[Co:78]1([C:79]#[O+:80])([C:81]#[O+:82])([C:83]#[O+:84])[Co:85]231([C:86]#[O+:87])([C:88]#[O+:89])[CH:90]2[CH:91]3[CH2:92][CH2:93][CH:94]([CH2:95]3)[CH:96]12
p1644
ag1629
a(lp1645
(V[C:1](#[O+:2])[Co:85]12([C:86]#[O+:87])([C:88]#[O+:89])[C:76]3([CH2:75][CH2:74][CH2:73][CH3:72])[CH:77]([Co:78]31([C:79]#[O+:80])([C:81]#[O+:82])[C:83]#[O+:84])[CH:96]1[CH:90]2[CH:91]2[CH2:92][CH2:93][CH:94]1[CH2:95]2
p1646
tp1647
atp1648
asg27
V[CH3:72][CH2:73][CH2:74][CH2:75][C:76]12[CH:77]3[Co:78]1([C:79]#[O+:80])([C:81]#[O+:82])([C:83]#[O+:84])[Co:85]231([C:86]#[O+:87])([C:88]#[O+:89])[CH:90]2[CH:91]3[CH2:92][CH2:93][CH:94]([CH2:95]3)[CH:96]12.[C-:1]#[O+:2]>>[C:1](#[O+:2])[Co:85]12([C:86]#[O+:87])([C:88]#[O+:89])[C:76]3([CH2:75][CH2:74][CH2:73][CH3:72])[CH:77]([Co:78]31([C:79]#[O+:80])([C:81]#[O+:82])[C:83]#[O+:84])[CH:96]1[CH:90]2[CH:91]2[CH2:92][CH2:93][CH:94]1[CH2:95]2
p1649
sg83
I-2
ssg22
(lp1650
g144
asg41
g1636
sg42
I00
sg43
I00
sg120
I1
sg44
F407.86871
sg45
I00
ss(VCCCCC12C3[Co]1(C#[O+])(C#[O+])[Co]32(C#[O+])(C#[O+])C#[O+].C1=CC2CCC1C2>>CCCCC12C3[Co]1(C#[O+])(C#[O+])(C#[O+])[Co]321(C#[O+])(C#[O+])C2C3CCC(C3)C21
p1651
(g166
tp1652
tp1653
(dp1654
g20
g1651
sg66
(dp1655
g68
F0.0
sg69
I0
sg70
I0
sg71
(lp1656
g166
asg73
(lp1657
((lp1658
V[CH3:54][CH2:55][CH2:56][CH2:57][C:58]12[CH:59]3[Co:60]1([C:61]#[O+:62])([C:63]#[O+:64])[Co:65]23([C:66]#[O+:67])([C:68]#[O+:69])[C:70]#[O+:71]
p1659
aV[CH:9]1=[CH:10][CH:11]2[CH2:12][CH2:13][CH:14]1[CH2:15]2
p1660
a(lp1661
(V[CH:9]12[CH:10]([CH:11]3[CH2:12][CH2:13][CH:14]1[CH2:15]3)[Co:60]213([C:61]#[O+:62])([C:63]#[O+:64])[C:58]2([CH2:57][CH2:56][CH2:55][CH3:54])[CH:59]1[Co:65]23([C:66]#[O+:67])([C:68]#[O+:69])[C:70]#[O+:71]
p1662
tp1663
atp1664
asg27
V[CH:9]12[CH:10]([CH:11]3[CH2:12][CH2:13][CH:14]1[CH2:15]3)[Co:60]213([C:61]#[O+:62])([C:63]#[O+:64])[C:58]2([CH2:57][CH2:56][CH2:55][CH3:54])[CH:59]1[Co:65]23([C:66]#[O+:67])([C:68]#[O+:69])[C:70]#[O+:71]>>[CH3:54][CH2:55][CH2:56][CH2:57][C:58]12[CH:59]3[Co:60]1([C:61]#[O+:62])([C:63]#[O+:64])[Co:65]23([C:66]#[O+:67])([C:68]#[O+:69])[C:70]#[O+:71].[CH:9]1=[CH:10][CH:11]2[CH2:12][CH2:13][CH:14]1[CH2:15]2
p1665
sg83
I-2
ssg22
(lp1666
g166
asg41
g1651
sg42
I00
sg43
I00
sg44
F-1656.81741
sg45
I00
ss(VCCCCC12C3[Co]1(C#[O+])(C#[O+])(C#[O+])[Co]32(C#[O+])(C#[O+])C#[O+]>>CCCCC12C3[Co]1(C#[O+])(C#[O+])[Co]32(C#[O+])(C#[O+])C#[O+]
p1667
(g189
tp1668
tp1669
(dp1670
g20
g1667
sg66
(dp1671
g68
F0.0
sg69
I0
sg70
I0
sg71
(lp1672
g189
asg73
(lp1673
((lp1674
V[CH3:34][CH2:35][CH2:36][CH2:37][C:38]12[CH:39]3[Co:40]1([C:41]#[O+:42])([C:43]#[O+:44])([C:45]#[O+:46])[Co:47]23([C:48]#[O+:49])([C:50]#[O+:51])[C:52]#[O+:53]
p1675
a(lp1676
(V[CH3:34][CH2:35][CH2:36][CH2:37][C:38]12[CH:39]3[Co:40]1([C:41]#[O+:42])([C:43]#[O+:44])([C:45]#[O+:46])[Co:47]23([C:50]#[O+:51])[C:52]#[O+:53]
p1677
V[C-:48]#[O+:49]
p1678
tp1679
atp1680
asg27
V[CH3:34][CH2:35][CH2:36][CH2:37][C:38]12[CH:39]3[Co:40]1([C:41]#[O+:42])([C:43]#[O+:44])([C:45]#[O+:46])[Co:47]23([C:50]#[O+:51])[C:52]#[O+:53].[C-:48]#[O+:49]>>[CH3:34][CH2:35][CH2:36][CH2:37][C:38]12[CH:39]3[Co:40]1([C:41]#[O+:42])([C:43]#[O+:44])([C:45]#[O+:46])[Co:47]23([C:48]#[O+:49])([C:50]#[O+:51])[C:52]#[O+:53]
p1681
sg83
I-2
ssg22
(lp1682
g189
asg41
VCCCCC12C3[Co]1(C#[O+])(C#[O+])(C#[O+])[Co]32(C#[O+])(C#[O+])C#[O+]>>CCCCC12C3[Co]1(C#[O+])(C#[O+])[Co]32(C#[O+])(C#[O+])C#[O+].[C-]#[O+]
p1683
sg42
I00
sg43
I00
sg44
F1680.28287
sg45
I00
ss(VO=C1[Co]2(C#[O+])(C#[O+])(C#[O+])C(=O)[Co]12(C#[O+])(C#[O+])C#[O+].C#CCCCC>>CCCCC12C3[Co]1(C#[O+])(C#[O+])(C#[O+])[Co]32(C#[O+])(C#[O+])C#[O+]
p1684
(g213
tp1685
tp1686
(dp1687
g20
g1684
sg66
(dp1688
g68
F0.0
sg69
I0
sg70
I0
sg71
(lp1689
g213
asg73
(lp1690
((lp1691
V[CH:3]#[C:4][CH2:5][CH2:6][CH2:7][CH3:8]
p1692
aV[O:16]=[C:17]1[Co:18]2([C:19]#[O+:20])([C:21]#[O+:22])([C:23]#[O+:24])[C:25](=[O:26])[Co:27]12([C:28]#[O+:29])([C:30]#[O+:31])[C:32]#[O+:33]
p1693
a(lp1694
(V[CH:3]12[C:4]3([CH2:5][CH2:6][CH2:7][CH3:8])[Co:18]1([C:19]#[O+:20])([C:21]#[O+:22])([C:23]#[O+:24])[Co:27]23([C:28]#[O+:29])([C:30]#[O+:31])[C:32]#[O+:33]
p1695
V[C-:25]#[O+:26]
p1696
V[O+:16]#[C-:17]
p1697
tp1698
atp1699
asg27
V[CH:3]12[C:4]3([CH2:5][CH2:6][CH2:7][CH3:8])[Co:18]1([C:19]#[O+:20])([C:21]#[O+:22])([C:23]#[O+:24])[Co:27]23([C:28]#[O+:29])([C:30]#[O+:31])[C:32]#[O+:33].[C-:25]#[O+:26].[O+:16]#[C-:17]>>[CH:3]#[C:4][CH2:5][CH2:6][CH2:7][CH3:8].[O:16]=[C:17]1[Co:18]2([C:19]#[O+:20])([C:21]#[O+:22])([C:23]#[O+:24])[C:25](=[O:26])[Co:27]12([C:28]#[O+:29])([C:30]#[O+:31])[C:32]#[O+:33]
p1700
sg83
I-2
ssg22
(lp1701
g213
asg41
VC#CCCCC.O=C1[Co]2(C#[O+])(C#[O+])(C#[O+])C(=O)[Co]12(C#[O+])(C#[O+])C#[O+]>>CCCCC12C3[Co]1(C#[O+])(C#[O+])(C#[O+])[Co]32(C#[O+])(C#[O+])C#[O+].[C-]#[O+].[C-]#[O+]
p1702
sg42
I00
sg43
I00
sg44
F0.1
sg45
I00
ss(V[O+]#C[Co](C#[O+])(C#[O+])[Co](C#[O+])(C#[O+])C#[O+].[C-]#[O+]>>O=C1[Co]2(C#[O+])(C#[O+])(C#[O+])C(=O)[Co]12(C#[O+])(C#[O+])C#[O+]
p1703
(Vrx401
p1704
tp1705
tp1706
(dp1707
g20
g1703
sg66
(dp1708
g68
F0.0
sg69
I0
sg70
I0
sg71
(lp1709
g1704
asg73
(lp1710
((lp1711
V[O+:197]#[C:198][Co:199]([C:200]#[O+:201])([C:202]#[O+:203])[Co:204]([C:205]#[O+:206])([C:207]#[O+:208])[C:209]#[O+:210]
p1712
ag1629
aV[C-:1001]#[O+:1002]
p1713
a(lp1714
(V[C:1]1(=[O:2])[Co:199]2([C:198]#[O+:197])([C:200]#[O+:201])([C:202]#[O+:203])[Co:204]1([C:205]#[O+:206])([C:207]#[O+:208])([C:209]#[O+:210])[C:1001]2=[O:1002]
p1715
tp1716
atp1717
asg27
V[C:1]1(=[O:2])[Co:199]2([C:198]#[O+:197])([C:200]#[O+:201])([C:202]#[O+:203])[Co:204]1([C:205]#[O+:206])([C:207]#[O+:208])([C:209]#[O+:210])[C:1001]2=[O:1002]>>[O+:197]#[C:198][Co:199]([C:200]#[O+:201])([C:202]#[O+:203])[Co:204]([C:205]#[O+:206])([C:207]#[O+:208])[C:209]#[O+:210].[C-:1]#[O+:2].[C-:1001]#[O+:1002]
p1718
sg83
I-2
ssg22
(lp1719
g1704
asg41
V[O+]#C[Co](C#[O+])(C#[O+])[Co](C#[O+])(C#[O+])C#[O+].[C-]#[O+].[C-]#[O+]>>O=C1[Co]2(C#[O+])(C#[O+])(C#[O+])C(=O)[Co]12(C#[O+])(C#[O+])C#[O+]
p1720
sg42
I00
sg43
I00
sg44
F0.1
sg45
I00
ss(VCCCCC12C(O)=C3C4CCC(C4)C3C1[Co]2(C#[O+])(C#[O+])(C#[O+])[Co](C#[O+])(C#[O+])C#[O+]>>CCCCC12C(=O)C3C4CCC(C4)C3C1[Co]2(C#[O+])(C#[O+])(C#[O+])[Co](C#[O+])(C#[O+])C#[O+]
p1721
(Vrx194
p1722
tp1723
tp1724
(dp1725
g20
g1721
sg66
(dp1726
g68
F0.0
sg69
I0
sg70
I0
sg71
(lp1727
g1722
asg73
(lp1728
((lp1729
V[CH3:211][CH2:212][CH2:213][CH2:214][C:215]12[C:216]([OH:217])=[C:218]3[CH:219]4[CH2:220][CH2:221][CH:222]([CH2:223]4)[CH:224]3[CH:225]1[Co:226]2([C:227]#[O+:228])([C:229]#[O+:230])([C:231]#[O+:232])[Co:233]([C:234]#[O+:235])([C:236]#[O+:237])[C:238]#[O+:239]
p1730
a(lp1731
(V[CH3:211][CH2:212][CH2:213][CH2:214][C:215]12[C:216](=[O:217])[CH:218]3[CH:219]4[CH2:220][CH2:221][CH:222]([CH2:223]4)[CH:224]3[CH:225]1[Co:226]2([C:227]#[O+:228])([C:229]#[O+:230])([C:231]#[O+:232])[Co:233]([C:234]#[O+:235])([C:236]#[O+:237])[C:238]#[O+:239]
p1732
tp1733
atp1734
asg27
V[CH3:211][CH2:212][CH2:213][CH2:214][C:215]12[C:216]([OH:217])=[C:218]3[CH:219]4[CH2:220][CH2:221][CH:222]([CH2:223]4)[CH:224]3[CH:225]1[Co:226]2([C:227]#[O+:228])([C:229]#[O+:230])([C:231]#[O+:232])[Co:233]([C:234]#[O+:235])([C:236]#[O+:237])[C:238]#[O+:239]>>[CH3:211][CH2:212][CH2:213][CH2:214][C:215]12[C:216](=[O:217])[CH:218]3[CH:219]4[CH2:220][CH2:221][CH:222]([CH2:223]4)[CH:224]3[CH:225]1[Co:226]2([C:227]#[O+:228])([C:229]#[O+:230])([C:231]#[O+:232])[Co:233]([C:234]#[O+:235])([C:236]#[O+:237])[C:238]#[O+:239]
p1735
sg83
I-2
ssg22
(lp1736
g1722
asg41
g1721
sg42
I00
sg43
I00
sg44
F-943.91768
sg45
I00
ss(g1543
(g24
tp1737
tp1738
(dp1739
g20
g1543
sg66
(dp1740
g68
F0.0
sg69
I0
sg70
I0
sg71
(lp1741
g24
asg73
(lp1742
((lp1743
g1596
a(lp1744
(V[CH3:153][CH2:154][CH2:155][CH2:156][C:157]12[C:158]([OH:159])=[C:160]3[CH:161]4[CH2:162][CH2:163][CH:164]([CH2:165]4)[CH:166]3[CH:167]1[Co:168]2([C:169]#[O+:170])([C:171]#[O+:172])([C:173]#[O+:174])[Co:175]([C:176]#[O+:177])([C:178]#[O+:179])[C:180]#[O+:181]
p1745
tp1746
atp1747
asg27
V[CH3:153][CH2:154][CH2:155][CH2:156][C:157]12[C:158](=[O:159])[CH:160]3[CH:161]4[CH2:162][CH2:163][CH:164]([CH2:165]4)[CH:166]3[CH:167]1[Co:168]2([C:169]#[O+:170])([C:171]#[O+:172])([C:173]#[O+:174])[Co:175]([C:176]#[O+:177])([C:178]#[O+:179])[C:180]#[O+:181]>>[CH3:153][CH2:154][CH2:155][CH2:156][C:157]12[C:158]([OH:159])=[C:160]3[CH:161]4[CH2:162][CH2:163][CH:164]([CH2:165]4)[CH:166]3[CH:167]1[Co:168]2([C:169]#[O+:170])([C:171]#[O+:172])([C:173]#[O+:174])[Co:175]([C:176]#[O+:177])([C:178]#[O+:179])[C:180]#[O+:181]
p1748
sg83
I-2
ssg22
(lp1749
g24
asg41
g1543
ss(VCCCCC1=CC2C3CCC(C3)C2C1=O>>CCCCC1=CC2C(=C1O)C1CCC2C1
p1750
g1737
tp1751
(dp1752
g20
g1750
sg66
(dp1753
g68
F0.0
sg69
I0
sg70
I0
sg71
(lp1754
g24
asg73
(lp1755
((lp1756
V[CH3:182][CH2:183][CH2:184][CH2:185][C:186]1=[CH:187][CH:188]2[CH:189]3[CH2:190][CH2:191][CH:192]([CH2:193]3)[CH:194]2[C:195]1=[O:196]
p1757
a(lp1758
(V[CH3:182][CH2:183][CH2:184][CH2:185][C:186]1=[CH:187][CH:188]2[CH:189]3[CH2:190][CH2:191][CH:192]([CH2:193]3)[C:194]2=[C:195]1[OH:196]
p1759
tp1760
atp1761
asg27
V[CH3:182][CH2:183][CH2:184][CH2:185][C:186]1=[CH:187][CH:188]2[CH:189]3[CH2:190][CH2:191][CH:192]([CH2:193]3)[CH:194]2[C:195]1=[O:196]>>[CH3:182][CH2:183][CH2:184][CH2:185][C:186]1=[CH:187][CH:188]2[CH:189]3[CH2:190][CH2:191][CH:192]([CH2:193]3)[C:194]2=[C:195]1[OH:196]
p1762
sg83
I-2
ssg22
(lp1763
g24
asg41
g1750
sg42
I00
sg43
I00
sg44
F103.28213000000001
sg45
I01
sssg237
(lp1764
(I1
g1551
tp1765
a(I1
g1581
tp1766
a(g1567
I1
tp1767
a(g1567
I8
tp1768
a(g1551
I11
tp1769
a(I2
g1567
tp1770
a(g1571
I2
tp1771
a(I3
g1571
tp1772
a(g1565
I3
tp1773
a(g1555
I3
tp1774
a(g1555
I4
tp1775
a(g1555
I9
tp1776
a(I4
g1565
tp1777
a(g1569
I4
tp1778
a(I5
g1569
tp1779
a(g1553
I5
tp1780
a(g1557
I5
tp1781
a(I6
g1553
tp1782
a(I6
g1555
tp1783
a(g1559
I6
tp1784
a(I7
g1559
tp1785
a(I7
g1555
tp1786
a(g1580
I7
tp1787
a(g1579
I7
tp1788
a(g1581
I9
tp1789
a(I8
g1561
tp1790
a(g1561
I10
tp1791
a(I9
g1580
tp1792
a(I10
g1567
tp1793
a(I11
g1563
tp1794
asg273
(dp1795
((g1567
tp1796
g1551
g1589
tp1797
I1
s((g1571
tp1798
g1567
g1606
tp1799
I2
s((g1565
g1555
tp1800
g1571
g1621
tp1801
I3
s((g1569
g1555
tp1802
g1565
g1637
tp1803
I4
s((g1557
g1553
tp1804
g1569
g1652
tp1805
I5
s((g1559
tp1806
g1553
g1668
tp1807
I6
s((g1579
g1580
tp1808
g1559
g1685
tp1809
I7
s(g1796
g1561
g1737
tp1810
I8
s((g1555
g1581
tp1811
g1580
g1705
tp1812
I9
s((g1561
tp1813
g1567
g1723
tp1814
I10
s((g1551
tp1815
g1563
g1737
tp1816
I11
ssg291
(dp1817
g1555
(dp1818
g294
I0
sg295
(lp1819
g1580
ag1579
asg297
g1556
sg299
g300
sg301
g1555
sg302
g303
sg304
(lp1820
(lp1821
g1559
aassg1579
(dp1822
g294
I0
sg295
(lp1823
sg297
V\u000a     RDKit          2D\u000a\u000a  6  5  0  0  0  0  0  0  0  0999 V2000\u000a   -2.5822    1.0146    0.0000 C   0  0  0  0  0  0  0  0  0  0  0  0\u000a   -1.7158    0.5152    0.0000 C   0  0  0  0  0  0  0  0  0  0  0  0\u000a   -0.8494    0.0160    0.0000 C   0  0  0  0  0  0  0  0  0  0  0  0\u000a    0.0162    0.5166    0.0000 C   0  0  0  0  0  0  0  0  0  0  0  0\u000a    0.8826    0.0174    0.0000 C   0  0  0  0  0  0  0  0  0  0  0  0\u000a    1.7482    0.5180    0.0000 C   0  0  0  0  0  0  0  0  0  0  0  0\u000a  1  2  3  0\u000a  2  3  1  0\u000a  3  4  1  0\u000a  4  5  1  0\u000a  5  6  1  0\u000aM  END\u000a
p1824
sg299
g310
sg301
g1579
sg302
g311
ssg1557
(dp1825
g294
I0
sg295
(lp1826
sg297
g1558
sg299
g315
sg301
g1557
sg302
g311
ssg1580
(dp1827
g294
I0
sg295
(lp1828
sg297
V\u000a     RDKit          2D\u000a\u000a 18 19  0  0  0  0  0  0  0  0999 V2000\u000a   -2.3660    0.0006    0.0000 O   0  0  0  0  0  0  0  0  0  0  0  0\u000a   -1.3660    0.0006    0.0000 C   0  0  0  0  0  0  0  0  0  0  0  0\u000a   -0.5004   -0.5000    0.0000 Co  0  0  0  0  0  6  0  0  0  0  0  0\u000a   -1.3668   -0.9994    0.0000 C   0  0  0  0  0  0  0  0  0  0  0  0\u000a   -2.2332   -1.4988    0.0000 O   0  0  0  0  0  3  0  0  0  0  0  0\u000a   -0.5012   -1.5000    0.0000 C   0  0  0  0  0  0  0  0  0  0  0  0\u000a   -0.5020   -2.5000    0.0000 O   0  0  0  0  0  3  0  0  0  0  0  0\u000a    0.3652   -1.0006    0.0000 C   0  0  0  0  0  0  0  0  0  0  0  0\u000a    1.2309   -1.5012    0.0000 O   0  0  0  0  0  3  0  0  0  0  0  0\u000a    0.3660   -0.0006    0.0000 C   0  0  0  0  0  0  0  0  0  0  0  0\u000a    1.3660   -0.0006    0.0000 O   0  0  0  0  0  0  0  0  0  0  0  0\u000a   -0.4996    0.5000    0.0000 Co  0  0  0  0  0  6  0  0  0  0  0  0\u000a    0.3668    0.9994    0.0000 C   0  0  0  0  0  0  0  0  0  0  0  0\u000a    1.2332    1.4988    0.0000 O   0  0  0  0  0  3  0  0  0  0  0  0\u000a   -0.4988    1.5000    0.0000 C   0  0  0  0  0  0  0  0  0  0  0  0\u000a   -0.4980    2.5000    0.0000 O   0  0  0  0  0  3  0  0  0  0  0  0\u000a   -1.3652    1.0006    0.0000 C   0  0  0  0  0  0  0  0  0  0  0  0\u000a   -2.2309    1.5012    0.0000 O   0  0  0  0  0  3  0  0  0  0  0  0\u000a  1  2  2  0\u000a  2  3  1  0\u000a  3  4  1  0\u000a  4  5  3  0\u000a  3  6  1  0\u000a  6  7  3  0\u000a  3  8  1  0\u000a  8  9  3  0\u000a  3 10  1  0\u000a 10 11  2  0\u000a 10 12  1  0\u000a 12 13  1  0\u000a 13 14  3  0\u000a 12 15  1  0\u000a 15 16  3  0\u000a 12 17  1  0\u000a 17 18  3  0\u000a 12  2  1  0\u000a 12  3  1  0\u000aM  CHG  6   5   1   7   1   9   1  14   1  16   1  18   1\u000aM  END\u000a
p1829
sg299
VC8Co2O8+6
p1830
sg301
g1580
sg302
g311
ssg1551
(dp1831
g294
I7
sg295
(lp1832
g1567
asg297
g1552
sg299
g323
sg324
g1551
sg302
g311
ssg1567
(dp1833
g294
I6
sg295
(lp1834
g1571
asg297
g1568
sg299
VC20H20Co2O7+6
p1835
sg324
g1567
sg302
g311
sg304
(lp1836
(lp1837
g1561
aassg1571
(dp1838
g294
I5
sg295
(lp1839
g1565
ag1555
asg297
g1572
sg299
g1835
sg324
g1571
sg302
g311
ssg1565
(dp1840
g294
I4
sg295
(lp1841
g1569
ag1555
asg297
g1566
sg299
VC19H20Co2O6+6
p1842
sg324
g1565
sg302
g311
ssg1569
(dp1843
g294
I3
sg295
(lp1844
g1553
ag1557
asg297
g1570
sg299
VC18H20Co2O5+5
p1845
sg324
g1569
sg302
g311
ssg1553
(dp1846
g294
I2
sg295
(lp1847
g1559
asg297
g1554
sg299
VC11H10Co2O5+5
p1848
sg324
g1553
sg302
g311
ssg1559
(dp1849
g294
I1
sg295
(lp1850
g1580
ag1579
asg297
g1560
sg299
VC12H10Co2O6+6
p1851
sg324
g1559
sg302
g311
ssg1581
(dp1852
g294
I7
sg295
(lp1853
g1567
asg299
VC6Co2O6+6
p1854
sg297
V\u000a     RDKit          2D\u000a\u000a 14 13  0  0  0  0  0  0  0  0999 V2000\u000a   -1.4836    0.5614    0.0000 O   0  0  0  0  0  3  0  0  0  0  0  0\u000a   -0.6162    0.0638    0.0000 C   0  0  0  0  0  0  0  0  0  0  0  0\u000a    0.2512   -0.4338    0.0000 Co  0  0  0  0  0  4  0  0  0  0  0  0\u000a   -0.2464   -1.3012    0.0000 C   0  0  0  0  0  0  0  0  0  0  0  0\u000a   -0.7440   -2.1686    0.0000 O   0  0  0  0  0  3  0  0  0  0  0  0\u000a    1.1186   -0.9312    0.0000 C   0  0  0  0  0  0  0  0  0  0  0  0\u000a    1.9861   -1.4287    0.0000 O   0  0  0  0  0  3  0  0  0  0  0  0\u000a    0.7488    0.4338    0.0000 Co  0  0  0  0  0  4  0  0  0  0  0  0\u000a    1.6162   -0.0638    0.0000 C   0  0  0  0  0  0  0  0  0  0  0  0\u000a    2.4836   -0.5614    0.0000 O   0  0  0  0  0  3  0  0  0  0  0  0\u000a    1.2464    1.3012    0.0000 C   0  0  0  0  0  0  0  0  0  0  0  0\u000a    1.7440    2.1686    0.0000 O   0  0  0  0  0  3  0  0  0  0  0  0\u000a   -0.1186    0.9312    0.0000 C   0  0  0  0  0  0  0  0  0  0  0  0\u000a   -0.9861    1.4287    0.0000 O   0  0  0  0  0  3  0  0  0  0  0  0\u000a  1  2  3  0\u000a  2  3  1  0\u000a  3  4  1  0\u000a  4  5  3  0\u000a  3  6  1  0\u000a  6  7  3  0\u000a  3  8  1  0\u000a  8  9  1  0\u000a  9 10  3  0\u000a  8 11  1  0\u000a 11 12  3  0\u000a  8 13  1  0\u000a 13 14  3  0\u000aM  CHG  6   1   1   5   1   7   1  10   1  12   1  14   1\u000aM  END\u000a
p1855
sg324
g1581
sg302
g352
ssg1561
(dp1856
g294
I7
sg295
(lp1857
g1567
asg299
g1835
sg297
g1562
sg324
g1561
sg302
g6
ssg1563
(dp1858
g294
I8
sg302
VsideCompeting
p1859
sg297
g1564
sg299
g323
sVnoIsoSmiles
p1860
g1563
sVdHrx
p1861
(lp1862
I0
asg295
(lp1863
g1551
asssg356
(dp1864
g1797
(dp1865
g359
g360
ssg1799
(dp1866
g359
g360
ssg1801
(dp1867
g359
g360
ssg1803
(dp1868
g359
g360
ssg1805
(dp1869
g359
g360
ssg1807
(dp1870
g359
g360
ssg1809
(dp1871
g359
g360
ssg1810
(dp1872
g359
g360
ssg1814
(dp1873
g379
g415
ssg1816
(dp1874
g379
g360
sssg368
(dp1875
(g1567
g1581
g370
tp1876
(lp1877
(dp1878
g374
g1581
sg375
g1567
sg29
g370
sg376
g1604
sg33
Vtoluene, heat<BR> allow temp:H, allow AB: N
p1879
sg38
g378
sg379
g360
sas(g1567
g1551
g370
tp1880
(lp1881
(dp1882
g374
g1551
sg375
g1567
sg29
g370
sg376
g1604
sg33
g1879
sg38
g378
sg379
g360
sas(g1571
g1567
g370
tp1883
(lp1884
(dp1885
g374
g1567
sg375
g1571
sg29
g370
sg376
VCCCCC12C3C4C5CCC(C5)C4C(=O)[Co]1(C#[O+])(C#[O+])(C#[O+])[Co]32(C#[O+])(C#[O+])C#[O+]>>CCCCC12C(=O)C3C4CCC(C4)C3C1[Co]2(C#[O+])(C#[O+])(C#[O+])[Co](C#[O+])(C#[O+])C#[O+].
p1886
sg33
g1879
sg38
g378
sg379
g360
sas(g1565
g1571
VInsertion of carbon monoxide
p1887
tp1888
(lp1889
(dp1890
g374
g1571
sg375
g1565
sg29
g1887
sg376
VCCCCC12C3C4C5CCC(C5)C4[Co]1(C#[O+])(C#[O+])(C#[O+])[Co]32(C#[O+])(C#[O+])C#[O+].[C-]#[O+]>>CCCCC12C3C4C5CCC(C5)C4C(=O)[Co]1(C#[O+])(C#[O+])(C#[O+])[Co]32(C#[O+])(C#[O+])C#[O+].
p1891
sg33
g1879
sg38
g378
sg379
g360
sas(g1555
g1571
g1887
tp1892
(lp1893
(dp1894
g374
g1571
sg375
g1555
sg29
g1887
sg376
g1891
sg33
g1879
sg38
g378
sg379
g360
sas(g1569
g1565
VInsertion of alkene
p1895
tp1896
(lp1897
(dp1898
g374
g1565
sg375
g1569
sg29
g1895
sg376
VCCCCC12C3[Co]1(C#[O+])(C#[O+])(C#[O+])[Co]321(C#[O+])(C#[O+])C2C3CCC(C3)C21.[C-]#[O+]>>CCCCC12C3C4C5CCC(C5)C4[Co]1(C#[O+])(C#[O+])(C#[O+])[Co]32(C#[O+])(C#[O+])C#[O+].
p1899
sg33
g1879
sg38
g378
sg379
g360
sas(g1555
g1565
g1895
tp1900
(lp1901
(dp1902
g374
g1565
sg375
g1555
sg29
g1895
sg376
g1899
sg33
g1879
sg38
g378
sg379
g360
sas(g1553
g1569
VFormation of pi-complexes
p1903
tp1904
(lp1905
(dp1906
g374
g1569
sg375
g1553
sg29
g1903
sg376
VCCCCC12C3[Co]1(C#[O+])(C#[O+])[Co]32(C#[O+])(C#[O+])C#[O+].C1=CC2CCC1C2>>CCCCC12C3[Co]1(C#[O+])(C#[O+])(C#[O+])[Co]321(C#[O+])(C#[O+])C2C3CCC(C3)C21.
p1907
sg33
g1879
sg38
g378
sg379
g360
sas(g1557
g1569
g1903
tp1908
(lp1909
(dp1910
g374
g1569
sg375
g1557
sg29
g1903
sg376
g1907
sg33
g1879
sg38
g378
sg379
g360
sas(g1559
g1555
VDecomplexation of carbon monoxide
p1911
tp1912
(lp1913
(dp1914
g374
g1555
sg375
g1559
sg29
g1911
sg376
g1683
sg33
g1879
sg38
g378
sg379
g415
sas(g1559
g1553
g1911
tp1915
(lp1916
(dp1917
g374
g1553
sg375
g1559
sg29
g1911
sg376
g1683
sg33
g1879
sg38
g378
sg379
g360
sas(g1580
g1555
VAddition of Co complexes to alkynes
p1918
tp1919
(lp1920
(dp1921
g374
g1555
sg375
g1580
sg29
g1918
sg376
VO=C1[Co]2(C#[O+])(C#[O+])(C#[O+])C(=O)[Co]12(C#[O+])(C#[O+])C#[O+].C#CCCCC>>CCCCC12C3[Co]1(C#[O+])(C#[O+])(C#[O+])[Co]32(C#[O+])(C#[O+])C#[O+].[C-]#[O+]
p1922
sg33
g1879
sg38
g378
sg379
g360
sas(g1579
g1555
g1918
tp1923
(lp1924
(dp1925
g374
g1555
sg375
g1579
sg29
g1918
sg376
g1922
sg33
g1879
sg38
g378
sg379
g360
sas(g1580
g1559
g1918
tp1926
(lp1927
(dp1928
g374
g1559
sg375
g1580
sg29
g1918
sg376
g1922
sg33
g1879
sg38
g378
sg379
g360
sas(g1579
g1559
g1918
tp1929
(lp1930
(dp1931
g374
g1559
sg375
g1579
sg29
g1918
sg376
g1922
sg33
g1879
sg38
g378
sg379
g360
sas(g1567
g1561
g1547
tp1932
(lp1933
(dp1934
g374
g1561
sg375
g1567
sg29
g1547
sg33
g1548
sg38
g39
sg379
g360
sas(g1561
g1567
VEnol-keto tautomerization
p1935
tp1936
(lp1937
(dp1938
g375
g1561
sg374
g1567
sg379
g415
sg376
g1721
sg29
g1935
sg33
g38
sg38
g39
sas(g1551
g1563
g1547
tp1939
(lp1940
(dp1941
g375
g1551
sg374
g1563
sg379
g360
sg376
g1750
sg29
g1547
sg33
g32
sg38
g39
sassg436
g1551
sg437
(dp1942
I1
(dp1943
g20
g1588
sg66
(dp1944
g68
F0.0
sg69
I0
sg70
I0
sg71
(lp1945
g62
asg73
(lp1946
((lp1947
g1596
a(lp1948
g1600
atp1949
asg27
g1602
sg83
I-2
ssg22
(lp1950
g62
asg41
g1604
sg42
I00
sg43
I00
sg44
F-142.7742800000001
sg45
I00
ssI2
(dp1951
g20
g1605
sg66
(dp1952
g68
F0.0
sg69
I0
sg70
I0
sg71
(lp1953
g100
asg73
(lp1954
((lp1955
g1613
a(lp1956
g1616
atp1957
asg27
g1618
sg83
I-2
ssg22
(lp1958
g100
asg41
g1605
sg42
I00
sg43
I00
sg120
I1
sg44
F-972.5798900000001
sg45
I00
ssI3
(dp1959
g20
g1620
sg66
(dp1960
g68
F0.0
sg69
I0
sg70
I0
sg71
(lp1961
g122
asg73
(lp1962
((lp1963
g1628
ag1629
a(lp1964
g1632
atp1965
asg27
g1634
sg83
I-2
ssg22
(lp1966
g122
asg41
g1620
sg42
I00
sg43
I00
sg120
I1
sg44
F90.56015
sg45
I00
ssI4
(dp1967
g20
g1636
sg66
(dp1968
g68
F0.0
sg69
I0
sg70
I0
sg71
(lp1969
g144
asg73
(lp1970
((lp1971
g1644
ag1629
a(lp1972
g1647
atp1973
asg27
g1649
sg83
I-2
ssg22
(lp1974
g144
asg41
g1636
sg42
I00
sg43
I00
sg120
I1
sg44
F407.86871
sg45
I00
ssI5
(dp1975
g20
g1651
sg66
(dp1976
g68
F0.0
sg69
I0
sg70
I0
sg71
(lp1977
g166
asg73
(lp1978
((lp1979
g1659
ag1660
a(lp1980
g1663
atp1981
asg27
g1665
sg83
I-2
ssg22
(lp1982
g166
asg41
g1651
sg42
I00
sg43
I00
sg44
F-1656.81741
sg45
I00
ssI6
(dp1983
g20
g1667
sg66
(dp1984
g68
F0.0
sg69
I0
sg70
I0
sg71
(lp1985
g189
asg73
(lp1986
((lp1987
g1675
a(lp1988
g1679
atp1989
asg27
g1681
sg83
I-2
ssg22
(lp1990
g189
asg41
g1683
sg42
I00
sg43
I00
sg44
F1680.28287
sg45
I00
ssI7
(dp1991
g20
g1684
sg66
(dp1992
g68
F0.0
sg69
I0
sg70
I0
sg71
(lp1993
g213
asg73
(lp1994
((lp1995
g1692
ag1693
a(lp1996
g1698
atp1997
asg27
g1700
sg83
I-2
ssg22
(lp1998
g213
asg41
g1702
sg42
I00
sg43
I00
sg44
F0.1
sg45
I00
ssI9
(dp1999
g20
g1703
sg66
(dp2000
g68
F0.0
sg69
I0
sg70
I0
sg71
(lp2001
g1704
asg73
(lp2002
((lp2003
g1712
ag1629
ag1713
a(lp2004
g1716
atp2005
asg27
g1718
sg83
I-2
ssg22
(lp2006
g1704
asg41
g1720
sg42
I00
sg43
I00
sg44
F0.1
sg45
I00
ssI10
(dp2007
g20
g1721
sg66
(dp2008
g68
F0.0
sg69
I0
sg70
I0
sg71
(lp2009
g1722
asg73
(lp2010
((lp2011
g1730
a(lp2012
g1733
atp2013
asg27
g1735
sg83
I-2
ssg22
(lp2014
g1722
asg41
g1721
sg42
I00
sg43
I00
sg44
F-943.91768
sg45
I00
ssI8
(dp2015
g20
g1543
sg22
(lp2016
g24
asg25
(lp2017
sg27
g1546
sg29
g1547
sg31
g32
sg33
g1548
sg35
g36
sg37
g32
sg38
g39
sg40
g32
sg41
g1543
sg42
I00
sg43
I00
sg44
F943.91768
sg45
I00
ssI11
(dp2018
g20
g1750
sg66
(dp2019
g68
F0.0
sg69
I0
sg70
I0
sg71
(lp2020
g24
asg73
(lp2021
((lp2022
g1757
a(lp2023
g1760
atp2024
asg27
g1762
sg83
I-2
ssg22
(lp2025
g24
asg41
g1750
sg42
I00
sg43
I00
sg44
F103.28213000000001
sg45
I01
ssg547
(dp2026
g20
VCCCCC12C3[Co]1(C#[O+])(C#[O+])(C#[O+])[Co]321(C#[O+])(C#[O+])C2C3CCC(C3)C21>>CCCCC12C3[Co]1(C#[O+])(C#[O+])[Co]32(C#[O+])(C#[O+])C#[O+].C1=CC2CCC1C2
p2027
sg66
(dp2028
g68
F0.0
sg69
I0
sg70
I0
sg71
(lp2029
g166
asg73
(lp2030
((lp2031
g1659
ag1660
a(lp2032
g1663
atp2033
asg27
g1665
sg83
I-2
ssg22
(lp2034
g166
asg41
g2027
sg42
I00
sg43
I00
sg564
Vhand-made reverse rx
p2035
sg44
F1656.81741
sg45
I00
ssg566
(dp2036
g20
VCCCCC12C3[Co]1(C#[O+])(C#[O+])[Co]32(C#[O+])(C#[O+])C#[O+]>>CCCCC12C3[Co]1(C#[O+])(C#[O+])(C#[O+])[Co]32(C#[O+])(C#[O+])C#[O+]
p2037
sg66
(dp2038
g68
F0.0
sg69
I0
sg70
I0
sg71
(lp2039
g189
asg73
(lp2040
((lp2041
g1675
a(lp2042
g1679
atp2043
asg27
g1681
sg83
I-2
ssg22
(lp2044
g189
asg41
VCCCCC12C3[Co]1(C#[O+])(C#[O+])[Co]32(C#[O+])(C#[O+])C#[O+].[C-]#[O+]>>CCCCC12C3[Co]1(C#[O+])(C#[O+])(C#[O+])[Co]32(C#[O+])(C#[O+])C#[O+]
p2045
sg42
I00
sg43
I00
sg564
g2035
sg44
F-1680.28287
sg45
I00
ssg584
(dp2046
g20
VCCCCC12C3[Co]1(C#[O+])(C#[O+])(C#[O+])[Co]32(C#[O+])(C#[O+])C#[O+]>>O=C1[Co]2(C#[O+])(C#[O+])(C#[O+])C(=O)[Co]12(C#[O+])(C#[O+])C#[O+].C#CCCCC
p2047
sg66
(dp2048
g68
F0.0
sg69
I0
sg70
I0
sg71
(lp2049
g213
asg73
(lp2050
((lp2051
g1692
ag1693
a(lp2052
g1698
atp2053
asg27
g1700
sg83
I-2
ssg22
(lp2054
g213
asg41
VCCCCC12C3[Co]1(C#[O+])(C#[O+])(C#[O+])[Co]32(C#[O+])(C#[O+])C#[O+].[C-]#[O+].[C-]#[O+]>>C#CCCCC.O=C1[Co]2(C#[O+])(C#[O+])(C#[O+])C(=O)[Co]12(C#[O+])(C#[O+])C#[O+]
p2055
sg42
I00
sg43
I00
sg564
g2035
sg44
F0.1
sg45
I00
ssV9_REV
p2056
(dp2057
g20
VO=C1[Co]2(C#[O+])(C#[O+])(C#[O+])C(=O)[Co]12(C#[O+])(C#[O+])C#[O+]>>[O+]#C[Co](C#[O+])(C#[O+])[Co](C#[O+])(C#[O+])C#[O+].[C-]#[O+]
p2058
sg66
(dp2059
g68
F0.0
sg69
I0
sg70
I0
sg71
(lp2060
g1704
asg73
(lp2061
((lp2062
g1712
ag1629
ag1713
a(lp2063
g1716
atp2064
asg27
g1718
sg83
I-2
ssg22
(lp2065
g1704
asg41
VO=C1[Co]2(C#[O+])(C#[O+])(C#[O+])C(=O)[Co]12(C#[O+])(C#[O+])C#[O+]>>[O+]#C[Co](C#[O+])(C#[O+])[Co](C#[O+])(C#[O+])C#[O+].[C-]#[O+].[C-]#[O+]
p2066
sg42
I00
sg43
I00
sg564
g2035
sg44
F0.1
sg45
I00
sssg602
(dp2067
g604
g50
((lp2068
tp2069
Rp2070
ssg608
(dp2071
g610
(dp2072
sg612
(dp2073
ssg614
(dp2074
g616
(dp2075
g1567
g50
((lp2076
(g1561
g1567
g1722
I10
I0
I00
tp2077
atp2078
Rp2079
sg1561
g50
((lp2080
(g1567
g1561
g24
I8
I1
I00
tp2081
atp2082
Rp2083
sg1563
g50
((lp2084
(g1551
g1563
g24
I11
I1
I00
tp2085
atp2086
Rp2087
ssg622
(dp2088
g1561
g50
((lp2089
g2077
atp2090
Rp2091
sg1567
g50
((lp2092
g2081
atp2093
Rp2094
sg1551
g50
((lp2095
g2085
atp2096
Rp2097
ssg627
g50
((lp2098
g2085
ag2081
ag2077
atp2099
Rp2100
sg631
(dp2101
I10
g2077
sI8
g2081
sI11
g2085
sssVtargetTautomers
p2102
g50
((lp2103
g1563
ag1551
atp2104
Rp2105
ssg1237
g1238
(g1239
g1240
Ntp2106
Rp2107
(dp2108
g1244
g1245
sg1246
g1245
sg1247
g1245
sg1248
g1245
sg1249
g1245
sg1250
g1245
sg237
(dp2109
sg1252
(dp2110
I1
(dp2111
sVCCCCC1=CC2C3CCC(C3)C2C1=O
p2112
(dp2113
sV[O+]#C[Co](C#[O+])(C#[O+])[Co](C#[O+])(C#[O+])C#[O+]
p2114
(dp2115
sVCCCCC12C(=O)C3C4CCC(C4)C3C1[Co]2(C#[O+])(C#[O+])(C#[O+])[Co](C#[O+])(C#[O+])C#[O+]
p2116
(dp2117
sI8
(dp2118
sI11
(dp2119
sI2
(dp2120
sVCCCCC12C3C4C5CCC(C5)C4C(=O)[Co]1(C#[O+])(C#[O+])(C#[O+])[Co]32(C#[O+])(C#[O+])C#[O+]
p2121
(dp2122
sI3
(dp2123
sVCCCCC12C3C4C5CCC(C5)C4[Co]1(C#[O+])(C#[O+])(C#[O+])[Co]32(C#[O+])(C#[O+])C#[O+]
p2124
(dp2125
sV[C-]#[O+]
p2126
(dp2127
sI4
(dp2128
sI9
(dp2129
sVCCCCC12C3[Co]1(C#[O+])(C#[O+])(C#[O+])[Co]321(C#[O+])(C#[O+])C2C3CCC(C3)C21
p2130
(dp2131
sI5
(dp2132
sVCCCCC12C3[Co]1(C#[O+])(C#[O+])[Co]32(C#[O+])(C#[O+])C#[O+]
p2133
(dp2134
sVC1=CC2CCC1C2
p2135
(dp2136
sI6
(dp2137
sVCCCCC12C3[Co]1(C#[O+])(C#[O+])(C#[O+])[Co]32(C#[O+])(C#[O+])C#[O+]
p2138
(dp2139
sI7
(dp2140
sVO=C1[Co]2(C#[O+])(C#[O+])(C#[O+])C(=O)[Co]12(C#[O+])(C#[O+])C#[O+]
p2141
(dp2142
sVC#CCCCC
p2143
(dp2144
sVCCCCC12C(O)=C3C4CCC(C4)C3C1[Co]2(C#[O+])(C#[O+])(C#[O+])[Co](C#[O+])(C#[O+])C#[O+]
p2145
(dp2146
sI10
(dp2147
sVCCCCC1=CC2C(=C1O)C1CCC2C1
p2148
(dp2149
sV5_REV
p2150
(dp2151
sV6_REV
p2152
(dp2153
sV7_REV
p2154
(dp2155
sV9_REV
p2156
(dp2157
ssg1308
(dp2158
I1
(dp2159
g2112
(dp2160
sg2114
(dp2161
ssg2112
(dp2162
I11
(dp2163
ssg2114
(dp2164
I9
(dp2165
ssg2116
(dp2166
I1
(dp2167
sI8
(dp2168
ssI8
(dp2169
g2145
(dp2170
ssI11
(dp2171
g2148
(dp2172
ssI2
(dp2173
VCCCCC12C(=O)C3C4CCC(C4)C3C1[Co]2(C#[O+])(C#[O+])(C#[O+])[Co](C#[O+])(C#[O+])C#[O+]
p2174
(dp2175
ssg2121
(dp2176
I2
(dp2177
ssI3
(dp2178
VCCCCC12C3C4C5CCC(C5)C4C(=O)[Co]1(C#[O+])(C#[O+])(C#[O+])[Co]32(C#[O+])(C#[O+])C#[O+]
p2179
(dp2180
ssg2124
(dp2181
I3
(dp2182
ssg2126
(dp2183
I3
(dp2184
sI4
(dp2185
sI9
(dp2186
sg2152
(dp2187
sg2154
(dp2188
ssI4
(dp2189
VCCCCC12C3C4C5CCC(C5)C4[Co]1(C#[O+])(C#[O+])(C#[O+])[Co]32(C#[O+])(C#[O+])C#[O+]
p2190
(dp2191
ssI9
(dp2192
VO=C1[Co]2(C#[O+])(C#[O+])(C#[O+])C(=O)[Co]12(C#[O+])(C#[O+])C#[O+]
p2193
(dp2194
ssg2130
(dp2195
I4
(dp2196
sg2150
(dp2197
ssI5
(dp2198
VCCCCC12C3[Co]1(C#[O+])(C#[O+])(C#[O+])[Co]321(C#[O+])(C#[O+])C2C3CCC(C3)C21
p2199
(dp2200
ssg2133
(dp2201
I5
(dp2202
sg2152
(dp2203
ssg2135
(dp2204
I5
(dp2205
ssI6
(dp2206
VCCCCC12C3[Co]1(C#[O+])(C#[O+])[Co]32(C#[O+])(C#[O+])C#[O+]
p2207
(dp2208
sV[C-]#[O+]
p2209
(dp2210
ssg2138
(dp2211
I6
(dp2212
sg2154
(dp2213
ssI7
(dp2214
VCCCCC12C3[Co]1(C#[O+])(C#[O+])(C#[O+])[Co]32(C#[O+])(C#[O+])C#[O+]
p2215
(dp2216
sV[C-]#[O+]
p2217
(dp2218
ssg2141
(dp2219
I7
(dp2220
sg2156
(dp2221
ssg2143
(dp2222
I7
(dp2223
ssg2145
(dp2224
I10
(dp2225
ssI10
(dp2226
VCCCCC12C(=O)C3C4CCC(C4)C3C1[Co]2(C#[O+])(C#[O+])(C#[O+])[Co](C#[O+])(C#[O+])C#[O+]
p2227
(dp2228
ssg2148
(dp2229
sg2150
(dp2230
VC1=CC2CCC1C2
p2231
(dp2232
sVCCCCC12C3[Co]1(C#[O+])(C#[O+])[Co]32(C#[O+])(C#[O+])C#[O+]
p2233
(dp2234
ssg2152
(dp2235
VCCCCC12C3[Co]1(C#[O+])(C#[O+])(C#[O+])[Co]32(C#[O+])(C#[O+])C#[O+]
p2236
(dp2237
ssg2154
(dp2238
VC#CCCCC
p2239
(dp2240
sVO=C1[Co]2(C#[O+])(C#[O+])(C#[O+])C(=O)[Co]12(C#[O+])(C#[O+])C#[O+]
p2241
(dp2242
ssg2156
(dp2243
V[C-]#[O+]
p2244
(dp2245
sV[O+]#C[Co](C#[O+])(C#[O+])[Co](C#[O+])(C#[O+])C#[O+]
p2246
(dp2247
sssg1352
(dp2248
I1
(dp2249
g2116
g2167
ssg2112
(dp2250
I1
g2160
ssg2114
(dp2251
I1
g2161
sg2156
g2247
ssg2116
(dp2252
I2
g2175
sI10
g2228
ssI8
(dp2253
g2116
g2168
ssI11
(dp2254
g2112
g2163
ssI2
(dp2255
g2121
g2177
ssg2121
(dp2256
I3
g2180
ssI3
(dp2257
g2124
g2182
sg2126
g2184
ssg2124
(dp2258
I4
g2191
ssg2126
(dp2259
I6
g2210
sI7
g2218
sg2156
g2245
ssI4
(dp2260
g2126
g2185
sg2130
g2196
ssI9
(dp2261
g2126
g2186
sg2114
g2165
ssg2130
(dp2262
I5
g2200
ssI5
(dp2263
g2133
g2202
sg2135
g2205
ssg2133
(dp2264
I6
g2208
sg2150
g2234
ssg2135
(dp2265
g2150
g2232
ssI6
(dp2266
g2138
g2212
ssg2138
(dp2267
I7
g2216
sg2152
g2237
ssI7
(dp2268
g2141
g2220
sg2143
g2223
ssg2141
(dp2269
I9
g2194
sg2154
g2242
ssg2143
(dp2270
g2154
g2240
ssg2145
(dp2271
I8
g2170
ssI10
(dp2272
g2145
g2225
ssg2148
(dp2273
I11
g2172
ssg2150
(dp2274
VCCCCC12C3[Co]1(C#[O+])(C#[O+])(C#[O+])[Co]321(C#[O+])(C#[O+])C2C3CCC(C3)C21
p2275
g2197
ssg2152
(dp2276
V[C-]#[O+]
p2277
g2187
sVCCCCC12C3[Co]1(C#[O+])(C#[O+])[Co]32(C#[O+])(C#[O+])C#[O+]
p2278
g2203
ssg2154
(dp2279
V[C-]#[O+]
p2280
g2188
sVCCCCC12C3[Co]1(C#[O+])(C#[O+])(C#[O+])[Co]32(C#[O+])(C#[O+])C#[O+]
p2281
g2213
ssg2156
(dp2282
VO=C1[Co]2(C#[O+])(C#[O+])(C#[O+])C(=O)[Co]12(C#[O+])(C#[O+])C#[O+]
p2283
g2221
sssg1374
g2158
sg1375
g1238
(g1376
g1240
Ntp2284
Rp2285
(dp2286
g1380
g2110
sbsbssI2
(dp2287
g4
(dp2288
g6
(dp2289
g8
(lp2290
sg10
(lp2291
(lp2292
a(lp2293
a(lp2294
a(lp2295
a(lp2296
a(lp2297
a(lp2298
(dp2299
g20
VCCCCC12C(=O)C3C4CCC(C4)C3C1[Co]2(C#[O+])(C#[O+])(C#[O+])[Co](C#[O+])(C#[O+])C#[O+]>>CCCCC12C(O)=C3C4CCC(C4)C3C1[Co]2(C#[O+])(C#[O+])(C#[O+])[Co](C#[O+])(C#[O+])C#[O+]
p2300
sg22
(lp2301
g24
asg25
(lp2302
sg27
V[C:1]1(=[O:2])[CH:10]2[CH:9]([CH:14]3[CH2:13][CH2:12][CH:11]2[CH2:15]3)[CH:1003]2[C:1004]1([CH2:1005][CH2:1006][CH2:1007][CH3:1008])[Co:1018]2([C:1019]#[O+:1020])([C:1021]#[O+:1022])([C:1023]#[O+:1024])[Co:1027]([C:1001]#[O+:1002])([C:1030]#[O+:1031])[C:1032]#[O+:1033]>>[C:1]1([OH:2])=[C:10]2[CH:9]([CH:14]3[CH2:13][CH2:12][CH:11]2[CH2:15]3)[CH:1003]2[C:1004]1([CH2:1005][CH2:1006][CH2:1007][CH3:1008])[Co:1018]2([C:1019]#[O+:1020])([C:1021]#[O+:1022])([C:1023]#[O+:1024])[Co:1027]([C:1001]#[O+:1002])([C:1030]#[O+:1031])[C:1032]#[O+:1033]
p2303
sg29
V(thio)Keto-enol tautomerisation
p2304
sg31
g32
sg33
V<BR> allow temp:rt.H, allow AB: B.WB.N.WA.A.SA.LA
p2305
sg35
g36
sg37
g32
sg38
g39
sg40
g32
sg41
g2300
sg42
I00
sg43
I00
sg44
F943.91768
sg45
I00
saasg1549
(dp2306
VCCCCC1=CC2C3CCC(C3)C2C1=O
p2307
V\u000a     RDKit          2D\u000a\u000a 15 17  0  0  0  0  0  0  0  0999 V2000\u000a   -3.0622   -2.7302    0.0000 C   0  0  0  0  0  0  0  0  0  0  0  0\u000a   -2.6058   -1.8402    0.0000 C   0  0  0  0  0  0  0  0  0  0  0  0\u000a   -1.6106   -1.7956    0.0000 C   0  0  0  0  0  0  0  0  0  0  0  0\u000a   -1.1416   -0.9122    0.0000 C   0  0  0  0  0  0  0  0  0  0  0  0\u000a   -0.1370   -0.8964    0.0000 C   0  0  0  0  0  0  0  0  0  0  0  0\u000a    0.5234   -1.8620    0.0000 C   0  0  0  0  0  0  0  0  0  0  0  0\u000a    1.4230   -1.5636    0.0000 C   0  0  0  0  0  0  0  0  0  0  0  0\u000a    2.3840   -1.5002    0.0000 C   0  0  0  0  0  0  0  0  0  0  0  0\u000a    3.3622   -1.3868    0.0000 C   0  0  0  0  0  0  0  0  0  0  0  0\u000a    3.3586   -0.3826    0.0000 C   0  0  0  0  0  0  0  0  0  0  0  0\u000a    2.3824   -0.2772    0.0000 C   0  0  0  0  0  0  0  0  0  0  0  0\u000a    2.1944   -0.8922    0.0000 C   0  0  0  0  0  0  0  0  0  0  0  0\u000a    1.4184   -0.2200    0.0000 C   0  0  0  0  0  0  0  0  0  0  0  0\u000a    0.5162    0.0728    0.0000 C   0  0  0  0  0  0  0  0  0  0  0  0\u000a    0.1922    1.0082    0.0000 O   0  0  0  0  0  0  0  0  0  0  0  0\u000a  1  2  1  0\u000a  2  3  1  0\u000a  3  4  1  0\u000a  4  5  1  0\u000a  5  6  2  0\u000a  6  7  1  0\u000a  7  8  1  0\u000a  8  9  1  0\u000a  9 10  1  0\u000a 10 11  1  0\u000a 11 12  1  0\u000a 11 13  1  0\u000a 13 14  1  0\u000a 14 15  2  0\u000a 14  5  1  0\u000a 13  7  1  0\u000a 12  8  1  0\u000aM  END\u000a
p2308
sVCCCCC12C3[Co]1(C#[O+])(C#[O+])[Co]32(C#[O+])(C#[O+])C#[O+]
p2309
V\u000a     RDKit          2D\u000a\u000a 18 20  0  0  0  0  0  0  0  0999 V2000\u000a   -4.5880    0.5544    0.0000 C   0  0  0  0  0  0  0  0  0  0  0  0\u000a   -3.7216    0.0552    0.0000 C   0  0  0  0  0  0  0  0  0  0  0  0\u000a   -2.8560    0.5558    0.0000 C   0  0  0  0  0  0  0  0  0  0  0  0\u000a   -1.9896    0.0566    0.0000 C   0  0  0  0  0  0  0  0  0  0  0  0\u000a   -1.1240    0.5572    0.0000 C   0  0  0  0  0  0  0  0  0  0  0  0\u000a   -0.2576    0.0580    0.0000 C   0  0  0  0  0  0  0  0  0  0  0  0\u000a    1.0404    1.3092    0.0000 Co  0  0  0  0  0  5  0  0  0  0  0  0\u000a    0.3548    3.1876    0.0000 C   0  0  0  0  0  0  0  0  0  0  0  0\u000a    0.0119    4.1270    0.0000 O   0  0  0  0  0  3  0  0  0  0  0  0\u000a    3.0096    1.6580    0.0000 C   0  0  0  0  0  0  0  0  0  0  0  0\u000a    3.9943    1.8324    0.0000 O   0  0  0  0  0  3  0  0  0  0  0  0\u000a    1.0420   -0.6908    0.0000 Co  0  0  0  0  0  6  0  0  0  0  0  0\u000a    2.9736   -0.1716    0.0000 C   0  0  0  0  0  0  0  0  0  0  0  0\u000a    3.9393    0.0880    0.0000 O   0  0  0  0  0  3  0  0  0  0  0  0\u000a    2.0436   -2.4220    0.0000 C   0  0  0  0  0  0  0  0  0  0  0  0\u000a    2.5444   -3.2876    0.0000 O   0  0  0  0  0  3  0  0  0  0  0  0\u000a   -0.3712   -2.1064    0.0000 C   0  0  0  0  0  0  0  0  0  0  0  0\u000a   -1.0777   -2.8141    0.0000 O   0  0  0  0  0  3  0  0  0  0  0  0\u000a  1  2  1  0\u000a  2  3  1  0\u000a  3  4  1  0\u000a  4  5  1  0\u000a  5  6  1  0\u000a  6  7  1  0\u000a  7  8  1  0\u000a  8  9  3  0\u000a  7 10  1  0\u000a 10 11  3  0\u000a  7 12  1  0\u000a 12 13  1  0\u000a 13 14  3  0\u000a 12 15  1  0\u000a 15 16  3  0\u000a 12 17  1  0\u000a 17 18  3  0\u000a  7  5  1  0\u000a 12  5  1  0\u000a 12  6  1  0\u000aM  CHG  5   9   1  11   1  14   1  16   1  18   1\u000aM  END\u000a
p2310
sV[C-]#[O+]
p2311
V\u000a     RDKit          2D\u000a\u000a  2  1  0  0  0  0  0  0  0  0999 V2000\u000a   -1.0000    0.0000    0.0000 C   0  0  0  0  0  3  0  0  0  0  0  0\u000a    0.0000    0.0000    0.0000 O   0  0  0  0  0  3  0  0  0  0  0  0\u000a  1  2  3  0\u000aM  CHG  2   1  -1   2   1\u000aM  END\u000a
p2312
sVC1=CC2CCC1C2
p2313
V\u000a     RDKit          2D\u000a\u000a  7  8  0  0  0  0  0  0  0  0999 V2000\u000a   -0.7782    0.8310    0.0000 C   0  0  0  0  0  0  0  0  0  0  0  0\u000a   -0.7772   -0.2032    0.0000 C   0  0  0  0  0  0  0  0  0  0  0  0\u000a    0.2080   -0.3358    0.0000 C   0  0  0  0  0  0  0  0  0  0  0  0\u000a    1.1632   -0.4244    0.0000 C   0  0  0  0  0  0  0  0  0  0  0  0\u000a    1.1618    1.0558    0.0000 C   0  0  0  0  0  0  0  0  0  0  0  0\u000a    0.2068    0.9654    0.0000 C   0  0  0  0  0  0  0  0  0  0  0  0\u000a    0.4168    0.3150    0.0000 C   0  0  0  0  0  0  0  0  0  0  0  0\u000a  1  2  2  0\u000a  2  3  1  0\u000a  3  4  1  0\u000a  4  5  1  0\u000a  5  6  1  0\u000a  6  7  1  0\u000a  6  1  1  0\u000a  7  3  1  0\u000aM  END\u000a
p2314
sVCCCCC12C3[Co]1(C#[O+])(C#[O+])(C#[O+])[Co]32(C#[O+])(C#[O+])C#[O+]
p2315
V\u000a     RDKit          2D\u000a\u000a 20 22  0  0  0  0  0  0  0  0999 V2000\u000a    0.9253    5.6018    0.0000 C   0  0  0  0  0  0  0  0  0  0  0  0\u000a    1.3985    4.7204    0.0000 C   0  0  0  0  0  0  0  0  0  0  0  0\u000a    0.8720    3.8698    0.0000 C   0  0  0  0  0  0  0  0  0  0  0  0\u000a    1.3452    2.9885    0.0000 C   0  0  0  0  0  0  0  0  0  0  0  0\u000a    0.8186    2.1379    0.0000 C   0  0  0  0  0  0  0  0  0  0  0  0\u000a    1.2918    1.2565    0.0000 C   0  0  0  0  0  0  0  0  0  0  0  0\u000a   -0.0208    0.0260    0.0000 Co  0  0  0  0  0  6  0  0  0  0  0  0\u000a    0.3464   -1.9308    0.0000 C   0  0  0  0  0  0  0  0  0  0  0  0\u000a    0.5308   -2.9136    0.0000 O   0  0  0  0  0  3  0  0  0  0  0  0\u000a   -1.7992   -0.8652    0.0000 C   0  0  0  0  0  0  0  0  0  0  0  0\u000a   -2.6932   -1.3132    0.0000 O   0  0  0  0  0  3  0  0  0  0  0  0\u000a   -1.3448    1.4992    0.0000 C   0  0  0  0  0  0  0  0  0  0  0  0\u000a   -2.0132    2.2430    0.0000 O   0  0  0  0  0  3  0  0  0  0  0  0\u000a    2.0288   -0.0352    0.0000 Co  0  0  0  0  0  6  0  0  0  0  0  0\u000a    3.4388    1.3556    0.0000 C   0  0  0  0  0  0  0  0  0  0  0  0\u000a    4.1507    2.0578    0.0000 O   0  0  0  0  0  3  0  0  0  0  0  0\u000a    3.7504   -1.0320    0.0000 C   0  0  0  0  0  0  0  0  0  0  0  0\u000a    4.6158   -1.5331    0.0000 O   0  0  0  0  0  3  0  0  0  0  0  0\u000a    1.5448   -1.9664    0.0000 C   0  0  0  0  0  0  0  0  0  0  0  0\u000a    1.3017   -2.9364    0.0000 O   0  0  0  0  0  3  0  0  0  0  0  0\u000a  1  2  1  0\u000a  2  3  1  0\u000a  3  4  1  0\u000a  4  5  1  0\u000a  5  6  1  0\u000a  6  7  1  0\u000a  7  8  1  0\u000a  8  9  3  0\u000a  7 10  1  0\u000a 10 11  3  0\u000a  7 12  1  0\u000a 12 13  3  0\u000a  7 14  1  0\u000a 14 15  1  0\u000a 15 16  3  0\u000a 14 17  1  0\u000a 17 18  3  0\u000a 14 19  1  0\u000a 19 20  3  0\u000a  7  5  1  0\u000a 14  5  1  0\u000a 14  6  1  0\u000aM  CHG  6   9   1  11   1  13   1  16   1  18   1  20   1\u000aM  END\u000a
p2316
sVCCCCC12C(O)=C3C4CCC(C4)C3C1[Co]2(C#[O+])(C#[O+])(C#[O+])[Co](C#[O+])(C#[O+])C#[O+]
p2317
V\u000a     RDKit          2D\u000a\u000a 29 32  0  0  0  0  0  0  0  0999 V2000\u000a    0.8513   -1.8417    0.0000 C   0  0  0  0  0  0  0  0  0  0  0  0\u000a    1.6784   -1.2793    0.0000 C   0  0  0  0  0  0  0  0  0  0  0  0\u000a    2.5733   -1.7170    0.0000 C   0  0  0  0  0  0  0  0  0  0  0  0\u000a    3.4083   -1.1664    0.0000 C   0  0  0  0  0  0  0  0  0  0  0  0\u000a    4.2976   -1.6340    0.0000 C   0  0  0  0  0  0  0  0  0  0  0  0\u000a    5.3353   -1.0964    0.0000 C   0  0  0  0  0  0  0  0  0  0  0  0\u000a    5.4992   -0.1201    0.0000 O   0  0  0  0  0  0  0  0  0  0  0  0\u000a    5.9869   -1.7857    0.0000 C   0  0  0  0  0  0  0  0  0  0  0  0\u000a    6.8055   -2.2979    0.0000 C   0  0  0  0  0  0  0  0  0  0  0  0\u000a    7.6118   -2.8582    0.0000 C   0  0  0  0  0  0  0  0  0  0  0  0\u000a    7.1338   -3.7413    0.0000 C   0  0  0  0  0  0  0  0  0  0  0  0\u000a    6.2209   -3.3721    0.0000 C   0  0  0  0  0  0  0  0  0  0  0  0\u000a    6.3458   -2.7476    0.0000 C   0  0  0  0  0  0  0  0  0  0  0  0\u000a    5.3470   -2.9672    0.0000 C   0  0  0  0  0  0  0  0  0  0  0  0\u000a    4.4144   -2.7980    0.0000 C   0  0  0  0  0  0  0  0  0  0  0  0\u000a    0.5568   -3.4680    0.0000 Co  0  0  0  0  0  6  0  0  0  0  0  0\u000a    2.9216   -6.6944    0.0000 C   0  0  0  0  0  0  0  0  0  0  0  0\u000a    3.5128   -7.5010    0.0000 O   0  0  0  0  0  3  0  0  0  0  0  0\u000a   -1.7808   -6.7136    0.0000 C   0  0  0  0  0  0  0  0  0  0  0  0\u000a   -2.3652   -7.5250    0.0000 O   0  0  0  0  0  3  0  0  0  0  0  0\u000a   -3.2528   -2.2480    0.0000 C   0  0  0  0  0  0  0  0  0  0  0  0\u000a   -4.2052   -1.9430    0.0000 O   0  0  0  0  0  3  0  0  0  0  0  0\u000a    0.5400    0.5312    0.0000 Co  0  0  0  0  0  4  0  0  0  0  0  0\u000a    4.5400    0.5480    0.0000 C   0  0  0  0  0  0  0  0  0  0  0  0\u000a    5.5400    0.5522    0.0000 O   0  0  0  0  0  3  0  0  0  0  0  0\u000a    0.5232    4.5312    0.0000 C   0  0  0  0  0  0  0  0  0  0  0  0\u000a    0.5190    5.5312    0.0000 O   0  0  0  0  0  3  0  0  0  0  0  0\u000a   -3.4600    0.5144    0.0000 C   0  0  0  0  0  0  0  0  0  0  0  0\u000a   -4.4600    0.5102    0.0000 O   0  0  0  0  0  3  0  0  0  0  0  0\u000a  1  2  1  0\u000a  2  3  1  0\u000a  3  4  1  0\u000a  4  5  1  0\u000a  5  6  1  0\u000a  6  7  1  0\u000a  6  8  2  0\u000a  8  9  1  0\u000a  9 10  1  0\u000a 10 11  1  0\u000a 11 12  1  0\u000a 12 13  1  0\u000a 12 14  1  0\u000a 14 15  1  0\u000a 15 16  1  0\u000a 16 17  1  0\u000a 17 18  3  0\u000a 16 19  1  0\u000a 19 20  3  0\u000a 16 21  1  0\u000a 21 22  3  0\u000a 16 23  1  0\u000a 23 24  1  0\u000a 24 25  3  0\u000a 23 26  1  0\u000a 26 27  3  0\u000a 23 28  1  0\u000a 28 29  3  0\u000a 15  5  1  0\u000a 16  5  1  0\u000a 14  8  1  0\u000a 13  9  1  0\u000aM  CHG  6  18   1  20   1  22   1  25   1  27   1  29   1\u000aM  END\u000a
p2318
sVCCCCC1=CC2C(=C1O)C1CCC2C1
p2319
V\u000a     RDKit          2D\u000a\u000a 15 17  0  0  0  0  0  0  0  0999 V2000\u000a   -4.0622   -2.7302    0.0000 C   0  0  0  0  0  0  0  0  0  0  0  0\u000a   -3.6058   -1.8402    0.0000 C   0  0  0  0  0  0  0  0  0  0  0  0\u000a   -2.6106   -1.7956    0.0000 C   0  0  0  0  0  0  0  0  0  0  0  0\u000a   -2.1416   -0.9122    0.0000 C   0  0  0  0  0  0  0  0  0  0  0  0\u000a   -1.1370   -0.8964    0.0000 C   0  0  0  0  0  0  0  0  0  0  0  0\u000a   -0.4766   -1.8620    0.0000 C   0  0  0  0  0  0  0  0  0  0  0  0\u000a    0.4230   -1.5636    0.0000 C   0  0  0  0  0  0  0  0  0  0  0  0\u000a    0.4184   -0.2200    0.0000 C   0  0  0  0  0  0  0  0  0  0  0  0\u000a   -0.4838    0.0728    0.0000 C   0  0  0  0  0  0  0  0  0  0  0  0\u000a   -0.8078    1.0082    0.0000 O   0  0  0  0  0  0  0  0  0  0  0  0\u000a    1.3824   -0.2772    0.0000 C   0  0  0  0  0  0  0  0  0  0  0  0\u000a    2.3586   -0.3826    0.0000 C   0  0  0  0  0  0  0  0  0  0  0  0\u000a    2.3622   -1.3868    0.0000 C   0  0  0  0  0  0  0  0  0  0  0  0\u000a    1.3840   -1.5002    0.0000 C   0  0  0  0  0  0  0  0  0  0  0  0\u000a    1.1944   -0.8922    0.0000 C   0  0  0  0  0  0  0  0  0  0  0  0\u000a  1  2  1  0\u000a  2  3  1  0\u000a  3  4  1  0\u000a  4  5  1  0\u000a  5  6  2  0\u000a  6  7  1  0\u000a  7  8  1  0\u000a  8  9  2  0\u000a  9 10  1  0\u000a  8 11  1  0\u000a 11 12  1  0\u000a 12 13  1  0\u000a 13 14  1  0\u000a 14 15  1  0\u000a  9  5  1  0\u000a 15 11  1  0\u000a 14  7  1  0\u000aM  END\u000a
p2320
sVCCCCC12C3C4C5CCC(C5)C4[Co]1(C#[O+])(C#[O+])(C#[O+])[Co]32(C#[O+])(C#[O+])C#[O+]
p2321
V\u000a     RDKit          2D\u000a\u000a 27 31  0  0  0  0  0  0  0  0999 V2000\u000a   -2.0292    1.3950    0.0000 C   0  0  0  0  0  0  0  0  0  0  0  0\u000a   -1.2326    2.0075    0.0000 C   0  0  0  0  0  0  0  0  0  0  0  0\u000a   -0.3023    1.6244    0.0000 C   0  0  0  0  0  0  0  0  0  0  0  0\u000a    0.4973    2.2377    0.0000 C   0  0  0  0  0  0  0  0  0  0  0  0\u000a    1.4296    1.8531    0.0000 C   0  0  0  0  0  0  0  0  0  0  0  0\u000a    2.2315    2.4659    0.0000 C   0  0  0  0  0  0  0  0  0  0  0  0\u000a    2.1083    3.4543    0.0000 C   0  0  0  0  0  0  0  0  0  0  0  0\u000a    2.7591    4.2102    0.0000 C   0  0  0  0  0  0  0  0  0  0  0  0\u000a    3.3539    4.9627    0.0000 C   0  0  0  0  0  0  0  0  0  0  0  0\u000a    2.0975    5.7711    0.0000 C   0  0  0  0  0  0  0  0  0  0  0  0\u000a    1.6593    4.9184    0.0000 C   0  0  0  0  0  0  0  0  0  0  0  0\u000a    2.3235    4.7427    0.0000 C   0  0  0  0  0  0  0  0  0  0  0  0\u000a    1.2405    4.0111    0.0000 C   0  0  0  0  0  0  0  0  0  0  0  0\u000a   -0.0312    0.0390    0.0000 Co  0  0  0  0  0  6  0  0  0  0  0  0\u000a    0.5196   -2.8962    0.0000 C   0  0  0  0  0  0  0  0  0  0  0  0\u000a    0.7040   -3.8790    0.0000 O   0  0  0  0  0  3  0  0  0  0  0  0\u000a   -2.6988   -1.2978    0.0000 C   0  0  0  0  0  0  0  0  0  0  0  0\u000a   -3.5928   -1.7458    0.0000 O   0  0  0  0  0  3  0  0  0  0  0  0\u000a   -2.0172    2.2488    0.0000 C   0  0  0  0  0  0  0  0  0  0  0  0\u000a   -2.6856    2.9926    0.0000 O   0  0  0  0  0  3  0  0  0  0  0  0\u000a    3.0432   -0.0528    0.0000 Co  0  0  0  0  0  6  0  0  0  0  0  0\u000a    5.1582    2.0334    0.0000 C   0  0  0  0  0  0  0  0  0  0  0  0\u000a    5.8701    2.7356    0.0000 O   0  0  0  0  0  3  0  0  0  0  0  0\u000a    5.6256   -1.5480    0.0000 C   0  0  0  0  0  0  0  0  0  0  0  0\u000a    6.4910   -2.0491    0.0000 O   0  0  0  0  0  3  0  0  0  0  0  0\u000a    2.3172   -2.9496    0.0000 C   0  0  0  0  0  0  0  0  0  0  0  0\u000a    2.0741   -3.9196    0.0000 O   0  0  0  0  0  3  0  0  0  0  0  0\u000a  1  2  1  0\u000a  2  3  1  0\u000a  3  4  1  0\u000a  4  5  1  0\u000a  5  6  1  0\u000a  6  7  1  0\u000a  7  8  1  0\u000a  8  9  1  0\u000a  9 10  1  0\u000a 10 11  1  0\u000a 11 12  1  0\u000a 11 13  1  0\u000a 13 14  1  0\u000a 14 15  1  0\u000a 15 16  3  0\u000a 14 17  1  0\u000a 17 18  3  0\u000a 14 19  1  0\u000a 19 20  3  0\u000a 14 21  1  0\u000a 21 22  1  0\u000a 22 23  3  0\u000a 21 24  1  0\u000a 24 25  3  0\u000a 21 26  1  0\u000a 26 27  3  0\u000a 14  5  1  0\u000a 21  5  1  0\u000a 21  6  1  0\u000a 13  7  1  0\u000a 12  8  1  0\u000aM  CHG  6  16   1  18   1  20   1  23   1  25   1  27   1\u000aM  END\u000a
p2322
sVCCCCC12C(=O)C3C4CCC(C4)C3C1[Co]2(C#[O+])(C#[O+])(C#[O+])[Co](C#[O+])(C#[O+])C#[O+]
p2323
V\u000a     RDKit          2D\u000a\u000a 29 32  0  0  0  0  0  0  0  0999 V2000\u000a    0.8513   -1.8417    0.0000 C   0  0  0  0  0  0  0  0  0  0  0  0\u000a    1.6784   -1.2793    0.0000 C   0  0  0  0  0  0  0  0  0  0  0  0\u000a    2.5733   -1.7170    0.0000 C   0  0  0  0  0  0  0  0  0  0  0  0\u000a    3.4083   -1.1664    0.0000 C   0  0  0  0  0  0  0  0  0  0  0  0\u000a    4.2976   -1.6340    0.0000 C   0  0  0  0  0  0  0  0  0  0  0  0\u000a    5.3353   -1.0964    0.0000 C   0  0  0  0  0  0  0  0  0  0  0  0\u000a    5.4992   -0.1201    0.0000 O   0  0  0  0  0  0  0  0  0  0  0  0\u000a    5.9869   -1.7857    0.0000 C   0  0  0  0  0  0  0  0  0  0  0  0\u000a    6.8055   -2.2979    0.0000 C   0  0  0  0  0  0  0  0  0  0  0  0\u000a    7.6118   -2.8582    0.0000 C   0  0  0  0  0  0  0  0  0  0  0  0\u000a    7.1338   -3.7413    0.0000 C   0  0  0  0  0  0  0  0  0  0  0  0\u000a    6.2209   -3.3721    0.0000 C   0  0  0  0  0  0  0  0  0  0  0  0\u000a    6.3458   -2.7476    0.0000 C   0  0  0  0  0  0  0  0  0  0  0  0\u000a    5.3470   -2.9672    0.0000 C   0  0  0  0  0  0  0  0  0  0  0  0\u000a    4.4144   -2.7980    0.0000 C   0  0  0  0  0  0  0  0  0  0  0  0\u000a    0.5568   -3.4680    0.0000 Co  0  0  0  0  0  6  0  0  0  0  0  0\u000a    2.9216   -6.6944    0.0000 C   0  0  0  0  0  0  0  0  0  0  0  0\u000a    3.5128   -7.5010    0.0000 O   0  0  0  0  0  3  0  0  0  0  0  0\u000a   -1.7808   -6.7136    0.0000 C   0  0  0  0  0  0  0  0  0  0  0  0\u000a   -2.3652   -7.5250    0.0000 O   0  0  0  0  0  3  0  0  0  0  0  0\u000a   -3.2528   -2.2480    0.0000 C   0  0  0  0  0  0  0  0  0  0  0  0\u000a   -4.2052   -1.9430    0.0000 O   0  0  0  0  0  3  0  0  0  0  0  0\u000a    0.5400    0.5312    0.0000 Co  0  0  0  0  0  4  0  0  0  0  0  0\u000a    4.5400    0.5480    0.0000 C   0  0  0  0  0  0  0  0  0  0  0  0\u000a    5.5400    0.5522    0.0000 O   0  0  0  0  0  3  0  0  0  0  0  0\u000a    0.5232    4.5312    0.0000 C   0  0  0  0  0  0  0  0  0  0  0  0\u000a    0.5190    5.5312    0.0000 O   0  0  0  0  0  3  0  0  0  0  0  0\u000a   -3.4600    0.5144    0.0000 C   0  0  0  0  0  0  0  0  0  0  0  0\u000a   -4.4600    0.5102    0.0000 O   0  0  0  0  0  3  0  0  0  0  0  0\u000a  1  2  1  0\u000a  2  3  1  0\u000a  3  4  1  0\u000a  4  5  1  0\u000a  5  6  1  0\u000a  6  7  2  0\u000a  6  8  1  0\u000a  8  9  1  0\u000a  9 10  1  0\u000a 10 11  1  0\u000a 11 12  1  0\u000a 12 13  1  0\u000a 12 14  1  0\u000a 14 15  1  0\u000a 15 16  1  0\u000a 16 17  1  0\u000a 17 18  3  0\u000a 16 19  1  0\u000a 19 20  3  0\u000a 16 21  1  0\u000a 21 22  3  0\u000a 16 23  1  0\u000a 23 24  1  0\u000a 24 25  3  0\u000a 23 26  1  0\u000a 26 27  3  0\u000a 23 28  1  0\u000a 28 29  3  0\u000a 15  5  1  0\u000a 16  5  1  0\u000a 14  8  1  0\u000a 13  9  1  0\u000aM  CHG  6  18   1  20   1  22   1  25   1  27   1  29   1\u000aM  END\u000a
p2324
sVCCCCC12C3[Co]1(C#[O+])(C#[O+])(C#[O+])[Co]321(C#[O+])(C#[O+])C2C3CCC(C3)C21
p2325
V\u000a     RDKit          2D\u000a\u000a 25 30  0  0  0  0  0  0  0  0999 V2000\u000a    1.4529    6.4504    0.0000 C   0  0  0  0  0  0  0  0  0  0  0  0\u000a    1.9261    5.5690    0.0000 C   0  0  0  0  0  0  0  0  0  0  0  0\u000a    1.3996    4.7184    0.0000 C   0  0  0  0  0  0  0  0  0  0  0  0\u000a    1.8728    3.8371    0.0000 C   0  0  0  0  0  0  0  0  0  0  0  0\u000a    1.3462    2.9865    0.0000 C   0  0  0  0  0  0  0  0  0  0  0  0\u000a    1.8194    2.1051    0.0000 C   0  0  0  0  0  0  0  0  0  0  0  0\u000a   -0.0312    0.0390    0.0000 Co  0  0  0  0  0  6  0  0  0  0  0  0\u000a    0.5196   -2.8962    0.0000 C   0  0  0  0  0  0  0  0  0  0  0  0\u000a    0.7040   -3.8790    0.0000 O   0  0  0  0  0  3  0  0  0  0  0  0\u000a   -2.6988   -1.2978    0.0000 C   0  0  0  0  0  0  0  0  0  0  0  0\u000a   -3.5928   -1.7458    0.0000 O   0  0  0  0  0  3  0  0  0  0  0  0\u000a   -2.0172    2.2488    0.0000 C   0  0  0  0  0  0  0  0  0  0  0  0\u000a   -2.6856    2.9926    0.0000 O   0  0  0  0  0  3  0  0  0  0  0  0\u000a    3.0432   -0.0528    0.0000 Co  0  0  0  0  0  7  0  0  0  0  0  0\u000a    5.1582    2.0334    0.0000 C   0  0  0  0  0  0  0  0  0  0  0  0\u000a    5.8701    2.7356    0.0000 O   0  0  0  0  0  3  0  0  0  0  0  0\u000a    5.6256   -1.5480    0.0000 C   0  0  0  0  0  0  0  0  0  0  0  0\u000a    6.4910   -2.0491    0.0000 O   0  0  0  0  0  3  0  0  0  0  0  0\u000a    1.8156   -2.8239    0.0000 C   0  0  0  0  0  0  0  0  0  0  0  0\u000a    1.4466   -3.7470    0.0000 C   0  0  0  0  0  0  0  0  0  0  0  0\u000a    1.1277   -4.6517    0.0000 C   0  0  0  0  0  0  0  0  0  0  0  0\u000a    2.5635   -5.0115    0.0000 C   0  0  0  0  0  0  0  0  0  0  0  0\u000a    2.7088   -4.0633    0.0000 C   0  0  0  0  0  0  0  0  0  0  0  0\u000a    2.0268   -4.1083    0.0000 C   0  0  0  0  0  0  0  0  0  0  0  0\u000a    2.8188   -3.0753    0.0000 C   0  0  0  0  0  0  0  0  0  0  0  0\u000a  1  2  1  0\u000a  2  3  1  0\u000a  3  4  1  0\u000a  4  5  1  0\u000a  5  6  1  0\u000a  6  7  1  0\u000a  7  8  1  0\u000a  8  9  3  0\u000a  7 10  1  0\u000a 10 11  3  0\u000a  7 12  1  0\u000a 12 13  3  0\u000a  7 14  1  0\u000a 14 15  1  0\u000a 15 16  3  0\u000a 14 17  1  0\u000a 17 18  3  0\u000a 14 19  1  0\u000a 19 20  1  0\u000a 20 21  1  0\u000a 21 22  1  0\u000a 22 23  1  0\u000a 23 24  1  0\u000a 23 25  1  0\u000a  7  5  1  0\u000a 25 14  1  0\u000a 14  5  1  0\u000a 25 19  1  0\u000a 14  6  1  0\u000a 24 20  1  0\u000aM  CHG  5   9   1  11   1  13   1  16   1  18   1\u000aM  END\u000a
p2326
sVCCCCC12C3C4C5CCC(C5)C4C(=O)[Co]1(C#[O+])(C#[O+])(C#[O+])[Co]32(C#[O+])(C#[O+])C#[O+]
p2327
V\u000a     RDKit          2D\u000a\u000a 29 33  0  0  0  0  0  0  0  0999 V2000\u000a   -1.4088    3.5659    0.0000 C   0  0  0  0  0  0  0  0  0  0  0  0\u000a   -0.4510    3.8580    0.0000 C   0  0  0  0  0  0  0  0  0  0  0  0\u000a    0.2856    3.1749    0.0000 C   0  0  0  0  0  0  0  0  0  0  0  0\u000a    1.2472    3.4709    0.0000 C   0  0  0  0  0  0  0  0  0  0  0  0\u000a    1.9932    2.7904    0.0000 C   0  0  0  0  0  0  0  0  0  0  0  0\u000a    2.9536    3.0987    0.0000 C   0  0  0  0  0  0  0  0  0  0  0  0\u000a    3.1535    4.0673    0.0000 C   0  0  0  0  0  0  0  0  0  0  0  0\u000a    3.9994    4.5852    0.0000 C   0  0  0  0  0  0  0  0  0  0  0  0\u000a    4.7956    5.1195    0.0000 C   0  0  0  0  0  0  0  0  0  0  0  0\u000a    3.8579    6.2716    0.0000 C   0  0  0  0  0  0  0  0  0  0  0  0\u000a    3.1733    5.6007    0.0000 C   0  0  0  0  0  0  0  0  0  0  0  0\u000a    3.7528    5.2284    0.0000 C   0  0  0  0  0  0  0  0  0  0  0  0\u000a    2.4942    4.8781    0.0000 C   0  0  0  0  0  0  0  0  0  0  0  0\u000a    1.5016    4.8981    0.0000 C   0  0  0  0  0  0  0  0  0  0  0  0\u000a    1.0241    5.7753    0.0000 O   0  0  0  0  0  0  0  0  0  0  0  0\u000a   -0.0416    0.0520    0.0000 Co  0  0  0  0  0  6  0  0  0  0  0  0\u000a    0.6928   -3.8616    0.0000 C   0  0  0  0  0  0  0  0  0  0  0  0\u000a    0.8772   -4.8444    0.0000 O   0  0  0  0  0  3  0  0  0  0  0  0\u000a   -3.5984   -1.7304    0.0000 C   0  0  0  0  0  0  0  0  0  0  0  0\u000a   -4.4924   -2.1784    0.0000 O   0  0  0  0  0  3  0  0  0  0  0  0\u000a   -2.6896    2.9984    0.0000 C   0  0  0  0  0  0  0  0  0  0  0  0\u000a   -3.3580    3.7422    0.0000 O   0  0  0  0  0  3  0  0  0  0  0  0\u000a    4.0576   -0.0704    0.0000 Co  0  0  0  0  0  6  0  0  0  0  0  0\u000a    6.8776    2.7112    0.0000 C   0  0  0  0  0  0  0  0  0  0  0  0\u000a    7.5895    3.4134    0.0000 O   0  0  0  0  0  3  0  0  0  0  0  0\u000a    7.5008   -2.0640    0.0000 C   0  0  0  0  0  0  0  0  0  0  0  0\u000a    8.3662   -2.5651    0.0000 O   0  0  0  0  0  3  0  0  0  0  0  0\u000a    3.0896   -3.9328    0.0000 C   0  0  0  0  0  0  0  0  0  0  0  0\u000a    2.8465   -4.9028    0.0000 O   0  0  0  0  0  3  0  0  0  0  0  0\u000a  1  2  1  0\u000a  2  3  1  0\u000a  3  4  1  0\u000a  4  5  1  0\u000a  5  6  1  0\u000a  6  7  1  0\u000a  7  8  1  0\u000a  8  9  1  0\u000a  9 10  1  0\u000a 10 11  1  0\u000a 11 12  1  0\u000a 11 13  1  0\u000a 13 14  1  0\u000a 14 15  2  0\u000a 14 16  1  0\u000a 16 17  1  0\u000a 17 18  3  0\u000a 16 19  1  0\u000a 19 20  3  0\u000a 16 21  1  0\u000a 21 22  3  0\u000a 16 23  1  0\u000a 23 24  1  0\u000a 24 25  3  0\u000a 23 26  1  0\u000a 26 27  3  0\u000a 23 28  1  0\u000a 28 29  3  0\u000a 16  5  1  0\u000a 23  5  1  0\u000a 23  6  1  0\u000a 13  7  1  0\u000a 12  8  1  0\u000aM  CHG  6  18   1  20   1  22   1  25   1  27   1  29   1\u000aM  END\u000a
p2328
sssg33
(dp2329
g47
(lp2330
g49
asg33
g50
((lp2331
g52
atp2332
Rp2333
sg55
g50
((lp2334
g32
ag2307
ag2319
ag2315
ag2321
aVC#CCCCC
p2335
ag2313
aVO=C1[Co]2(C#[O+])(C#[O+])(C#[O+])C(=O)[Co]12(C#[O+])(C#[O+])C#[O+]
p2336
ag2325
ag2317
aV[O+]#C[Co](C#[O+])(C#[O+])[Co](C#[O+])(C#[O+])C#[O+]
p2337
ag2327
ag2311
ag2323
ag2309
atp2338
Rp2339
sg1584
g32
sg1585
g1586
ssg59
(dp2340
(VCCCCC12C(=O)C3C4CCC(C4)C3C1[Co]2(C#[O+])(C#[O+])(C#[O+])[Co](C#[O+])(C#[O+])C#[O+]>>CCCCC1=CC2C3CCC(C3)C2C1=O
p2341
(g62
tp2342
tp2343
(dp2344
g20
g2341
sg66
(dp2345
g68
F0.0
sg69
I0
sg70
I0
sg71
(lp2346
g62
asg73
(lp2347
((lp2348
V[CH3:153][CH2:154][CH2:155][CH2:156][C:157]12[C:158](=[O:159])[CH:160]3[CH:161]4[CH2:162][CH2:163][CH:164]([CH2:165]4)[CH:166]3[CH:167]1[Co:168]2([C:169]#[O+:170])([C:171]#[O+:172])([C:173]#[O+:174])[Co:175]([C:176]#[O+:177])([C:178]#[O+:179])[C:180]#[O+:181]
p2349
a(lp2350
(V[CH3:153][CH2:154][CH2:155][CH2:156][C:157]1=[CH:167][CH:166]2[CH:160]([C:158]1=[O:159])[CH:161]1[CH2:162][CH2:163][CH:164]2[CH2:165]1
p2351
V[Co:168]([C:169]#[O+:170])([C:171]#[O+:172])([C:173]#[O+:174])[Co:175]([C:176]#[O+:177])([C:178]#[O+:179])[C:180]#[O+:181]
p2352
tp2353
atp2354
asg27
V[CH3:153][CH2:154][CH2:155][CH2:156][C:157]12[C:158](=[O:159])[CH:160]3[CH:161]4[CH2:162][CH2:163][CH:164]([CH2:165]4)[CH:166]3[CH:167]1[Co:168]2([C:169]#[O+:170])([C:171]#[O+:172])([C:173]#[O+:174])[Co:175]([C:176]#[O+:177])([C:178]#[O+:179])[C:180]#[O+:181]>>[CH3:153][CH2:154][CH2:155][CH2:156][C:157]1=[CH:167][CH:166]2[CH:160]([C:158]1=[O:159])[CH:161]1[CH2:162][CH2:163][CH:164]2[CH2:165]1.[Co:168]([C:169]#[O+:170])([C:171]#[O+:172])([C:173]#[O+:174])[Co:175]([C:176]#[O+:177])([C:178]#[O+:179])[C:180]#[O+:181]
p2355
sg83
I-2
ssg22
(lp2356
g62
asg41
VCCCCC12C(=O)C3C4CCC(C4)C3C1[Co]2(C#[O+])(C#[O+])(C#[O+])[Co](C#[O+])(C#[O+])C#[O+]>>CCCCC1=CC2C3CCC(C3)C2C1=O.[O+]#C[Co](C#[O+])(C#[O+])[Co](C#[O+])(C#[O+])C#[O+]
p2357
sg42
I00
sg43
I00
sg44
F-142.7742800000001
sg45
I00
ss(VCCCCC12C3C4C5CCC(C5)C4C(=O)[Co]1(C#[O+])(C#[O+])(C#[O+])[Co]32(C#[O+])(C#[O+])C#[O+]>>CCCCC12C(=O)C3C4CCC(C4)C3C1[Co]2(C#[O+])(C#[O+])(C#[O+])[Co](C#[O+])(C#[O+])C#[O+]
p2358
(g100
tp2359
tp2360
(dp2361
g20
g2358
sg66
(dp2362
g68
F0.0
sg69
I0
sg70
I0
sg71
(lp2363
g100
asg73
(lp2364
((lp2365
V[CH3:124][CH2:125][CH2:126][CH2:127][C:128]12[CH:129]3[CH:130]4[CH:131]5[CH2:132][CH2:133][CH:134]([CH2:135]5)[CH:136]4[C:137](=[O:138])[Co:139]1([C:140]#[O+:141])([C:142]#[O+:143])([C:144]#[O+:145])[Co:146]23([C:147]#[O+:148])([C:149]#[O+:150])[C:151]#[O+:152]
p2366
a(lp2367
(V[CH3:124][CH2:125][CH2:126][CH2:127][C:128]12[CH:129]([CH:130]3[CH:131]4[CH2:132][CH2:133][CH:134]([CH2:135]4)[CH:136]3[C:137]1=[O:138])[Co:146]2([Co:139]([C:140]#[O+:141])([C:142]#[O+:143])[C:144]#[O+:145])([C:147]#[O+:148])([C:149]#[O+:150])[C:151]#[O+:152]
p2368
tp2369
atp2370
asg27
V[CH3:124][CH2:125][CH2:126][CH2:127][C:128]12[CH:129]3[CH:130]4[CH:131]5[CH2:132][CH2:133][CH:134]([CH2:135]5)[CH:136]4[C:137](=[O:138])[Co:139]1([C:140]#[O+:141])([C:142]#[O+:143])([C:144]#[O+:145])[Co:146]23([C:147]#[O+:148])([C:149]#[O+:150])[C:151]#[O+:152]>>[CH3:124][CH2:125][CH2:126][CH2:127][C:128]12[CH:129]([CH:130]3[CH:131]4[CH2:132][CH2:133][CH:134]([CH2:135]4)[CH:136]3[C:137]1=[O:138])[Co:146]2([Co:139]([C:140]#[O+:141])([C:142]#[O+:143])[C:144]#[O+:145])([C:147]#[O+:148])([C:149]#[O+:150])[C:151]#[O+:152]
p2371
sg83
I-2
ssg22
(lp2372
g100
asg41
g2358
sg42
I00
sg43
I00
sg120
I1
sg44
F-972.5798900000001
sg45
I00
ss(VCCCCC12C3C4C5CCC(C5)C4[Co]1(C#[O+])(C#[O+])(C#[O+])[Co]32(C#[O+])(C#[O+])C#[O+].[C-]#[O+]>>CCCCC12C3C4C5CCC(C5)C4C(=O)[Co]1(C#[O+])(C#[O+])(C#[O+])[Co]32(C#[O+])(C#[O+])C#[O+]
p2373
(g122
tp2374
tp2375
(dp2376
g20
g2373
sg66
(dp2377
g68
F0.0
sg69
I0
sg70
I0
sg71
(lp2378
g122
asg73
(lp2379
((lp2380
V[CH3:97][CH2:98][CH2:99][CH2:100][C:101]12[CH:102]3[CH:103]4[CH:104]5[CH2:105][CH2:106][CH:107]([CH2:108]5)[CH:109]4[Co:110]1([C:111]#[O+:112])([C:113]#[O+:114])([C:115]#[O+:116])[Co:117]23([C:118]#[O+:119])([C:120]#[O+:121])[C:122]#[O+:123]
p2381
aV[C-:1]#[O+:2]
p2382
a(lp2383
(V[C:1](#[O+:2])[Co:110]12([C:113]#[O+:114])([C:115]#[O+:116])[C:101]3([CH2:100][CH2:99][CH2:98][CH3:97])[CH:102]([CH:103]4[CH:104]5[CH2:105][CH2:106][CH:107]([CH2:108]5)[CH:109]4[C:111]1=[O:112])[Co:117]32([C:118]#[O+:119])([C:120]#[O+:121])[C:122]#[O+:123]
p2384
tp2385
atp2386
asg27
V[CH3:97][CH2:98][CH2:99][CH2:100][C:101]12[CH:102]3[CH:103]4[CH:104]5[CH2:105][CH2:106][CH:107]([CH2:108]5)[CH:109]4[Co:110]1([C:111]#[O+:112])([C:113]#[O+:114])([C:115]#[O+:116])[Co:117]23([C:118]#[O+:119])([C:120]#[O+:121])[C:122]#[O+:123].[C-:1]#[O+:2]>>[C:1](#[O+:2])[Co:110]12([C:113]#[O+:114])([C:115]#[O+:116])[C:101]3([CH2:100][CH2:99][CH2:98][CH3:97])[CH:102]([CH:103]4[CH:104]5[CH2:105][CH2:106][CH:107]([CH2:108]5)[CH:109]4[C:111]1=[O:112])[Co:117]32([C:118]#[O+:119])([C:120]#[O+:121])[C:122]#[O+:123]
p2387
sg83
I-2
ssg22
(lp2388
g122
asg41
g2373
sg42
I00
sg43
I00
sg120
I1
sg44
F90.56015
sg45
I00
ss(VCCCCC12C3[Co]1(C#[O+])(C#[O+])(C#[O+])[Co]321(C#[O+])(C#[O+])C2C3CCC(C3)C21.[C-]#[O+]>>CCCCC12C3C4C5CCC(C5)C4[Co]1(C#[O+])(C#[O+])(C#[O+])[Co]32(C#[O+])(C#[O+])C#[O+]
p2389
(g144
tp2390
tp2391
(dp2392
g20
g2389
sg66
(dp2393
g68
F0.0
sg69
I0
sg70
I0
sg71
(lp2394
g144
asg73
(lp2395
((lp2396
V[CH3:72][CH2:73][CH2:74][CH2:75][C:76]12[CH:77]3[Co:78]1([C:79]#[O+:80])([C:81]#[O+:82])([C:83]#[O+:84])[Co:85]231([C:86]#[O+:87])([C:88]#[O+:89])[CH:90]2[CH:91]3[CH2:92][CH2:93][CH:94]([CH2:95]3)[CH:96]12
p2397
ag2382
a(lp2398
(V[C:1](#[O+:2])[Co:85]12([C:86]#[O+:87])([C:88]#[O+:89])[C:76]3([CH2:75][CH2:74][CH2:73][CH3:72])[CH:77]([Co:78]31([C:79]#[O+:80])([C:81]#[O+:82])[C:83]#[O+:84])[CH:96]1[CH:90]2[CH:91]2[CH2:92][CH2:93][CH:94]1[CH2:95]2
p2399
tp2400
atp2401
asg27
V[CH3:72][CH2:73][CH2:74][CH2:75][C:76]12[CH:77]3[Co:78]1([C:79]#[O+:80])([C:81]#[O+:82])([C:83]#[O+:84])[Co:85]231([C:86]#[O+:87])([C:88]#[O+:89])[CH:90]2[CH:91]3[CH2:92][CH2:93][CH:94]([CH2:95]3)[CH:96]12.[C-:1]#[O+:2]>>[C:1](#[O+:2])[Co:85]12([C:86]#[O+:87])([C:88]#[O+:89])[C:76]3([CH2:75][CH2:74][CH2:73][CH3:72])[CH:77]([Co:78]31([C:79]#[O+:80])([C:81]#[O+:82])[C:83]#[O+:84])[CH:96]1[CH:90]2[CH:91]2[CH2:92][CH2:93][CH:94]1[CH2:95]2
p2402
sg83
I-2
ssg22
(lp2403
g144
asg41
g2389
sg42
I00
sg43
I00
sg120
I1
sg44
F407.86871
sg45
I00
ss(VCCCCC12C3[Co]1(C#[O+])(C#[O+])[Co]32(C#[O+])(C#[O+])C#[O+].C1=CC2CCC1C2>>CCCCC12C3[Co]1(C#[O+])(C#[O+])(C#[O+])[Co]321(C#[O+])(C#[O+])C2C3CCC(C3)C21
p2404
(g166
tp2405
tp2406
(dp2407
g20
g2404
sg66
(dp2408
g68
F0.0
sg69
I0
sg70
I0
sg71
(lp2409
g166
asg73
(lp2410
((lp2411
V[CH3:54][CH2:55][CH2:56][CH2:57][C:58]12[CH:59]3[Co:60]1([C:61]#[O+:62])([C:63]#[O+:64])[Co:65]23([C:66]#[O+:67])([C:68]#[O+:69])[C:70]#[O+:71]
p2412
aV[CH:9]1=[CH:10][CH:11]2[CH2:12][CH2:13][CH:14]1[CH2:15]2
p2413
a(lp2414
(V[CH:9]12[CH:10]([CH:11]3[CH2:12][CH2:13][CH:14]1[CH2:15]3)[Co:60]213([C:61]#[O+:62])([C:63]#[O+:64])[C:58]2([CH2:57][CH2:56][CH2:55][CH3:54])[CH:59]1[Co:65]23([C:66]#[O+:67])([C:68]#[O+:69])[C:70]#[O+:71]
p2415
tp2416
atp2417
asg27
V[CH:9]12[CH:10]([CH:11]3[CH2:12][CH2:13][CH:14]1[CH2:15]3)[Co:60]213([C:61]#[O+:62])([C:63]#[O+:64])[C:58]2([CH2:57][CH2:56][CH2:55][CH3:54])[CH:59]1[Co:65]23([C:66]#[O+:67])([C:68]#[O+:69])[C:70]#[O+:71]>>[CH3:54][CH2:55][CH2:56][CH2:57][C:58]12[CH:59]3[Co:60]1([C:61]#[O+:62])([C:63]#[O+:64])[Co:65]23([C:66]#[O+:67])([C:68]#[O+:69])[C:70]#[O+:71].[CH:9]1=[CH:10][CH:11]2[CH2:12][CH2:13][CH:14]1[CH2:15]2
p2418
sg83
I-2
ssg22
(lp2419
g166
asg41
g2404
sg42
I00
sg43
I00
sg44
F-1656.81741
sg45
I00
ss(VCCCCC12C3[Co]1(C#[O+])(C#[O+])(C#[O+])[Co]32(C#[O+])(C#[O+])C#[O+]>>CCCCC12C3[Co]1(C#[O+])(C#[O+])[Co]32(C#[O+])(C#[O+])C#[O+]
p2420
(g189
tp2421
tp2422
(dp2423
g20
g2420
sg66
(dp2424
g68
F0.0
sg69
I0
sg70
I0
sg71
(lp2425
g189
asg73
(lp2426
((lp2427
V[CH3:34][CH2:35][CH2:36][CH2:37][C:38]12[CH:39]3[Co:40]1([C:41]#[O+:42])([C:43]#[O+:44])([C:45]#[O+:46])[Co:47]23([C:48]#[O+:49])([C:50]#[O+:51])[C:52]#[O+:53]
p2428
a(lp2429
(V[CH3:34][CH2:35][CH2:36][CH2:37][C:38]12[CH:39]3[Co:40]1([C:41]#[O+:42])([C:43]#[O+:44])([C:45]#[O+:46])[Co:47]23([C:50]#[O+:51])[C:52]#[O+:53]
p2430
V[C-:48]#[O+:49]
p2431
tp2432
atp2433
asg27
V[CH3:34][CH2:35][CH2:36][CH2:37][C:38]12[CH:39]3[Co:40]1([C:41]#[O+:42])([C:43]#[O+:44])([C:45]#[O+:46])[Co:47]23([C:50]#[O+:51])[C:52]#[O+:53].[C-:48]#[O+:49]>>[CH3:34][CH2:35][CH2:36][CH2:37][C:38]12[CH:39]3[Co:40]1([C:41]#[O+:42])([C:43]#[O+:44])([C:45]#[O+:46])[Co:47]23([C:48]#[O+:49])([C:50]#[O+:51])[C:52]#[O+:53]
p2434
sg83
I-2
ssg22
(lp2435
g189
asg41
VCCCCC12C3[Co]1(C#[O+])(C#[O+])(C#[O+])[Co]32(C#[O+])(C#[O+])C#[O+]>>CCCCC12C3[Co]1(C#[O+])(C#[O+])[Co]32(C#[O+])(C#[O+])C#[O+].[C-]#[O+]
p2436
sg42
I00
sg43
I00
sg44
F1680.28287
sg45
I00
ss(VO=C1[Co]2(C#[O+])(C#[O+])(C#[O+])C(=O)[Co]12(C#[O+])(C#[O+])C#[O+].C#CCCCC>>CCCCC12C3[Co]1(C#[O+])(C#[O+])(C#[O+])[Co]32(C#[O+])(C#[O+])C#[O+]
p2437
(g213
tp2438
tp2439
(dp2440
g20
g2437
sg66
(dp2441
g68
F0.0
sg69
I0
sg70
I0
sg71
(lp2442
g213
asg73
(lp2443
((lp2444
V[CH:3]#[C:4][CH2:5][CH2:6][CH2:7][CH3:8]
p2445
aV[O:16]=[C:17]1[Co:18]2([C:19]#[O+:20])([C:21]#[O+:22])([C:23]#[O+:24])[C:25](=[O:26])[Co:27]12([C:28]#[O+:29])([C:30]#[O+:31])[C:32]#[O+:33]
p2446
a(lp2447
(V[CH:3]12[C:4]3([CH2:5][CH2:6][CH2:7][CH3:8])[Co:18]1([C:19]#[O+:20])([C:21]#[O+:22])([C:23]#[O+:24])[Co:27]23([C:28]#[O+:29])([C:30]#[O+:31])[C:32]#[O+:33]
p2448
V[C-:25]#[O+:26]
p2449
V[O+:16]#[C-:17]
p2450
tp2451
atp2452
asg27
V[CH:3]12[C:4]3([CH2:5][CH2:6][CH2:7][CH3:8])[Co:18]1([C:19]#[O+:20])([C:21]#[O+:22])([C:23]#[O+:24])[Co:27]23([C:28]#[O+:29])([C:30]#[O+:31])[C:32]#[O+:33].[C-:25]#[O+:26].[O+:16]#[C-:17]>>[CH:3]#[C:4][CH2:5][CH2:6][CH2:7][CH3:8].[O:16]=[C:17]1[Co:18]2([C:19]#[O+:20])([C:21]#[O+:22])([C:23]#[O+:24])[C:25](=[O:26])[Co:27]12([C:28]#[O+:29])([C:30]#[O+:31])[C:32]#[O+:33]
p2453
sg83
I-2
ssg22
(lp2454
g213
asg41
VC#CCCCC.O=C1[Co]2(C#[O+])(C#[O+])(C#[O+])C(=O)[Co]12(C#[O+])(C#[O+])C#[O+]>>CCCCC12C3[Co]1(C#[O+])(C#[O+])(C#[O+])[Co]32(C#[O+])(C#[O+])C#[O+].[C-]#[O+].[C-]#[O+]
p2455
sg42
I00
sg43
I00
sg44
F0.1
sg45
I00
ss(V[O+]#C[Co](C#[O+])(C#[O+])[Co](C#[O+])(C#[O+])C#[O+].[C-]#[O+]>>O=C1[Co]2(C#[O+])(C#[O+])(C#[O+])C(=O)[Co]12(C#[O+])(C#[O+])C#[O+]
p2456
(g1704
tp2457
tp2458
(dp2459
g20
g2456
sg66
(dp2460
g68
F0.0
sg69
I0
sg70
I0
sg71
(lp2461
g1704
asg73
(lp2462
((lp2463
V[O+:197]#[C:198][Co:199]([C:200]#[O+:201])([C:202]#[O+:203])[Co:204]([C:205]#[O+:206])([C:207]#[O+:208])[C:209]#[O+:210]
p2464
ag2382
aV[C-:1001]#[O+:1002]
p2465
a(lp2466
(V[C:1]1(=[O:2])[Co:199]2([C:198]#[O+:197])([C:200]#[O+:201])([C:202]#[O+:203])[Co:204]1([C:205]#[O+:206])([C:207]#[O+:208])([C:209]#[O+:210])[C:1001]2=[O:1002]
p2467
tp2468
atp2469
asg27
V[C:1]1(=[O:2])[Co:199]2([C:198]#[O+:197])([C:200]#[O+:201])([C:202]#[O+:203])[Co:204]1([C:205]#[O+:206])([C:207]#[O+:208])([C:209]#[O+:210])[C:1001]2=[O:1002]>>[O+:197]#[C:198][Co:199]([C:200]#[O+:201])([C:202]#[O+:203])[Co:204]([C:205]#[O+:206])([C:207]#[O+:208])[C:209]#[O+:210].[C-:1]#[O+:2].[C-:1001]#[O+:1002]
p2470
sg83
I-2
ssg22
(lp2471
g1704
asg41
V[O+]#C[Co](C#[O+])(C#[O+])[Co](C#[O+])(C#[O+])C#[O+].[C-]#[O+].[C-]#[O+]>>O=C1[Co]2(C#[O+])(C#[O+])(C#[O+])C(=O)[Co]12(C#[O+])(C#[O+])C#[O+]
p2472
sg42
I00
sg43
I00
sg44
F0.1
sg45
I00
ss(VCCCCC12C(O)=C3C4CCC(C4)C3C1[Co]2(C#[O+])(C#[O+])(C#[O+])[Co](C#[O+])(C#[O+])C#[O+]>>CCCCC12C(=O)C3C4CCC(C4)C3C1[Co]2(C#[O+])(C#[O+])(C#[O+])[Co](C#[O+])(C#[O+])C#[O+]
p2473
(g1722
tp2474
tp2475
(dp2476
g20
g2473
sg66
(dp2477
g68
F0.0
sg69
I0
sg70
I0
sg71
(lp2478
g1722
asg73
(lp2479
((lp2480
V[CH3:211][CH2:212][CH2:213][CH2:214][C:215]12[C:216]([OH:217])=[C:218]3[CH:219]4[CH2:220][CH2:221][CH:222]([CH2:223]4)[CH:224]3[CH:225]1[Co:226]2([C:227]#[O+:228])([C:229]#[O+:230])([C:231]#[O+:232])[Co:233]([C:234]#[O+:235])([C:236]#[O+:237])[C:238]#[O+:239]
p2481
a(lp2482
(V[CH3:211][CH2:212][CH2:213][CH2:214][C:215]12[C:216](=[O:217])[CH:218]3[CH:219]4[CH2:220][CH2:221][CH:222]([CH2:223]4)[CH:224]3[CH:225]1[Co:226]2([C:227]#[O+:228])([C:229]#[O+:230])([C:231]#[O+:232])[Co:233]([C:234]#[O+:235])([C:236]#[O+:237])[C:238]#[O+:239]
p2483
tp2484
atp2485
asg27
V[CH3:211][CH2:212][CH2:213][CH2:214][C:215]12[C:216]([OH:217])=[C:218]3[CH:219]4[CH2:220][CH2:221][CH:222]([CH2:223]4)[CH:224]3[CH:225]1[Co:226]2([C:227]#[O+:228])([C:229]#[O+:230])([C:231]#[O+:232])[Co:233]([C:234]#[O+:235])([C:236]#[O+:237])[C:238]#[O+:239]>>[CH3:211][CH2:212][CH2:213][CH2:214][C:215]12[C:216](=[O:217])[CH:218]3[CH:219]4[CH2:220][CH2:221][CH:222]([CH2:223]4)[CH:224]3[CH:225]1[Co:226]2([C:227]#[O+:228])([C:229]#[O+:230])([C:231]#[O+:232])[Co:233]([C:234]#[O+:235])([C:236]#[O+:237])[C:238]#[O+:239]
p2486
sg83
I-2
ssg22
(lp2487
g1722
asg41
g2473
sg42
I00
sg43
I00
sg44
F-943.91768
sg45
I00
ss(g2300
(g24
tp2488
tp2489
(dp2490
g20
g2300
sg66
(dp2491
g68
F0.0
sg69
I0
sg70
I0
sg71
(lp2492
g24
asg73
(lp2493
((lp2494
g2349
a(lp2495
(V[CH3:153][CH2:154][CH2:155][CH2:156][C:157]12[C:158]([OH:159])=[C:160]3[CH:161]4[CH2:162][CH2:163][CH:164]([CH2:165]4)[CH:166]3[CH:167]1[Co:168]2([C:169]#[O+:170])([C:171]#[O+:172])([C:173]#[O+:174])[Co:175]([C:176]#[O+:177])([C:178]#[O+:179])[C:180]#[O+:181]
p2496
tp2497
atp2498
asg27
V[CH3:153][CH2:154][CH2:155][CH2:156][C:157]12[C:158](=[O:159])[CH:160]3[CH:161]4[CH2:162][CH2:163][CH:164]([CH2:165]4)[CH:166]3[CH:167]1[Co:168]2([C:169]#[O+:170])([C:171]#[O+:172])([C:173]#[O+:174])[Co:175]([C:176]#[O+:177])([C:178]#[O+:179])[C:180]#[O+:181]>>[CH3:153][CH2:154][CH2:155][CH2:156][C:157]12[C:158]([OH:159])=[C:160]3[CH:161]4[CH2:162][CH2:163][CH:164]([CH2:165]4)[CH:166]3[CH:167]1[Co:168]2([C:169]#[O+:170])([C:171]#[O+:172])([C:173]#[O+:174])[Co:175]([C:176]#[O+:177])([C:178]#[O+:179])[C:180]#[O+:181]
p2499
sg83
I-2
ssg22
(lp2500
g24
asg41
g2300
ss(VCCCCC1=CC2C3CCC(C3)C2C1=O>>CCCCC1=CC2C(=C1O)C1CCC2C1
p2501
g2488
tp2502
(dp2503
g20
g2501
sg66
(dp2504
g68
F0.0
sg69
I0
sg70
I0
sg71
(lp2505
g24
asg73
(lp2506
((lp2507
V[CH3:182][CH2:183][CH2:184][CH2:185][C:186]1=[CH:187][CH:188]2[CH:189]3[CH2:190][CH2:191][CH:192]([CH2:193]3)[CH:194]2[C:195]1=[O:196]
p2508
a(lp2509
(V[CH3:182][CH2:183][CH2:184][CH2:185][C:186]1=[CH:187][CH:188]2[CH:189]3[CH2:190][CH2:191][CH:192]([CH2:193]3)[C:194]2=[C:195]1[OH:196]
p2510
tp2511
atp2512
asg27
V[CH3:182][CH2:183][CH2:184][CH2:185][C:186]1=[CH:187][CH:188]2[CH:189]3[CH2:190][CH2:191][CH:192]([CH2:193]3)[CH:194]2[C:195]1=[O:196]>>[CH3:182][CH2:183][CH2:184][CH2:185][C:186]1=[CH:187][CH:188]2[CH:189]3[CH2:190][CH2:191][CH:192]([CH2:193]3)[C:194]2=[C:195]1[OH:196]
p2513
sg83
I-2
ssg22
(lp2514
g24
asg41
g2501
sg42
I00
sg43
I00
sg44
F103.28213000000001
sg45
I01
ss(VCCCCC1=CC2C(=C1O)C1CCC2C1>>CCCCC1=CC2C3CCC(C3)C2C1=O
p2515
g2474
tp2516
(dp2517
g20
g2515
sg66
(dp2518
g68
F0.0
sg69
I0
sg70
I0
sg71
(lp2519
g1722
asg73
(lp2520
((lp2521
V[CH3:240][CH2:241][CH2:242][CH2:243][C:244]1=[CH:245][CH:246]2[C:247](=[C:248]1[OH:249])[CH:250]1[CH2:251][CH2:252][CH:253]2[CH2:254]1
p2522
a(lp2523
(V[CH3:240][CH2:241][CH2:242][CH2:243][C:244]1=[CH:245][CH:246]2[CH:247]([C:248]1=[O:249])[CH:250]1[CH2:251][CH2:252][CH:253]2[CH2:254]1
p2524
tp2525
atp2526
asg27
V[CH3:240][CH2:241][CH2:242][CH2:243][C:244]1=[CH:245][CH:246]2[C:247](=[C:248]1[OH:249])[CH:250]1[CH2:251][CH2:252][CH:253]2[CH2:254]1>>[CH3:240][CH2:241][CH2:242][CH2:243][C:244]1=[CH:245][CH:246]2[CH:247]([C:248]1=[O:249])[CH:250]1[CH2:251][CH2:252][CH:253]2[CH2:254]1
p2527
sg83
I-2
ssg22
(lp2528
g1722
asg41
g2515
sg42
I00
sg43
I00
sg44
F-103.28213000000001
sg45
I01
sssg237
(lp2529
(I1
g2307
tp2530
a(I1
g2337
tp2531
a(g2323
I1
tp2532
a(g2323
I8
tp2533
a(g2307
I11
tp2534
a(I2
g2323
tp2535
a(g2327
I2
tp2536
a(I3
g2327
tp2537
a(g2321
I3
tp2538
a(g2311
I3
tp2539
a(g2311
I4
tp2540
a(g2311
I9
tp2541
a(I4
g2321
tp2542
a(g2325
I4
tp2543
a(I5
g2325
tp2544
a(g2309
I5
tp2545
a(g2313
I5
tp2546
a(I6
g2309
tp2547
a(I6
g2311
tp2548
a(g2315
I6
tp2549
a(I7
g2315
tp2550
a(I7
g2311
tp2551
a(g2336
I7
tp2552
a(g2335
I7
tp2553
a(g2337
I9
tp2554
a(I8
g2317
tp2555
a(g2317
I10
tp2556
a(I9
g2336
tp2557
a(I10
g2323
tp2558
a(I11
g2319
tp2559
a(g2319
I12
tp2560
a(I12
g2307
tp2561
asg273
(dp2562
((g2323
tp2563
g2307
g2342
tp2564
I1
s((g2327
tp2565
g2323
g2359
tp2566
I2
s((g2321
g2311
tp2567
g2327
g2374
tp2568
I3
s((g2325
g2311
tp2569
g2321
g2390
tp2570
I4
s((g2313
g2309
tp2571
g2325
g2405
tp2572
I5
s((g2315
tp2573
g2309
g2421
tp2574
I6
s((g2335
g2336
tp2575
g2315
g2438
tp2576
I7
s(g2563
g2317
g2488
tp2577
I8
s((g2311
g2337
tp2578
g2336
g2457
tp2579
I9
s((g2317
tp2580
g2323
g2474
tp2581
I10
s((g2307
tp2582
g2319
g2488
tp2583
I11
s((g2319
tp2584
g2307
g2474
tp2585
I12
ssg291
(dp2586
g2311
(dp2587
g294
I0
sg295
(lp2588
g2336
ag2335
asg297
g2312
sg299
g300
sg301
g2311
sg302
g303
sg304
(lp2589
(lp2590
g2315
aassg2335
(dp2591
g294
I0
sg295
(lp2592
sg297
V\u000a     RDKit          2D\u000a\u000a  6  5  0  0  0  0  0  0  0  0999 V2000\u000a   -2.5822    1.0146    0.0000 C   0  0  0  0  0  0  0  0  0  0  0  0\u000a   -1.7158    0.5152    0.0000 C   0  0  0  0  0  0  0  0  0  0  0  0\u000a   -0.8494    0.0160    0.0000 C   0  0  0  0  0  0  0  0  0  0  0  0\u000a    0.0162    0.5166    0.0000 C   0  0  0  0  0  0  0  0  0  0  0  0\u000a    0.8826    0.0174    0.0000 C   0  0  0  0  0  0  0  0  0  0  0  0\u000a    1.7482    0.5180    0.0000 C   0  0  0  0  0  0  0  0  0  0  0  0\u000a  1  2  3  0\u000a  2  3  1  0\u000a  3  4  1  0\u000a  4  5  1  0\u000a  5  6  1  0\u000aM  END\u000a
p2593
sg299
g310
sg301
g2335
sg302
g311
ssg2313
(dp2594
g294
I0
sg295
(lp2595
sg297
g2314
sg299
g315
sg301
g2313
sg302
g311
ssg2336
(dp2596
g294
I0
sg295
(lp2597
sg297
V\u000a     RDKit          2D\u000a\u000a 18 19  0  0  0  0  0  0  0  0999 V2000\u000a   -2.3660    0.0006    0.0000 O   0  0  0  0  0  0  0  0  0  0  0  0\u000a   -1.3660    0.0006    0.0000 C   0  0  0  0  0  0  0  0  0  0  0  0\u000a   -0.5004   -0.5000    0.0000 Co  0  0  0  0  0  6  0  0  0  0  0  0\u000a   -1.3668   -0.9994    0.0000 C   0  0  0  0  0  0  0  0  0  0  0  0\u000a   -2.2332   -1.4988    0.0000 O   0  0  0  0  0  3  0  0  0  0  0  0\u000a   -0.5012   -1.5000    0.0000 C   0  0  0  0  0  0  0  0  0  0  0  0\u000a   -0.5020   -2.5000    0.0000 O   0  0  0  0  0  3  0  0  0  0  0  0\u000a    0.3652   -1.0006    0.0000 C   0  0  0  0  0  0  0  0  0  0  0  0\u000a    1.2309   -1.5012    0.0000 O   0  0  0  0  0  3  0  0  0  0  0  0\u000a    0.3660   -0.0006    0.0000 C   0  0  0  0  0  0  0  0  0  0  0  0\u000a    1.3660   -0.0006    0.0000 O   0  0  0  0  0  0  0  0  0  0  0  0\u000a   -0.4996    0.5000    0.0000 Co  0  0  0  0  0  6  0  0  0  0  0  0\u000a    0.3668    0.9994    0.0000 C   0  0  0  0  0  0  0  0  0  0  0  0\u000a    1.2332    1.4988    0.0000 O   0  0  0  0  0  3  0  0  0  0  0  0\u000a   -0.4988    1.5000    0.0000 C   0  0  0  0  0  0  0  0  0  0  0  0\u000a   -0.4980    2.5000    0.0000 O   0  0  0  0  0  3  0  0  0  0  0  0\u000a   -1.3652    1.0006    0.0000 C   0  0  0  0  0  0  0  0  0  0  0  0\u000a   -2.2309    1.5012    0.0000 O   0  0  0  0  0  3  0  0  0  0  0  0\u000a  1  2  2  0\u000a  2  3  1  0\u000a  3  4  1  0\u000a  4  5  3  0\u000a  3  6  1  0\u000a  6  7  3  0\u000a  3  8  1  0\u000a  8  9  3  0\u000a  3 10  1  0\u000a 10 11  2  0\u000a 10 12  1  0\u000a 12 13  1  0\u000a 13 14  3  0\u000a 12 15  1  0\u000a 15 16  3  0\u000a 12 17  1  0\u000a 17 18  3  0\u000a 12  2  1  0\u000a 12  3  1  0\u000aM  CHG  6   5   1   7   1   9   1  14   1  16   1  18   1\u000aM  END\u000a
p2598
sg299
VC8Co2O8+6
p2599
sg301
g2336
sg302
g311
ssg2307
(dp2600
g294
I7
sg295
(lp2601
g2323
asg297
g2308
sg299
g323
sg324
g2307
sg302
g311
sg304
(lp2602
(lp2603
g2319
aassg2323
(dp2604
g294
I6
sg295
(lp2605
g2327
asg297
g2324
sg299
VC20H20Co2O7+6
p2606
sg324
g2323
sg302
g311
sg304
(lp2607
(lp2608
g2317
aassg2327
(dp2609
g294
I5
sg295
(lp2610
g2321
ag2311
asg297
g2328
sg299
g2606
sg324
g2327
sg302
g311
ssg2321
(dp2611
g294
I4
sg295
(lp2612
g2325
ag2311
asg297
g2322
sg299
VC19H20Co2O6+6
p2613
sg324
g2321
sg302
g311
ssg2325
(dp2614
g294
I3
sg295
(lp2615
g2309
ag2313
asg297
g2326
sg299
VC18H20Co2O5+5
p2616
sg324
g2325
sg302
g311
ssg2309
(dp2617
g294
I2
sg295
(lp2618
g2315
asg297
g2310
sg299
VC11H10Co2O5+5
p2619
sg324
g2309
sg302
g311
ssg2315
(dp2620
g294
I1
sg295
(lp2621
g2336
ag2335
asg297
g2316
sg299
VC12H10Co2O6+6
p2622
sg324
g2315
sg302
g311
ssg2337
(dp2623
g294
I7
sg295
(lp2624
g2323
asg299
VC6Co2O6+6
p2625
sg297
V\u000a     RDKit          2D\u000a\u000a 14 13  0  0  0  0  0  0  0  0999 V2000\u000a   -1.4836    0.5614    0.0000 O   0  0  0  0  0  3  0  0  0  0  0  0\u000a   -0.6162    0.0638    0.0000 C   0  0  0  0  0  0  0  0  0  0  0  0\u000a    0.2512   -0.4338    0.0000 Co  0  0  0  0  0  4  0  0  0  0  0  0\u000a   -0.2464   -1.3012    0.0000 C   0  0  0  0  0  0  0  0  0  0  0  0\u000a   -0.7440   -2.1686    0.0000 O   0  0  0  0  0  3  0  0  0  0  0  0\u000a    1.1186   -0.9312    0.0000 C   0  0  0  0  0  0  0  0  0  0  0  0\u000a    1.9861   -1.4287    0.0000 O   0  0  0  0  0  3  0  0  0  0  0  0\u000a    0.7488    0.4338    0.0000 Co  0  0  0  0  0  4  0  0  0  0  0  0\u000a    1.6162   -0.0638    0.0000 C   0  0  0  0  0  0  0  0  0  0  0  0\u000a    2.4836   -0.5614    0.0000 O   0  0  0  0  0  3  0  0  0  0  0  0\u000a    1.2464    1.3012    0.0000 C   0  0  0  0  0  0  0  0  0  0  0  0\u000a    1.7440    2.1686    0.0000 O   0  0  0  0  0  3  0  0  0  0  0  0\u000a   -0.1186    0.9312    0.0000 C   0  0  0  0  0  0  0  0  0  0  0  0\u000a   -0.9861    1.4287    0.0000 O   0  0  0  0  0  3  0  0  0  0  0  0\u000a  1  2  3  0\u000a  2  3  1  0\u000a  3  4  1  0\u000a  4  5  3  0\u000a  3  6  1  0\u000a  6  7  3  0\u000a  3  8  1  0\u000a  8  9  1  0\u000a  9 10  3  0\u000a  8 11  1  0\u000a 11 12  3  0\u000a  8 13  1  0\u000a 13 14  3  0\u000aM  CHG  6   1   1   5   1   7   1  10   1  12   1  14   1\u000aM  END\u000a
p2626
sg324
g2337
sg302
g352
ssg2317
(dp2627
g294
I7
sg295
(lp2628
g2323
asg299
g2606
sg297
g2318
sg324
g2317
sg302
g6
ssg2319
(dp2629
g294
I8
sg302
g1859
sg297
g2320
sg299
g323
sg1860
g2319
sg1861
(lp2630
I0
asg295
(lp2631
g2307
asssg356
(dp2632
g2564
(dp2633
g359
g360
ssg2566
(dp2634
g359
g360
ssg2568
(dp2635
g359
g360
ssg2570
(dp2636
g359
g360
ssg2572
(dp2637
g359
g360
ssg2574
(dp2638
g359
g360
ssg2576
(dp2639
g359
g360
ssg2577
(dp2640
g359
g360
ssg2581
(dp2641
g379
g415
ssg2583
(dp2642
g379
g360
sssg368
(dp2643
(g2323
g2337
g370
tp2644
(lp2645
(dp2646
g374
g2337
sg375
g2323
sg29
g370
sg376
g2357
sg33
Vtoluene, heat<BR> allow temp:H, allow AB: N
p2647
sg38
g378
sg379
g360
sas(g2323
g2307
g370
tp2648
(lp2649
(dp2650
g374
g2307
sg375
g2323
sg29
g370
sg376
g2357
sg33
g2647
sg38
g378
sg379
g360
sas(g2327
g2323
g370
tp2651
(lp2652
(dp2653
g374
g2323
sg375
g2327
sg29
g370
sg376
VCCCCC12C3C4C5CCC(C5)C4C(=O)[Co]1(C#[O+])(C#[O+])(C#[O+])[Co]32(C#[O+])(C#[O+])C#[O+]>>CCCCC12C(=O)C3C4CCC(C4)C3C1[Co]2(C#[O+])(C#[O+])(C#[O+])[Co](C#[O+])(C#[O+])C#[O+].
p2654
sg33
g2647
sg38
g378
sg379
g360
sas(g2321
g2327
VInsertion of carbon monoxide
p2655
tp2656
(lp2657
(dp2658
g374
g2327
sg375
g2321
sg29
g2655
sg376
VCCCCC12C3C4C5CCC(C5)C4[Co]1(C#[O+])(C#[O+])(C#[O+])[Co]32(C#[O+])(C#[O+])C#[O+].[C-]#[O+]>>CCCCC12C3C4C5CCC(C5)C4C(=O)[Co]1(C#[O+])(C#[O+])(C#[O+])[Co]32(C#[O+])(C#[O+])C#[O+].
p2659
sg33
g2647
sg38
g378
sg379
g360
sas(g2311
g2327
g2655
tp2660
(lp2661
(dp2662
g374
g2327
sg375
g2311
sg29
g2655
sg376
g2659
sg33
g2647
sg38
g378
sg379
g360
sas(g2325
g2321
VInsertion of alkene
p2663
tp2664
(lp2665
(dp2666
g374
g2321
sg375
g2325
sg29
g2663
sg376
VCCCCC12C3[Co]1(C#[O+])(C#[O+])(C#[O+])[Co]321(C#[O+])(C#[O+])C2C3CCC(C3)C21.[C-]#[O+]>>CCCCC12C3C4C5CCC(C5)C4[Co]1(C#[O+])(C#[O+])(C#[O+])[Co]32(C#[O+])(C#[O+])C#[O+].
p2667
sg33
g2647
sg38
g378
sg379
g360
sas(g2311
g2321
g2663
tp2668
(lp2669
(dp2670
g374
g2321
sg375
g2311
sg29
g2663
sg376
g2667
sg33
g2647
sg38
g378
sg379
g360
sas(g2309
g2325
VFormation of pi-complexes
p2671
tp2672
(lp2673
(dp2674
g374
g2325
sg375
g2309
sg29
g2671
sg376
VCCCCC12C3[Co]1(C#[O+])(C#[O+])[Co]32(C#[O+])(C#[O+])C#[O+].C1=CC2CCC1C2>>CCCCC12C3[Co]1(C#[O+])(C#[O+])(C#[O+])[Co]321(C#[O+])(C#[O+])C2C3CCC(C3)C21.
p2675
sg33
g2647
sg38
g378
sg379
g360
sas(g2313
g2325
g2671
tp2676
(lp2677
(dp2678
g374
g2325
sg375
g2313
sg29
g2671
sg376
g2675
sg33
g2647
sg38
g378
sg379
g360
sas(g2315
g2311
VDecomplexation of carbon monoxide
p2679
tp2680
(lp2681
(dp2682
g374
g2311
sg375
g2315
sg29
g2679
sg376
g2436
sg33
g2647
sg38
g378
sg379
g415
sas(g2315
g2309
g2679
tp2683
(lp2684
(dp2685
g374
g2309
sg375
g2315
sg29
g2679
sg376
g2436
sg33
g2647
sg38
g378
sg379
g360
sas(g2336
g2311
VAddition of Co complexes to alkynes
p2686
tp2687
(lp2688
(dp2689
g374
g2311
sg375
g2336
sg29
g2686
sg376
VO=C1[Co]2(C#[O+])(C#[O+])(C#[O+])C(=O)[Co]12(C#[O+])(C#[O+])C#[O+].C#CCCCC>>CCCCC12C3[Co]1(C#[O+])(C#[O+])(C#[O+])[Co]32(C#[O+])(C#[O+])C#[O+].[C-]#[O+]
p2690
sg33
g2647
sg38
g378
sg379
g360
sas(g2335
g2311
g2686
tp2691
(lp2692
(dp2693
g374
g2311
sg375
g2335
sg29
g2686
sg376
g2690
sg33
g2647
sg38
g378
sg379
g360
sas(g2336
g2315
g2686
tp2694
(lp2695
(dp2696
g374
g2315
sg375
g2336
sg29
g2686
sg376
g2690
sg33
g2647
sg38
g378
sg379
g360
sas(g2335
g2315
g2686
tp2697
(lp2698
(dp2699
g374
g2315
sg375
g2335
sg29
g2686
sg376
g2690
sg33
g2647
sg38
g378
sg379
g360
sas(g2323
g2317
g2304
tp2700
(lp2701
(dp2702
g374
g2317
sg375
g2323
sg29
g2304
sg33
g2305
sg38
g39
sg379
g360
sas(g2317
g2323
VEnol-keto tautomerization
p2703
tp2704
(lp2705
(dp2706
g375
g2317
sg374
g2323
sg379
g415
sg376
g2473
sg29
g2703
sg33
g38
sg38
g39
sas(g2307
g2319
g2304
tp2707
(lp2708
(dp2709
g375
g2307
sg374
g2319
sg379
g360
sg376
g2501
sg29
g2304
sg33
g32
sg38
g39
sas(g2319
g2307
g2703
tp2710
(lp2711
(dp2712
g375
g2319
sg374
g2307
sg379
g415
sg29
g2703
sg376
g2515
sg33
g38
sg38
g39
sassg436
g2307
sg437
(dp2713
I1
(dp2714
g20
g2341
sg66
(dp2715
g68
F0.0
sg69
I0
sg70
I0
sg71
(lp2716
g62
asg73
(lp2717
((lp2718
g2349
a(lp2719
g2353
atp2720
asg27
g2355
sg83
I-2
ssg22
(lp2721
g62
asg41
g2357
sg42
I00
sg43
I00
sg44
F-142.7742800000001
sg45
I00
ssI2
(dp2722
g20
g2358
sg66
(dp2723
g68
F0.0
sg69
I0
sg70
I0
sg71
(lp2724
g100
asg73
(lp2725
((lp2726
g2366
a(lp2727
g2369
atp2728
asg27
g2371
sg83
I-2
ssg22
(lp2729
g100
asg41
g2358
sg42
I00
sg43
I00
sg120
I1
sg44
F-972.5798900000001
sg45
I00
ssI3
(dp2730
g20
g2373
sg66
(dp2731
g68
F0.0
sg69
I0
sg70
I0
sg71
(lp2732
g122
asg73
(lp2733
((lp2734
g2381
ag2382
a(lp2735
g2385
atp2736
asg27
g2387
sg83
I-2
ssg22
(lp2737
g122
asg41
g2373
sg42
I00
sg43
I00
sg120
I1
sg44
F90.56015
sg45
I00
ssI4
(dp2738
g20
g2389
sg66
(dp2739
g68
F0.0
sg69
I0
sg70
I0
sg71
(lp2740
g144
asg73
(lp2741
((lp2742
g2397
ag2382
a(lp2743
g2400
atp2744
asg27
g2402
sg83
I-2
ssg22
(lp2745
g144
asg41
g2389
sg42
I00
sg43
I00
sg120
I1
sg44
F407.86871
sg45
I00
ssI5
(dp2746
g20
g2404
sg66
(dp2747
g68
F0.0
sg69
I0
sg70
I0
sg71
(lp2748
g166
asg73
(lp2749
((lp2750
g2412
ag2413
a(lp2751
g2416
atp2752
asg27
g2418
sg83
I-2
ssg22
(lp2753
g166
asg41
g2404
sg42
I00
sg43
I00
sg44
F-1656.81741
sg45
I00
ssI6
(dp2754
g20
g2420
sg66
(dp2755
g68
F0.0
sg69
I0
sg70
I0
sg71
(lp2756
g189
asg73
(lp2757
((lp2758
g2428
a(lp2759
g2432
atp2760
asg27
g2434
sg83
I-2
ssg22
(lp2761
g189
asg41
g2436
sg42
I00
sg43
I00
sg44
F1680.28287
sg45
I00
ssI7
(dp2762
g20
g2437
sg66
(dp2763
g68
F0.0
sg69
I0
sg70
I0
sg71
(lp2764
g213
asg73
(lp2765
((lp2766
g2445
ag2446
a(lp2767
g2451
atp2768
asg27
g2453
sg83
I-2
ssg22
(lp2769
g213
asg41
g2455
sg42
I00
sg43
I00
sg44
F0.1
sg45
I00
ssI9
(dp2770
g20
g2456
sg66
(dp2771
g68
F0.0
sg69
I0
sg70
I0
sg71
(lp2772
g1704
asg73
(lp2773
((lp2774
g2464
ag2382
ag2465
a(lp2775
g2468
atp2776
asg27
g2470
sg83
I-2
ssg22
(lp2777
g1704
asg41
g2472
sg42
I00
sg43
I00
sg44
F0.1
sg45
I00
ssI10
(dp2778
g20
g2473
sg66
(dp2779
g68
F0.0
sg69
I0
sg70
I0
sg71
(lp2780
g1722
asg73
(lp2781
((lp2782
g2481
a(lp2783
g2484
atp2784
asg27
g2486
sg83
I-2
ssg22
(lp2785
g1722
asg41
g2473
sg42
I00
sg43
I00
sg44
F-943.91768
sg45
I00
ssI8
(dp2786
g20
g2300
sg22
(lp2787
g24
asg25
(lp2788
sg27
g2303
sg29
g2304
sg31
g32
sg33
g2305
sg35
g36
sg37
g32
sg38
g39
sg40
g32
sg41
g2300
sg42
I00
sg43
I00
sg44
F943.91768
sg45
I00
ssI11
(dp2789
g20
g2501
sg66
(dp2790
g68
F0.0
sg69
I0
sg70
I0
sg71
(lp2791
g24
asg73
(lp2792
((lp2793
g2508
a(lp2794
g2511
atp2795
asg27
g2513
sg83
I-2
ssg22
(lp2796
g24
asg41
g2501
sg42
I00
sg43
I00
sg44
F103.28213000000001
sg45
I01
ssI12
(dp2797
g20
g2515
sg66
(dp2798
g68
F0.0
sg69
I0
sg70
I0
sg71
(lp2799
g1722
asg73
(lp2800
((lp2801
g2522
a(lp2802
g2525
atp2803
asg27
g2527
sg83
I-2
ssg22
(lp2804
g1722
asg41
g2515
sg42
I00
sg43
I00
sg44
F-103.28213000000001
sg45
I01
ssg547
(dp2805
g20
VCCCCC12C3[Co]1(C#[O+])(C#[O+])(C#[O+])[Co]321(C#[O+])(C#[O+])C2C3CCC(C3)C21>>CCCCC12C3[Co]1(C#[O+])(C#[O+])[Co]32(C#[O+])(C#[O+])C#[O+].C1=CC2CCC1C2
p2806
sg66
(dp2807
g68
F0.0
sg69
I0
sg70
I0
sg71
(lp2808
g166
asg73
(lp2809
((lp2810
g2412
ag2413
a(lp2811
g2416
atp2812
asg27
g2418
sg83
I-2
ssg22
(lp2813
g166
asg41
g2806
sg42
I00
sg43
I00
sg564
Vhand-made reverse rx
p2814
sg44
F1656.81741
sg45
I00
ssg566
(dp2815
g20
VCCCCC12C3[Co]1(C#[O+])(C#[O+])[Co]32(C#[O+])(C#[O+])C#[O+]>>CCCCC12C3[Co]1(C#[O+])(C#[O+])(C#[O+])[Co]32(C#[O+])(C#[O+])C#[O+]
p2816
sg66
(dp2817
g68
F0.0
sg69
I0
sg70
I0
sg71
(lp2818
g189
asg73
(lp2819
((lp2820
g2428
a(lp2821
g2432
atp2822
asg27
g2434
sg83
I-2
ssg22
(lp2823
g189
asg41
VCCCCC12C3[Co]1(C#[O+])(C#[O+])[Co]32(C#[O+])(C#[O+])C#[O+].[C-]#[O+]>>CCCCC12C3[Co]1(C#[O+])(C#[O+])(C#[O+])[Co]32(C#[O+])(C#[O+])C#[O+]
p2824
sg42
I00
sg43
I00
sg564
g2814
sg44
F-1680.28287
sg45
I00
ssg584
(dp2825
g20
VCCCCC12C3[Co]1(C#[O+])(C#[O+])(C#[O+])[Co]32(C#[O+])(C#[O+])C#[O+]>>O=C1[Co]2(C#[O+])(C#[O+])(C#[O+])C(=O)[Co]12(C#[O+])(C#[O+])C#[O+].C#CCCCC
p2826
sg66
(dp2827
g68
F0.0
sg69
I0
sg70
I0
sg71
(lp2828
g213
asg73
(lp2829
((lp2830
g2445
ag2446
a(lp2831
g2451
atp2832
asg27
g2453
sg83
I-2
ssg22
(lp2833
g213
asg41
VCCCCC12C3[Co]1(C#[O+])(C#[O+])(C#[O+])[Co]32(C#[O+])(C#[O+])C#[O+].[C-]#[O+].[C-]#[O+]>>C#CCCCC.O=C1[Co]2(C#[O+])(C#[O+])(C#[O+])C(=O)[Co]12(C#[O+])(C#[O+])C#[O+]
p2834
sg42
I00
sg43
I00
sg564
g2814
sg44
F0.1
sg45
I00
ssg2056
(dp2835
g20
VO=C1[Co]2(C#[O+])(C#[O+])(C#[O+])C(=O)[Co]12(C#[O+])(C#[O+])C#[O+]>>[O+]#C[Co](C#[O+])(C#[O+])[Co](C#[O+])(C#[O+])C#[O+].[C-]#[O+]
p2836
sg66
(dp2837
g68
F0.0
sg69
I0
sg70
I0
sg71
(lp2838
g1704
asg73
(lp2839
((lp2840
g2464
ag2382
ag2465
a(lp2841
g2468
atp2842
asg27
g2470
sg83
I-2
ssg22
(lp2843
g1704
asg41
VO=C1[Co]2(C#[O+])(C#[O+])(C#[O+])C(=O)[Co]12(C#[O+])(C#[O+])C#[O+]>>[O+]#C[Co](C#[O+])(C#[O+])[Co](C#[O+])(C#[O+])C#[O+].[C-]#[O+].[C-]#[O+]
p2844
sg42
I00
sg43
I00
sg564
g2814
sg44
F0.1
sg45
I00
sssg602
(dp2845
g604
g50
((lp2846
tp2847
Rp2848
ssg608
(dp2849
g610
(dp2850
sg612
(dp2851
ssg614
(dp2852
g616
(dp2853
g2323
g50
((lp2854
(g2317
g2323
g1722
I10
I0
I00
tp2855
atp2856
Rp2857
sg2317
g50
((lp2858
(g2323
g2317
g24
I8
I1
I00
tp2859
atp2860
Rp2861
sg2319
g50
((lp2862
(g2307
g2319
g24
I11
I1
I00
tp2863
atp2864
Rp2865
sg2307
g50
((lp2866
(g2319
g2307
g1722
I12
I0
I00
tp2867
atp2868
Rp2869
ssg622
(dp2870
g2317
g50
((lp2871
g2855
atp2872
Rp2873
sg2323
g50
((lp2874
g2859
atp2875
Rp2876
sg2307
g50
((lp2877
g2863
atp2878
Rp2879
sg2319
g50
((lp2880
g2867
atp2881
Rp2882
ssg627
g50
((lp2883
g2867
ag2863
ag2859
ag2855
atp2884
Rp2885
sg631
(dp2886
I10
g2855
sI8
g2859
sI11
g2863
sI12
g2867
sssg2102
g50
((lp2887
g2319
ag2307
atp2888
Rp2889
ssg1237
g1238
(g1239
g1240
Ntp2890
Rp2891
(dp2892
g1244
g1245
sg1246
g1245
sg1247
g1245
sg1248
g1245
sg1249
g1245
sg1250
g1245
sg237
(dp2893
sg1252
(dp2894
I1
(dp2895
sVCCCCC1=CC2C3CCC(C3)C2C1=O
p2896
(dp2897
sV[O+]#C[Co](C#[O+])(C#[O+])[Co](C#[O+])(C#[O+])C#[O+]
p2898
(dp2899
sVCCCCC12C(=O)C3C4CCC(C4)C3C1[Co]2(C#[O+])(C#[O+])(C#[O+])[Co](C#[O+])(C#[O+])C#[O+]
p2900
(dp2901
sI8
(dp2902
sI11
(dp2903
sI2
(dp2904
sVCCCCC12C3C4C5CCC(C5)C4C(=O)[Co]1(C#[O+])(C#[O+])(C#[O+])[Co]32(C#[O+])(C#[O+])C#[O+]
p2905
(dp2906
sI3
(dp2907
sVCCCCC12C3C4C5CCC(C5)C4[Co]1(C#[O+])(C#[O+])(C#[O+])[Co]32(C#[O+])(C#[O+])C#[O+]
p2908
(dp2909
sV[C-]#[O+]
p2910
(dp2911
sI4
(dp2912
sI9
(dp2913
sVCCCCC12C3[Co]1(C#[O+])(C#[O+])(C#[O+])[Co]321(C#[O+])(C#[O+])C2C3CCC(C3)C21
p2914
(dp2915
sI5
(dp2916
sVCCCCC12C3[Co]1(C#[O+])(C#[O+])[Co]32(C#[O+])(C#[O+])C#[O+]
p2917
(dp2918
sVC1=CC2CCC1C2
p2919
(dp2920
sI6
(dp2921
sVCCCCC12C3[Co]1(C#[O+])(C#[O+])(C#[O+])[Co]32(C#[O+])(C#[O+])C#[O+]
p2922
(dp2923
sI7
(dp2924
sVO=C1[Co]2(C#[O+])(C#[O+])(C#[O+])C(=O)[Co]12(C#[O+])(C#[O+])C#[O+]
p2925
(dp2926
sVC#CCCCC
p2927
(dp2928
sVCCCCC12C(O)=C3C4CCC(C4)C3C1[Co]2(C#[O+])(C#[O+])(C#[O+])[Co](C#[O+])(C#[O+])C#[O+]
p2929
(dp2930
sI10
(dp2931
sVCCCCC1=CC2C(=C1O)C1CCC2C1
p2932
(dp2933
sI12
(dp2934
sV5_REV
p2935
(dp2936
sV6_REV
p2937
(dp2938
sV7_REV
p2939
(dp2940
sV9_REV
p2941
(dp2942
ssg1308
(dp2943
I1
(dp2944
g2896
(dp2945
sg2898
(dp2946
ssg2896
(dp2947
I11
(dp2948
ssg2898
(dp2949
I9
(dp2950
ssg2900
(dp2951
I1
(dp2952
sI8
(dp2953
ssI8
(dp2954
g2929
(dp2955
ssI11
(dp2956
g2932
(dp2957
ssI2
(dp2958
VCCCCC12C(=O)C3C4CCC(C4)C3C1[Co]2(C#[O+])(C#[O+])(C#[O+])[Co](C#[O+])(C#[O+])C#[O+]
p2959
(dp2960
ssg2905
(dp2961
I2
(dp2962
ssI3
(dp2963
VCCCCC12C3C4C5CCC(C5)C4C(=O)[Co]1(C#[O+])(C#[O+])(C#[O+])[Co]32(C#[O+])(C#[O+])C#[O+]
p2964
(dp2965
ssg2908
(dp2966
I3
(dp2967
ssg2910
(dp2968
I3
(dp2969
sI4
(dp2970
sI9
(dp2971
sg2937
(dp2972
sg2939
(dp2973
ssI4
(dp2974
VCCCCC12C3C4C5CCC(C5)C4[Co]1(C#[O+])(C#[O+])(C#[O+])[Co]32(C#[O+])(C#[O+])C#[O+]
p2975
(dp2976
ssI9
(dp2977
VO=C1[Co]2(C#[O+])(C#[O+])(C#[O+])C(=O)[Co]12(C#[O+])(C#[O+])C#[O+]
p2978
(dp2979
ssg2914
(dp2980
I4
(dp2981
sg2935
(dp2982
ssI5
(dp2983
VCCCCC12C3[Co]1(C#[O+])(C#[O+])(C#[O+])[Co]321(C#[O+])(C#[O+])C2C3CCC(C3)C21
p2984
(dp2985
ssg2917
(dp2986
I5
(dp2987
sg2937
(dp2988
ssg2919
(dp2989
I5
(dp2990
ssI6
(dp2991
VCCCCC12C3[Co]1(C#[O+])(C#[O+])[Co]32(C#[O+])(C#[O+])C#[O+]
p2992
(dp2993
sV[C-]#[O+]
p2994
(dp2995
ssg2922
(dp2996
I6
(dp2997
sg2939
(dp2998
ssI7
(dp2999
VCCCCC12C3[Co]1(C#[O+])(C#[O+])(C#[O+])[Co]32(C#[O+])(C#[O+])C#[O+]
p3000
(dp3001
sV[C-]#[O+]
p3002
(dp3003
ssg2925
(dp3004
I7
(dp3005
sg2941
(dp3006
ssg2927
(dp3007
I7
(dp3008
ssg2929
(dp3009
I10
(dp3010
ssI10
(dp3011
VCCCCC12C(=O)C3C4CCC(C4)C3C1[Co]2(C#[O+])(C#[O+])(C#[O+])[Co](C#[O+])(C#[O+])C#[O+]
p3012
(dp3013
ssg2932
(dp3014
I12
(dp3015
ssI12
(dp3016
VCCCCC1=CC2C3CCC(C3)C2C1=O
p3017
(dp3018
ssg2935
(dp3019
VC1=CC2CCC1C2
p3020
(dp3021
sVCCCCC12C3[Co]1(C#[O+])(C#[O+])[Co]32(C#[O+])(C#[O+])C#[O+]
p3022
(dp3023
ssg2937
(dp3024
VCCCCC12C3[Co]1(C#[O+])(C#[O+])(C#[O+])[Co]32(C#[O+])(C#[O+])C#[O+]
p3025
(dp3026
ssg2939
(dp3027
VC#CCCCC
p3028
(dp3029
sVO=C1[Co]2(C#[O+])(C#[O+])(C#[O+])C(=O)[Co]12(C#[O+])(C#[O+])C#[O+]
p3030
(dp3031
ssg2941
(dp3032
V[C-]#[O+]
p3033
(dp3034
sV[O+]#C[Co](C#[O+])(C#[O+])[Co](C#[O+])(C#[O+])C#[O+]
p3035
(dp3036
sssg1352
(dp3037
I1
(dp3038
g2900
g2952
ssg2896
(dp3039
I1
g2945
sI12
g3018
ssg2898
(dp3040
I1
g2946
sg2941
g3036
ssg2900
(dp3041
I2
g2960
sI10
g3013
ssI8
(dp3042
g2900
g2953
ssI11
(dp3043
g2896
g2948
ssI2
(dp3044
g2905
g2962
ssg2905
(dp3045
I3
g2965
ssI3
(dp3046
g2908
g2967
sg2910
g2969
ssg2908
(dp3047
I4
g2976
ssg2910
(dp3048
I6
g2995
sI7
g3003
sg2941
g3034
ssI4
(dp3049
g2910
g2970
sg2914
g2981
ssI9
(dp3050
g2910
g2971
sg2898
g2950
ssg2914
(dp3051
I5
g2985
ssI5
(dp3052
g2917
g2987
sg2919
g2990
ssg2917
(dp3053
I6
g2993
sg2935
g3023
ssg2919
(dp3054
g2935
g3021
ssI6
(dp3055
g2922
g2997
ssg2922
(dp3056
I7
g3001
sg2937
g3026
ssI7
(dp3057
g2925
g3005
sg2927
g3008
ssg2925
(dp3058
I9
g2979
sg2939
g3031
ssg2927
(dp3059
g2939
g3029
ssg2929
(dp3060
I8
g2955
ssI10
(dp3061
g2929
g3010
ssg2932
(dp3062
I11
g2957
ssI12
(dp3063
g2932
g3015
ssg2935
(dp3064
VCCCCC12C3[Co]1(C#[O+])(C#[O+])(C#[O+])[Co]321(C#[O+])(C#[O+])C2C3CCC(C3)C21
p3065
g2982
ssg2937
(dp3066
V[C-]#[O+]
p3067
g2972
sVCCCCC12C3[Co]1(C#[O+])(C#[O+])[Co]32(C#[O+])(C#[O+])C#[O+]
p3068
g2988
ssg2939
(dp3069
V[C-]#[O+]
p3070
g2973
sVCCCCC12C3[Co]1(C#[O+])(C#[O+])(C#[O+])[Co]32(C#[O+])(C#[O+])C#[O+]
p3071
g2998
ssg2941
(dp3072
VO=C1[Co]2(C#[O+])(C#[O+])(C#[O+])C(=O)[Co]12(C#[O+])(C#[O+])C#[O+]
p3073
g3006
sssg1374
g2943
sg1375
g1238
(g1376
g1240
Ntp3074
Rp3075
(dp3076
g1380
g2894
sbsbsssVinitC
p3077
(dp3078
VC1=CC2CCC1C2
p3079
I100
sVC#CCCCC
p3080
I100
sV[C-]#[O+]
p3081
I200
sVO=C1[Co]2(C#[O+])(C#[O+])(C#[O+])C(=O)[Co]12(C#[O+])(C#[O+])C#[O+]
p3082
I100
ss.