(dp0
Vdata
p1
(dp2
I0
(dp3
Vdata
p4
(dp5
Vcompeting
p6
(dp7
Vmed
p8
(lp9
sVmech
p10
(lp11
(lp12
a(lp13
a(lp14
(dp15
Vsmiles
p16
VFC(F)(F)c1[c-]cc2c(c1)OCO2.IC#Cc1ccccc1>>[C-]#Cc1ccccc1
p17
sVrxid
p18
(lp19
Vrx322
p20
asVsideProducts
p21
(lp22
VFC(F)(F)c1cc2c(cc1I)OCO2
p23
asVmappedRx
p24
V[F:1][C:2]([F:3])([F:4])[c:24]1[c-:19][cH:20][c:21]2[c:22]([cH:23]1)[O:33][CH2:34][O:35]2.[I:6][C:7]#[C:8][c:9]1[cH:10][cH:11][cH:12][cH:13][cH:14]1>>[C-:7]#[C:8][c:9]1[cH:10][cH:11][cH:12][cH:13][cH:14]1.[F:1][C:2]([F:3])([F:4])[c:24]1[c:19]([I:6])[cH:20][c:21]2[c:22]([cH:23]1)[O:33][CH2:34][O:35]2
p25
sVdescription
p26
VAddition of aryl carbanion to propargyl halide
p27
sVreference
p28
V10.1002/anie.201104858 and 10.1021/jo300072x
p29
sVconditions
p30
VKF, DME<BR> allow temp:L.rt.H, allow AB: B.WB.N
p31
sVspeed
p32
VNA
p33
sValterConditions
p34
V
p35
sVsolvent
p36
VDME
p37
sValterSolvent
p38
(lp39
sVfullRxSmiles
p40
VFC(F)(F)c1[c-]cc2c(c1)OCO2.IC#Cc1ccccc1>>[C-]#Cc1ccccc1.FC(F)(F)c1cc2c(cc1I)OCO2
p41
sVisShortcut
p42
I00
sVisDeprot
p43
I00
sVDE
p44
F105.69967000000008
sVisSideFromTarget
p45
I00
saassg30
(dp46
Vtemperatures
p47
(lp48
VRT
p49
aVlow
p50
aVhigh
p51
asg30
c__builtin__
set
p52
((lp53
VSB
p54
aVB
p55
aVWB
p56
aVN
p57
atp58
Rp59
sVfixed
p60
g52
((lp61
V[F-]
p62
atp63
Rp64
ssVrxToFullDict
p65
(dp66
(VFC(F)(F)c1[c-]cc2c(c1)OCO2.IC#Cc1ccccc1>>FC(F)(F)c1cc2c(cc1I)OCO2
p67
(Vrx338
p68
tp69
tp70
(dp71
g16
g67
sVadditionalInfo
p72
(dp73
VdG
p74
F0.0
sVdH
p75
I0
sVdS
p76
I0
sVdoneRx
p77
(lp78
g68
asVallRxes
p79
(lp80
(lp81
(lp82
V[F:1][C:2]([F:3])([F:4])[c:24]1[c-:19][cH:20][c:21]2[c:22]([cH:23]1)[O:33][CH2:34][O:35]2
p83
aV[I:6][C:7]#[C:8][c:9]1[cH:10][cH:11][cH:12][cH:13][cH:14]1
p84
aa(lp85
(lp86
V[F:1][C:2]([F:3])([F:4])[c:24]1[c:19]([I:6])[cH:20][c:21]2[c:22]([cH:23]1)[O:33][CH2:34][O:35]2
p87
aV[C-:7]#[C:8][c:9]1[cH:10][cH:11][cH:12][cH:13][cH:14]1
p88
aaaasg24
V[F:1][C:2]([F:3])([F:4])[c:24]1[c-:19][cH:20][c:21]2[c:22]([cH:23]1)[O:33][CH2:34][O:35]2.[I:6][C:7]#[C:8][c:9]1[cH:10][cH:11][cH:12][cH:13][cH:14]1>>[F:1][C:2]([F:3])([F:4])[c:24]1[c:19]([I:6])[cH:20][c:21]2[c:22]([cH:23]1)[O:33][CH2:34][O:35]2.[C-:7]#[C:8][c:9]1[cH:10][cH:11][cH:12][cH:13][cH:14]1
p89
sVincoInfo
p90
I-2
ssg18
(lp91
g68
asVidnum
p92
I0
sVprev
p93
(lp94
I1
aI2
asVbyproducts
p95
(dp96
Vreactants
p97
(lp98
V[C-]#Cc1ccccc1
p99
asVadditives
p100
(lp101
(lp102
g35
aassVdirectPrev
p103
(lp104
I1
asg40
VFC(F)(F)c1[c-]cc2c(c1)OCO2.IC#Cc1ccccc1>>FC(F)(F)c1cc2c(cc1I)OCO2.[C-]#Cc1ccccc1
p105
sg42
I00
sg43
I00
sg44
F105.69967000000008
sg45
I00
ss(Vc1cc2c(cc#1)OCO2.FC(F)(F)[Ag]>>FC(F)(F)c1[c-]cc2c(c1)OCO2
p106
(Vrx50
p107
tp108
tp109
(dp110
g16
g106
sg72
(dp111
g74
F0.0
sg75
I0
sg76
I0
sg77
(lp112
g107
asg79
(lp113
(lp114
(lp115
V[c:19]1[cH:20][c:21]2[c:22]([cH:23][c:24]#1)[O:33][CH2:34][O:35]2
p116
aV[F:1][C:2]([F:3])([F:4])[Ag:5]
p117
aa(lp118
(lp119
g83
aV[Ag+:5]
p120
aaaasg24
V[c:19]1[cH:20][c:21]2[c:22]([cH:23][c:24]#1)[O:33][CH2:34][O:35]2.[F:1][C:2]([F:3])([F:4])[Ag:5]>>[F:1][C:2]([F:3])([F:4])[c:24]1[c-:19][cH:20][c:21]2[c:22]([cH:23]1)[O:33][CH2:34][O:35]2.[Ag+:5]
p121
sg90
I-2
ssg18
(lp122
g107
asg92
I1
sg93
(lp123
I2
asg95
(dp124
g97
(lp125
V[Ag+]
p126
asg100
(lp127
(lp128
g35
aassg103
(lp129
I2
asg40
Vc1cc2c(cc#1)OCO2.FC(F)(F)[Ag]>>FC(F)(F)c1[c-]cc2c(c1)OCO2.[Ag+]
p130
sg42
I00
sg43
I00
sg44
F-171.48298000000005
sg45
I00
ss(VC[Si](C)(C)c1cc2c(cc1OS(=O)(=O)C(F)(F)F)OCO2>>c1cc2c(cc#1)OCO2
p131
(Vrx513
p132
tp133
tp134
(dp135
g16
g131
sg72
(dp136
g74
F0.0
sg75
I0
sg76
I0
sg77
(lp137
g132
asg79
(lp138
(lp139
(lp140
V[CH3:15][Si:16]([CH3:17])([CH3:18])[c:19]1[cH:20][c:21]2[c:22]([cH:23][c:24]1[O:25][S:26](=[O:27])(=[O:28])[C:29]([F:30])([F:31])[F:32])[O:33][CH2:34][O:35]2
p141
aV[F-:43]
p142
aa(lp143
(lp144
g116
aV[O-:25][S:26](=[O:27])(=[O:28])[C:29]([F:30])([F:31])[F:32]
p145
aV[CH3:15][Si:16]([CH3:17])([CH3:18])[F:43]
p146
aaaasg24
V[CH3:15][Si:16]([CH3:17])([CH3:18])[c:19]1[cH:20][c:21]2[c:22]([cH:23][c:24]1[O:25][S:26](=[O:27])(=[O:28])[C:29]([F:30])([F:31])[F:32])[O:33][CH2:34][O:35]2.[F-:43]>>[c:19]1[cH:20][c:21]2[c:22]([cH:23][c:24]#1)[O:33][CH2:34][O:35]2.[O-:25][S:26](=[O:27])(=[O:28])[C:29]([F:30])([F:31])[F:32].[CH3:15][Si:16]([CH3:17])([CH3:18])[F:43]
p147
sg90
I-2
ssg18
(lp148
g132
asg92
I2
sg93
(lp149
sg95
(dp150
g97
(lp151
VC[Si](C)(C)F
p152
aVO=S(=O)([O-])C(F)(F)F
p153
asg100
(lp154
(lp155
VCCCC[N+](CCCC)(CCCC)CCCC
p156
aa(lp157
V[Cs+]
p158
aassg103
(lp159
sg40
VC[Si](C)(C)c1cc2c(cc1OS(=O)(=O)C(F)(F)F)OCO2.[F-]>>c1cc2c(cc#1)OCO2.O=S(=O)([O-])C(F)(F)F.C[Si](C)(C)F
p160
sg42
I00
sg43
I00
sg44
F253.346
sg45
I00
sssVgraph
p161
(lp162
(I1
g23
tp163
a(I1
g99
tp164
a(VFC(F)(F)c1[c-]cc2c(c1)OCO2
p165
I1
tp166
a(g165
I4
tp167
a(VIC#Cc1ccccc1
p168
I1
tp169
a(g168
I4
tp170
a(I2
g165
tp171
a(I2
g126
tp172
a(Vc1cc2c(cc#1)OCO2
p173
I2
tp174
a(VFC(F)(F)[Ag]
p175
I2
tp176
a(I3
g173
tp177
a(I3
g152
tp178
a(I3
g153
tp179
a(I3
g158
tp180
a(I3
g156
tp181
a(VC[Si](C)(C)c1cc2c(cc1OS(=O)(=O)C(F)(F)F)OCO2
p182
I3
tp183
a(g62
I3
tp184
a(I4
g99
tp185
asVrxtupleToId
p186
(dp187
((g165
g168
tp188
g23
g69
tp189
I1
s((g175
g173
tp190
g165
g108
tp191
I2
s((g182
tp192
g173
g133
tp193
I3
s(g188
g99
(g20
tp194
tp195
I4
ssVallSmiles
p196
(dp197
g175
(dp198
Vgeneration
p199
I0
sVparents
p200
(lp201
sVmol
p202
V\u000a     RDKit          2D\u000a\u000a  5  4  0  0  0  0  0  0  0  0999 V2000\u000a   -1.9992    1.0000    0.0000 F   0  0  0  0  0  0  0  0  0  0  0  0\u000a   -2.0000    0.0000    0.0000 C   0  0  0  0  0  0  0  0  0  0  0  0\u000a   -1.1344   -0.5006    0.0000 F   0  0  0  0  0  0  0  0  0  0  0  0\u000a   -2.8664   -0.4994    0.0000 F   0  0  0  0  0  0  0  0  0  0  0  0\u000a    0.0000    0.0000    0.0000 Ag  0  0  0  0  0  1  0  0  0  0  0  0\u000a  1  2  1  0\u000a  2  3  1  0\u000a  2  4  1  0\u000a  2  5  1  0\u000aM  END\u000a
p203
sVformula
p204
VCAgF3
p205
sVnoisoSmles
p206
g175
sVnodeType
p207
Vnormal
p208
ssg168
(dp209
g199
I0
sg200
(lp210
sg202
V\u000a     RDKit          2D\u000a\u000a  9  9  0  0  0  0  0  0  0  0999 V2000\u000a   -3.0000   -0.0084    0.0000 I   0  0  0  0  0  0  0  0  0  0  0  0\u000a   -2.0000   -0.0056    0.0000 C   0  0  0  0  0  0  0  0  0  0  0  0\u000a   -1.0000   -0.0028    0.0000 C   0  0  0  0  0  0  0  0  0  0  0  0\u000a    0.0000    0.0000    0.0000 C   0  0  0  0  0  0  0  0  0  0  0  0\u000a    0.4976    0.8674    0.0000 C   0  0  0  0  0  0  0  0  0  0  0  0\u000a    1.4976    0.8702    0.0000 C   0  0  0  0  0  0  0  0  0  0  0  0\u000a    2.0000    0.0056    0.0000 C   0  0  0  0  0  0  0  0  0  0  0  0\u000a    1.5024   -0.8618    0.0000 C   0  0  0  0  0  0  0  0  0  0  0  0\u000a    0.5024   -0.8646    0.0000 C   0  0  0  0  0  0  0  0  0  0  0  0\u000a  1  2  1  0\u000a  2  3  3  0\u000a  3  4  1  0\u000a  4  5  2  0\u000a  5  6  1  0\u000a  6  7  2  0\u000a  7  8  1  0\u000a  8  9  2  0\u000a  9  4  1  0\u000aM  END\u000a
p211
sg204
VC8H5I
p212
sg206
g168
sg207
g208
ssg182
(dp213
g199
I0
sg200
(lp214
sg202
V\u000a     RDKit          2D\u000a\u000a 21 22  0  0  0  0  0  0  0  0999 V2000\u000a   -0.3002   -2.7390    0.0000 C   0  0  0  0  0  0  0  0  0  0  0  0\u000a   -0.7996   -1.8726    0.0000 Si  0  0  0  0  0  4  0  0  0  0  0  0\u000a   -1.3002   -2.7382    0.0000 C   0  0  0  0  0  0  0  0  0  0  0  0\u000a   -1.6652   -1.3720    0.0000 C   0  0  0  0  0  0  0  0  0  0  0  0\u000a    0.0668   -1.3734    0.0000 C   0  0  0  0  0  0  0  0  0  0  0  0\u000a    0.9324   -1.8740    0.0000 C   0  0  0  0  0  0  0  0  0  0  0  0\u000a    1.7988   -1.3748    0.0000 C   0  0  0  0  0  0  0  0  0  0  0  0\u000a    1.7996   -0.3748    0.0000 C   0  0  0  0  0  0  0  0  0  0  0  0\u000a    0.9340    0.1260    0.0000 C   0  0  0  0  0  0  0  0  0  0  0  0\u000a    0.0676   -0.3734    0.0000 C   0  0  0  0  0  0  0  0  0  0  0  0\u000a   -0.7980    0.1274    0.0000 O   0  0  0  0  0  0  0  0  0  0  0  0\u000a   -0.7972    1.1274    0.0000 S   0  0  0  0  0  0  0  0  0  0  0  0\u000a    0.2028    1.1266    0.0000 O   0  0  0  0  0  0  0  0  0  0  0  0\u000a   -1.7972    1.1282    0.0000 O   0  0  0  0  0  0  0  0  0  0  0  0\u000a   -0.7964    2.1274    0.0000 C   0  0  0  0  0  0  0  0  0  0  0  0\u000a    0.2036    2.1266    0.0000 F   0  0  0  0  0  0  0  0  0  0  0  0\u000a   -0.2956    2.9930    0.0000 F   0  0  0  0  0  0  0  0  0  0  0  0\u000a   -1.6620    2.6280    0.0000 F   0  0  0  0  0  0  0  0  0  0  0  0\u000a    2.7510   -0.0664    0.0000 O   0  0  0  0  0  0  0  0  0  0  0  0\u000a    3.3380   -0.8760    0.0000 C   0  0  0  0  0  0  0  0  0  0  0  0\u000a    2.7496   -1.6844    0.0000 O   0  0  0  0  0  0  0  0  0  0  0  0\u000a  1  2  1  0\u000a  2  3  1  0\u000a  2  4  1  0\u000a  2  5  1  0\u000a  5  6  2  0\u000a  6  7  1  0\u000a  7  8  2  0\u000a  8  9  1  0\u000a  9 10  2  0\u000a 10 11  1  0\u000a 11 12  1  0\u000a 12 13  2  0\u000a 12 14  2  0\u000a 12 15  1  0\u000a 15 16  1  0\u000a 15 17  1  0\u000a 15 18  1  0\u000a  8 19  1  0\u000a 19 20  1  0\u000a 20 21  1  0\u000a 10  5  1  0\u000a 21  7  1  0\u000aM  END\u000a
p215
sg204
VC11H13F3O5SSi
p216
sg206
g182
sg207
g208
ssg23
(dp217
g199
I3
sg200
(lp218
g165
ag168
asg202
V\u000a     RDKit          2D\u000a\u000a 14 15  0  0  0  0  0  0  0  0999 V2000\u000a   -0.7864    2.1798    0.0000 F   0  0  0  0  0  0  0  0  0  0  0  0\u000a   -1.2858    1.3134    0.0000 C   0  0  0  0  0  0  0  0  0  0  0  0\u000a   -1.7864    2.1790    0.0000 F   0  0  0  0  0  0  0  0  0  0  0  0\u000a   -2.1514    0.8128    0.0000 F   0  0  0  0  0  0  0  0  0  0  0  0\u000a   -0.4194    0.8142    0.0000 C   0  0  0  0  0  0  0  0  0  0  0  0\u000a    0.4462    1.3148    0.0000 C   0  0  0  0  0  0  0  0  0  0  0  0\u000a    1.3126    0.8156    0.0000 C   0  0  0  0  0  0  0  0  0  0  0  0\u000a    1.3134   -0.1844    0.0000 C   0  0  0  0  0  0  0  0  0  0  0  0\u000a    0.4478   -0.6852    0.0000 C   0  0  0  0  0  0  0  0  0  0  0  0\u000a   -0.4186   -0.1858    0.0000 C   0  0  0  0  0  0  0  0  0  0  0  0\u000a   -1.2842   -0.6866    0.0000 I   0  0  0  0  0  0  0  0  0  0  0  0\u000a    2.2646   -0.4928    0.0000 O   0  0  0  0  0  0  0  0  0  0  0  0\u000a    2.8518    0.3168    0.0000 C   0  0  0  0  0  0  0  0  0  0  0  0\u000a    2.2634    1.1252    0.0000 O   0  0  0  0  0  0  0  0  0  0  0  0\u000a  1  2  1  0\u000a  2  3  1  0\u000a  2  4  1  0\u000a  2  5  1  0\u000a  5  6  2  0\u000a  6  7  1  0\u000a  7  8  2  0\u000a  8  9  1  0\u000a  9 10  2  0\u000a 10 11  1  0\u000a  8 12  1  0\u000a 12 13  1  0\u000a 13 14  1  0\u000a 10  5  1  0\u000a 14  7  1  0\u000aM  END\u000a
p219
sg204
VC8H4F3IO2
p220
sVnoisoSmiles
p221
g23
sg207
g208
ssg165
(dp222
g199
I2
sg200
(lp223
g173
ag175
asg202
V\u000a     RDKit          2D\u000a\u000a 13 14  0  0  0  0  0  0  0  0999 V2000\u000a   -1.8660    0.4966    0.0000 F   0  0  0  0  0  0  0  0  0  0  0  0\u000a   -1.3668    1.3630    0.0000 C   0  0  0  0  0  0  0  0  0  0  0  0\u000a   -2.3668    1.3622    0.0000 F   0  0  0  0  0  0  0  0  0  0  0  0\u000a   -1.3676    2.3630    0.0000 F   0  0  0  0  0  0  0  0  0  0  0  0\u000a   -0.5004    0.8636    0.0000 C   0  0  0  0  0  0  0  0  0  0  0  0\u000a   -0.4996   -0.1364    0.0000 C   0  0  0  0  0  3  0  0  0  0  0  0\u000a    0.3668   -0.6356    0.0000 C   0  0  0  0  0  0  0  0  0  0  0  0\u000a    1.2324   -0.1350    0.0000 C   0  0  0  0  0  0  0  0  0  0  0  0\u000a    1.2316    0.8650    0.0000 C   0  0  0  0  0  0  0  0  0  0  0  0\u000a    0.3652    1.3644    0.0000 C   0  0  0  0  0  0  0  0  0  0  0  0\u000a    2.1824    1.1748    0.0000 O   0  0  0  0  0  0  0  0  0  0  0  0\u000a    2.7708    0.3662    0.0000 C   0  0  0  0  0  0  0  0  0  0  0  0\u000a    2.1836   -0.4432    0.0000 O   0  0  0  0  0  0  0  0  0  0  0  0\u000a  1  2  1  0\u000a  2  3  1  0\u000a  2  4  1  0\u000a  2  5  1  0\u000a  5  6  2  0\u000a  6  7  1  0\u000a  7  8  2  0\u000a  8  9  1  0\u000a  9 10  2  0\u000a  9 11  1  0\u000a 11 12  1  0\u000a 12 13  1  0\u000a 10  5  1  0\u000a 13  8  1  0\u000aM  CHG  1   6  -1\u000aM  END\u000a
p224
sg204
VC8H4F3O2-
p225
sg221
g165
sg207
g208
ssg173
(dp226
g199
I1
sg200
(lp227
g182
ag62
asg202
V\u000a     RDKit          2D\u000a\u000a  9 10  0  0  0  0  0  0  0  0999 V2000\u000a    2.0366    0.6962    0.0000 C   0  0  0  0  0  0  0  0  0  0  0  0\u000a    1.1702    1.1956    0.0000 C   0  0  0  0  0  0  0  0  0  0  0  0\u000a    0.3046    0.6948    0.0000 C   0  0  0  0  0  0  0  0  0  0  0  0\u000a    0.3054   -0.3052    0.0000 C   0  0  0  0  0  0  0  0  0  0  0  0\u000a    1.1718   -0.8044    0.0000 C   0  0  0  0  0  0  0  0  0  0  0  0\u000a    2.0374   -0.3038    0.0000 C   0  0  0  0  0  0  0  0  0  0  0  0\u000a   -0.6454   -0.6148    0.0000 O   0  0  0  0  0  0  0  0  0  0  0  0\u000a   -1.2338    0.1936    0.0000 C   0  0  0  0  0  0  0  0  0  0  0  0\u000a   -0.6466    1.0032    0.0000 O   0  0  0  0  0  0  0  0  0  0  0  0\u000a  1  2  1  0\u000a  2  3  2  0\u000a  3  4  1  0\u000a  4  5  2  0\u000a  5  6  1  0\u000a  4  7  1  0\u000a  7  8  1  0\u000a  8  9  1  0\u000a  6  1  3  0\u000a  9  3  1  0\u000aM  END\u000a
p228
sg204
VC7H4O2
p229
sg221
g173
sg207
g208
ssg62
(dp230
g199
I0
sg200
(lp231
sg202
V\u000a     RDKit          2D\u000a\u000a  1  0  0  0  0  0  0  0  0  0999 V2000\u000a    0.0000    0.0000    0.0000 F   0  0  0  0  0 15  0  0  0  0  0  0\u000aM  CHG  1   1  -1\u000aM  END\u000a
p232
sg204
VF-
p233
sg207
g60
ssg99
(dp234
g199
I3
sg200
(lp235
g165
ag168
asg204
VC8H5-
p236
sg202
V\u000a     RDKit          2D\u000a\u000a  8  8  0  0  0  0  0  0  0  0999 V2000\u000a   -1.8768   -0.8496    0.0000 C   0  0  0  0  0  3  0  0  0  0  0  0\u000a   -1.0076   -0.3550    0.0000 C   0  0  0  0  0  0  0  0  0  0  0  0\u000a   -0.1384    0.1394    0.0000 C   0  0  0  0  0  0  0  0  0  0  0  0\u000a    0.7244   -0.3662    0.0000 C   0  0  0  0  0  0  0  0  0  0  0  0\u000a    1.5936    0.1282    0.0000 C   0  0  0  0  0  0  0  0  0  0  0  0\u000a    1.6000    1.1282    0.0000 C   0  0  0  0  0  0  0  0  0  0  0  0\u000a    0.7372    1.6338    0.0000 C   0  0  0  0  0  0  0  0  0  0  0  0\u000a   -0.1320    1.1392    0.0000 C   0  0  0  0  0  0  0  0  0  0  0  0\u000a  1  2  3  0\u000a  2  3  1  0\u000a  3  4  2  0\u000a  4  5  1  0\u000a  5  6  2  0\u000a  6  7  1  0\u000a  7  8  2  0\u000a  8  3  1  0\u000aM  CHG  1   1  -1\u000aM  END\u000a
p237
sg221
g99
sg207
Vbyprod
p238
sValterConnections
p239
(lp240
(lp241
g165
ag168
aassg126
(dp242
g199
I2
sg200
(lp243
g173
ag175
asg204
VAg+
p244
sg202
V\u000a     RDKit          2D\u000a\u000a  1  0  0  0  0  0  0  0  0  0999 V2000\u000a    0.0000    0.0000    0.0000 Ag  0  0  0  0  0 15  0  0  0  0  0  0\u000aM  CHG  1   1   1\u000aM  END\u000a
p245
sg221
g126
sg207
g238
ssg158
(dp246
g199
I1
sg200
(lp247
g182
ag62
asg204
VCs+
p248
sg202
V\u000a     RDKit          2D\u000a\u000a  1  0  0  0  0  0  0  0  0  0999 V2000\u000a    0.0000    0.0000    0.0000 Cs  0  0  0  0  0 15  0  0  0  0  0  0\u000aM  CHG  1   1   1\u000aM  END\u000a
p249
sg221
g158
sg207
g238
ssg152
(dp250
g199
I1
sg200
(lp251
g182
ag62
asg204
VC3H9FSi
p252
sg202
V\u000a     RDKit          2D\u000a\u000a  5  4  0  0  0  0  0  0  0  0999 V2000\u000a   -0.3712    0.6478    0.0000 C   0  0  0  0  0  0  0  0  0  0  0  0\u000a    0.1264   -0.2196    0.0000 Si  0  0  0  0  0  4  0  0  0  0  0  0\u000a    0.9910   -0.7220    0.0000 C   0  0  0  0  0  0  0  0  0  0  0  0\u000a   -0.7410   -0.7172    0.0000 C   0  0  0  0  0  0  0  0  0  0  0  0\u000a    0.6288    0.6450    0.0000 F   0  0  0  0  0  0  0  0  0  0  0  0\u000a  1  2  1  0\u000a  2  3  1  0\u000a  2  4  1  0\u000a  2  5  1  0\u000aM  END\u000a
p253
sg221
g152
sg207
g238
ssg156
(dp254
g199
I1
sg200
(lp255
g182
ag62
asg204
VC16H36N+
p256
sg202
V\u000a     RDKit          2D\u000a\u000a 17 16  0  0  0  0  0  0  0  0999 V2000\u000a   -1.2058    2.9352    0.0000 C   0  0  0  0  0  0  0  0  0  0  0  0\u000a   -1.7058    2.0692    0.0000 C   0  0  0  0  0  0  0  0  0  0  0  0\u000a   -1.2058    1.2032    0.0000 C   0  0  0  0  0  0  0  0  0  0  0  0\u000a   -1.7058    0.3372    0.0000 C   0  0  0  0  0  0  0  0  0  0  0  0\u000a   -1.2058   -0.5288    0.0000 N   0  0  0  0  0  4  0  0  0  0  0  0\u000a   -0.7058    0.3372    0.0000 C   0  0  0  0  0  0  0  0  0  0  0  0\u000a    0.2942    0.3372    0.0000 C   0  0  0  0  0  0  0  0  0  0  0  0\u000a    0.7942    1.2032    0.0000 C   0  0  0  0  0  0  0  0  0  0  0  0\u000a    1.7942    1.2032    0.0000 C   0  0  0  0  0  0  0  0  0  0  0  0\u000a   -2.0718   -1.0288    0.0000 C   0  0  0  0  0  0  0  0  0  0  0  0\u000a   -2.9378   -0.5288    0.0000 C   0  0  0  0  0  0  0  0  0  0  0  0\u000a   -3.8038   -1.0288    0.0000 C   0  0  0  0  0  0  0  0  0  0  0  0\u000a   -4.6698   -0.5288    0.0000 C   0  0  0  0  0  0  0  0  0  0  0  0\u000a   -0.3398   -1.0288    0.0000 C   0  0  0  0  0  0  0  0  0  0  0  0\u000a    0.5262   -0.5288    0.0000 C   0  0  0  0  0  0  0  0  0  0  0  0\u000a    1.3922   -1.0288    0.0000 C   0  0  0  0  0  0  0  0  0  0  0  0\u000a    2.2582   -0.5288    0.0000 C   0  0  0  0  0  0  0  0  0  0  0  0\u000a  1  2  1  0\u000a  2  3  1  0\u000a  3  4  1  0\u000a  4  5  1  0\u000a  5  6  1  0\u000a  6  7  1  0\u000a  7  8  1  0\u000a  8  9  1  0\u000a  5 10  1  0\u000a 10 11  1  0\u000a 11 12  1  0\u000a 12 13  1  0\u000a  5 14  1  0\u000a 14 15  1  0\u000a 15 16  1  0\u000a 16 17  1  0\u000aM  CHG  1   5   1\u000aM  END\u000a
p257
sg221
g156
sg207
g238
ssg153
(dp258
g199
I1
sg200
(lp259
g182
ag62
asg204
VCF3O3S-
p260
sg202
V\u000a     RDKit          2D\u000a\u000a  8  7  0  0  0  0  0  0  0  0999 V2000\u000a   -0.6242    0.5340    0.0000 O   0  0  0  0  0  0  0  0  0  0  0  0\u000a   -0.6250   -0.4660    0.0000 S   0  0  0  0  0  0  0  0  0  0  0  0\u000a   -0.6258   -1.4660    0.0000 O   0  0  0  0  0  0  0  0  0  0  0  0\u000a   -1.6250   -0.4652    0.0000 O   0  0  0  0  0  1  0  0  0  0  0  0\u000a    0.3750   -0.4668    0.0000 C   0  0  0  0  0  0  0  0  0  0  0  0\u000a    0.3742   -1.4668    0.0000 F   0  0  0  0  0  0  0  0  0  0  0  0\u000a    1.2406   -0.9676    0.0000 F   0  0  0  0  0  0  0  0  0  0  0  0\u000a    0.8758    0.3988    0.0000 F   0  0  0  0  0  0  0  0  0  0  0  0\u000a  1  2  2  0\u000a  2  3  2  0\u000a  2  4  1  0\u000a  2  5  1  0\u000a  5  6  1  0\u000a  5  7  1  0\u000a  5  8  1  0\u000aM  CHG  1   4  -1\u000aM  END\u000a
p261
sg221
g153
sg207
g238
sssVallSteps
p262
(dp263
g189
(dp264
VlinkType
p265
Vmain
p266
ssg191
(dp267
g265
g266
ssg193
(dp268
g265
g266
ssg195
(dp269
g265
Valter
p270
sssVallLink
p271
(dp272
(g165
g99
g27
tp273
(lp274
(dp275
Vtarget
p276
g99
sVsource
p277
g165
sg26
g27
sVrxsmiles
p278
g105
sg30
g31
sg36
g37
sVtype
p279
g266
sa(dp280
g276
g99
sg277
g165
sg26
g27
sg30
g31
sg36
g37
sg279
g270
sas(g168
g99
g27
tp281
(lp282
(dp283
g276
g99
sg277
g168
sg26
g27
sg278
g105
sg30
g31
sg36
g37
sg279
g266
sa(dp284
g276
g99
sg277
g168
sg26
g27
sg30
g31
sg36
g37
sg279
g270
sas(g165
g23
g27
tp285
(lp286
(dp287
g276
g23
sg277
g165
sg26
g27
sg278
g105
sg30
g31
sg36
g37
sg279
g266
sas(g168
g23
g27
tp288
(lp289
(dp290
g276
g23
sg277
g168
sg26
g27
sg278
g105
sg30
g31
sg36
g37
sg279
g266
sas(g173
g126
VAddition of trifluoromethylsilver to aryne
p291
tp292
(lp293
(dp294
g276
g126
sg277
g173
sg26
g291
sg278
g130
sg30
VCsF, MeCN<BR> allow temp:L.rt.H, allow AB: B.WB.N
p295
sg36
VTHF
p296
sg279
g266
sas(g175
g126
g291
tp297
(lp298
(dp299
g276
g126
sg277
g175
sg26
g291
sg278
g130
sg30
g295
sg36
g296
sg279
g266
sas(g173
g165
g291
tp300
(lp301
(dp302
g276
g165
sg277
g173
sg26
g291
sg278
g130
sg30
g295
sg36
g296
sg279
g266
sas(g175
g165
g291
tp303
(lp304
(dp305
g276
g165
sg277
g175
sg26
g291
sg278
g130
sg30
g295
sg36
g296
sg279
g266
sas(g182
g158
VAryne generation
p306
tp307
(lp308
(dp309
g276
g158
sg277
g182
sg26
g306
sg278
VC[Si](C)(C)c1cc2c(cc1OS(=O)(=O)C(F)(F)F)OCO2.[F-]>>c1cc2c(cc#1)OCO2.CCCC[N+](CCCC)(CCCC)CCCC.[Cs+].C[Si](C)(C)F.O=S(=O)([O-])C(F)(F)F
p310
sg30
VTBAF, THF or CsF,  ACN<BR> allow temp:rt.H, allow AB: N.WB.B.SB
p311
sg36
g296
sg279
g266
sas(g62
g158
g306
tp312
(lp313
(dp314
g276
g158
sg277
g62
sg26
g306
sg278
g310
sg30
g311
sg36
g296
sg279
g266
sas(g182
g152
g306
tp315
(lp316
(dp317
g276
g152
sg277
g182
sg26
g306
sg278
g310
sg30
g311
sg36
g296
sg279
g266
sas(g62
g152
g306
tp318
(lp319
(dp320
g276
g152
sg277
g62
sg26
g306
sg278
g310
sg30
g311
sg36
g296
sg279
g266
sas(g182
g156
g306
tp321
(lp322
(dp323
g276
g156
sg277
g182
sg26
g306
sg278
g310
sg30
g311
sg36
g296
sg279
g266
sas(g62
g156
g306
tp324
(lp325
(dp326
g276
g156
sg277
g62
sg26
g306
sg278
g310
sg30
g311
sg36
g296
sg279
g266
sas(g182
g153
g306
tp327
(lp328
(dp329
g276
g153
sg277
g182
sg26
g306
sg278
g310
sg30
g311
sg36
g296
sg279
g266
sas(g62
g153
g306
tp330
(lp331
(dp332
g276
g153
sg277
g62
sg26
g306
sg278
g310
sg30
g311
sg36
g296
sg279
g266
sas(g182
g173
g306
tp333
(lp334
(dp335
g276
g173
sg277
g182
sg26
g306
sg278
g310
sg30
g311
sg36
g296
sg279
g266
sas(g62
g173
g306
tp336
(lp337
(dp338
g276
g173
sg277
g62
sg26
g306
sg278
g310
sg30
g311
sg36
g296
sg279
g266
sassVtargetSmiles
p339
g23
sVidToFullRx
p340
(dp341
I1
(dp342
g16
g67
sg72
(dp343
g74
F0.0
sg75
I0
sg76
I0
sg77
(lp344
g68
asg79
(lp345
(lp346
(lp347
g83
ag84
aa(lp348
(lp349
g87
ag88
aaaasg24
g89
sg90
I-2
ssg18
(lp350
g68
asg92
I0
sg93
(lp351
I1
aI2
asg95
(dp352
g97
(lp353
g99
asg100
(lp354
(lp355
g35
aassg103
(lp356
I1
asg40
g105
sg42
I00
sg43
I00
sg44
F105.69967000000008
sg45
I00
ssI2
(dp357
g16
g106
sg72
(dp358
g74
F0.0
sg75
I0
sg76
I0
sg77
(lp359
g107
asg79
(lp360
(lp361
(lp362
g116
ag117
aa(lp363
(lp364
g83
ag120
aaaasg24
g121
sg90
I-2
ssg18
(lp365
g107
asg92
I1
sg93
(lp366
I2
asg95
(dp367
g97
(lp368
g126
asg100
(lp369
(lp370
g35
aassg103
(lp371
I2
asg40
g130
sg42
I00
sg43
I00
sg44
F-171.48298000000005
sg45
I00
ssI3
(dp372
g16
g131
sg72
(dp373
g74
F0.0
sg75
I0
sg76
I0
sg77
(lp374
g132
asg79
(lp375
(lp376
(lp377
g141
ag142
aa(lp378
(lp379
g116
ag145
ag146
aaaasg24
g147
sg90
I-2
ssg18
(lp380
g132
asg92
I2
sg93
(lp381
sg95
(dp382
g97
(lp383
g152
ag153
asg100
(lp384
(lp385
g156
aa(lp386
g158
aassg103
(lp387
sg40
g160
sg42
I00
sg43
I00
sg44
F253.346
sg45
I00
ssI4
(dp388
g16
g17
sg18
(lp389
g20
asg21
(lp390
g23
asg24
g25
sg26
g27
sg28
g29
sg30
g31
sg32
g33
sg34
g35
sg36
g37
sg38
(lp391
sg40
g41
sg42
I00
sg43
I00
sg44
F105.69967000000008
sg45
I00
sssVacidBase
p392
(dp393
VwildForms
p394
g52
((lp395
g99
ag165
atp396
Rp397
ssVrxAvail
p398
(dp399
Vgen
p400
(dp401
sVcmd
p402
(dp403
sssVcommon
p404
(dp405
Vfixed
p406
(dp407
(VC[Si](C)(C)c1cc2c(cc1OS(=O)(=O)C(F)(F)F)OCO2>>c1cc2c(cc#1)OCO2
p408
(g132
tp409
tp410
(lp411
V[F-]
p412
assVallowedCond
p413
(dp414
Vfull
p415
(lp416
(lp417
(VN.WB.B.SB
p418
Vrt.H
p419
tp420
a(VB.WB.N
p421
VL.rt.H
p422
tp423
ag423
aasVminimalVariants
p424
(lp425
(lp426
(c__builtin__
frozenset
p427
((lp428
g55
ag56
ag57
atp429
Rp430
g427
((lp431
g49
aVH
p432
atp433
Rp434
tp435
a(g427
((lp436
g55
ag56
ag57
atp437
Rp438
g427
((lp439
g49
ag432
atp440
Rp441
tp442
a(g427
((lp443
g55
ag56
ag57
atp444
Rp445
g427
((lp446
g49
ag432
atp447
Rp448
tp449
aasVstepsVariants
p450
(lp451
(lp452
(VC[Si](C)(C)c1cc2c(cc1OS(=O)(=O)C(F)(F)F)OCO2>>c1cc2c(cc#1)OCO2
p453
(g132
tp454
tp455
a(Vc1cc2c(cc#1)OCO2.FC(F)(F)[Ag]>>FC(F)(F)c1[c-]cc2c(c1)OCO2
p456
(g107
tp457
tp458
a(VFC(F)(F)c1[c-]cc2c(c1)OCO2.IC#Cc1ccccc1>>FC(F)(F)c1cc2c(cc1I)OCO2
p459
(g68
tp460
tp461
aasVcatUsage
p462
(lp463
(lp464
I0
aasVconditionsOcc
p465
(lp466
(dp467
Vtemp
p468
(dp469
g49
(lp470
I0
aI1
aI2
asg432
(lp471
I0
aI1
aI2
assVAB
p472
(dp473
g56
(lp474
I0
aI1
aI2
asg57
(lp475
I0
aI1
aI2
asg55
(lp476
I0
aI1
aI2
assasVminimalPozBeforeChangeToTarget
p477
(lp478
(dp479
asVrxToGenSbs
p480
(dp481
g458
I2
sg461
I3
sg455
I1
ssVrxToGenProd
p482
(dp483
g458
I1
sg461
I0
sg455
I2
sssVworkingCond
p484
(lp485
((I0
(g427
((lp486
g55
ag56
ag57
atp487
Rp488
g427
((lp489
g49
ag432
atp490
Rp491
tp492
tp493
tp494
asVallInitSbs
p495
g52
((lp496
VC[Si](C)(C)c1cc2c(cc1OS(=O)(=O)C(F)(F)F)OCO2
p497
aVIC#Cc1ccccc1
p498
aVFC(F)(F)[Ag]
p499
aV[F-]
p500
atp501
Rp502
sVisOnepot
p503
I00
sVonePot
p504
(dp505
VFC(F)(F)c1[c-]cc2c(c1)OCO2
p506
(lp507
(dp508
Vrx
p509
(VFC(F)(F)c1[c-]cc2c(c1)OCO2.IC#Cc1ccccc1>>FC(F)(F)c1cc2c(cc1I)OCO2
p510
(g68
tp511
tp512
sVsubs
p513
VIC#Cc1ccccc1
p514
sasVc1cc2c(cc#1)OCO2
p515
(lp516
(dp517
g509
(Vc1cc2c(cc#1)OCO2.FC(F)(F)[Ag]>>FC(F)(F)c1[c-]cc2c(c1)OCO2
p518
(g107
tp519
tp520
sg513
VFC(F)(F)[Ag]
p521
sassVacidBase
p522
(dp523
VnoMainForm
p524
g52
((lp525
Vc1cc2c(cc#1)OCO2
p526
aVFC(F)(F)c1cc2c(cc1I)OCO2
p527
aVC[Si](C)(C)c1cc2c(cc1OS(=O)(=O)C(F)(F)F)OCO2
p528
aVIC#Cc1ccccc1
p529
aVFC(F)(F)[Ag]
p530
atp531
Rp532
sVwildToMain
p533
(dp534
VFC(F)(F)c1[c-]cc2c(c1)OCO2
p535
VFC(F)(F)c1ccc2c(c1)OCO2
p536
sV[C-]#Cc1ccccc1
p537
VC#Cc1ccccc1
p538
sVO=S(=O)([O-])C(F)(F)F
p539
VO=S(=O)(O)C(F)(F)F
p540
ssVmainToWild
p541
(dp542
g536
g52
((lp543
g535
atp544
Rp545
sg538
g52
((lp546
g537
atp547
Rp548
sg540
g52
((lp549
g539
atp550
Rp551
ssVwildFormType
p552
(dp553
g535
g55
sg537
g55
sg539
g55
sssVmainPathInfo
p554
(dp555
VisWaterSbs
p556
I00
sVisWaterCondNeeded
p557
I00
sVreactiveSubstrates
p558
(dp559
sVrxes
p560
(lp561
(VFC(F)(F)c1[c-]cc2c(c1)OCO2.IC#Cc1ccccc1>>FC(F)(F)c1cc2c(cc1I)OCO2
p562
(g68
tp563
tp564
a(Vc1cc2c(cc#1)OCO2.FC(F)(F)[Ag]>>FC(F)(F)c1[c-]cc2c(c1)OCO2
p565
(g107
tp566
tp567
a(VC[Si](C)(C)c1cc2c(cc1OS(=O)(=O)C(F)(F)F)OCO2>>c1cc2c(cc#1)OCO2
p568
(g132
tp569
tp570
asVbyprods
p571
(dp572
Vmain
p573
(dp574
VCl[Ti](Cl)(Cl)Cl
p575
g52
((lp576
Vrx455
p577
atp578
Rp579
sVO
p580
g52
((lp581
Vrx141
p582
aVrx49
p583
aVrx123
p584
aVrx406
p585
atp586
Rp587
sV[Na+]
p588
g52
((lp589
Vrx401
p590
aVrx284
p591
ag585
aVrx465
p592
aVrx353
p593
aVrx34
p594
aVrx224
p595
aVrx239
p596
aVrx249
p597
aVrx500
p598
atp599
Rp600
sV[Na+];;;[Na+]
p601
g52
((lp602
g582
ag583
ag584
atp603
Rp604
sV[H][H]
p605
g52
((lp606
Vrx124
p607
ag582
aVrx481
p608
ag583
aVrx333
p609
ag597
aVrx369
p610
ag584
atp611
Rp612
sVOC([O-])=O
p613
g52
((lp614
Vrx72
p615
aVrx271
p616
aVrx189
p617
aVrx358
p618
aVrx389
p619
aVrx149
p620
aVrx336
p621
aVrx365
p622
aVrx89
p623
aVrx171
p624
aVrx131
p625
aVrx85
p626
atp627
Rp628
sV[K+]
p629
g52
((lp630
g615
ag616
ag617
ag607
aVrx207
p631
ag620
ag621
ag623
ag624
ag622
ag609
aVrx168
p632
aVrx185
p633
aVrx477
p634
ag626
atp635
Rp636
sVOS(O)(=O)=O
p637
g52
((lp638
Vrx528
p639
aVrx151
p640
aVrx102
p641
aVrx321
p642
aVrx258
p643
aVrx252
p644
atp645
Rp646
sV[O-]S([O-])(=O)=O
p647
g52
((lp648
g642
ag644
atp649
Rp650
sV[Mg++]
p651
g52
((lp652
g642
ag644
atp653
Rp654
sVO=C=O
p655
g52
((lp656
g585
atp657
Rp658
sVCC[NH+](CC)CC
p659
g52
((lp660
Vrx245
p661
aVrx199
p662
aVrx259
p663
aVrx518
p664
aVrx86
p665
atp666
Rp667
sVCl
p668
g52
((lp669
Vrx313
p670
aVrx302
p671
aVrx472
p672
aVrx107
p673
aVrx204
p674
aVrx430
p675
aVrx64
p676
aVrx280
p677
atp678
Rp679
sVC1CCNCC1;;;[K+]
p680
g52
((lp681
g618
ag619
ag625
atp682
Rp683
sVCCN(CC)CC
p684
g52
((lp685
Vrx262
p686
aVrx263
p687
atp688
Rp689
sVCC(C)(C)O
p690
g52
((lp691
Vrx347
p692
aVrx464
p693
aVrx412
p694
atp695
Rp696
sV[K+];;;CCCC
p697
g52
((lp698
g692
atp699
Rp700
sV[Li+]
p701
g52
((lp702
Vrx186
p703
aVrx431
p704
aVrx104
p705
aVrx232
p706
ag610
ag692
aVrx368
p707
ag595
ag608
aVrx323
p708
aVrx282
p709
aVrx346
p710
aVrx294
p711
aVrx57
p712
aVrx99
p713
aVrx91
p714
atp715
Rp716
sV[K+];;;[H][N+]1=C2CCCCCN2CCC1
p717
g52
((lp718
g694
ag693
atp719
Rp720
sV[Na+];;;[K+]
p721
g52
((lp722
Vrx487
p723
aVrx461
p724
atp725
Rp726
sVCCCC
p727
g52
((lp728
Vrx344
p729
ag703
atp730
Rp731
sVCC(C)NC(C)C
p732
g52
((lp733
g708
ag591
ag713
atp734
Rp735
sVCN(C)P(=O)(N(C)C)N(C)C
p736
g52
((lp737
g713
atp738
Rp739
sV[H][N+]1([H])CCCCC1;;;[NH4+]
p740
g52
((lp741
Vrx354
p742
atp743
Rp744
sVCC(=O)O
p745
g52
((lp746
g590
aVrx103
p747
aVrx126
p748
ag592
ag593
ag598
aVrx343
p749
ag742
atp750
Rp751
sVO;;;O
p752
g52
((lp753
g596
atp754
Rp755
sVC1C[NH+]=C2CCCCCN2C1
p756
g52
((lp757
Vrx190
p758
aVrx36
p759
atp760
Rp761
sVc1cc[nH+]cc1
p762
g52
((lp763
Vrx95
p764
atp765
Rp766
sVCl[Al](Cl)Cl
p767
g52
((lp768
Vrx223
p769
atp770
Rp771
sVCC(=O)[O-]
p772
g52
((lp773
Vrx466
p774
aVrx315
p775
aVrx385
p776
aVrx136
p777
atp778
Rp779
sV[I-]
p780
g52
((lp781
g706
ag709
atp782
Rp783
sVOC(C)(C)C
p784
g52
((lp785
g634
ag632
atp786
Rp787
sVOS(=O)(=O)[O-]
p788
g52
((lp789
Vrx450
p790
aVrx109
p791
aVrx288
p792
aVrx494
p793
atp794
Rp795
sV[Li+];;;CC(C)NC(C)C
p796
g52
((lp797
g703
atp798
Rp799
sV[H][H];;;CCCC
p800
g52
((lp801
g595
atp802
Rp803
sV[Li+];;;[H][N+]1=C2CCCCCN2CCC1
p804
g52
((lp805
g729
atp806
Rp807
sVO=P(N(C)C)(N(C)C)N(C)C
p808
g52
((lp809
Vrx278
p810
atp811
Rp812
sVOC(=O)[O-]
p813
g52
((lp814
g633
atp815
Rp816
sVCC(C)NC(C)C;;;C1C[NH+]=C2CCCCCN2C1
p817
g52
((lp818
g711
ag714
atp819
Rp820
sVCC(C)NC(C)C;;;C[Si](C)(C)N[Si](C)(C)C
p821
g52
((lp822
g707
atp823
Rp824
sV[Na+];;;C1C[NH+]=C2CCCCCN2C1
p825
g52
((lp826
g707
atp827
Rp828
sVCCCC;;;[Na+]
p829
g52
((lp830
g608
ag610
atp831
Rp832
sV[H][H];;;[Li+]
p833
g52
((lp834
g591
atp835
Rp836
sVOC(=O)C
p837
g52
((lp838
Vrx507
p839
aVrx350
p840
atp841
Rp842
sVCCCC[N+](CCCC)(CCCC)CCCC;;;[Cs+]
p843
g52
((lp844
Vrx513
p845
atp846
Rp847
sVC[Si](C)(C)N[Si](C)(C)C
p848
g52
((lp849
g594
atp850
Rp851
sV[O-]S(=O)(=O)C(F)(F)F
p852
g52
((lp853
g712
ag710
atp854
Rp855
sVOC(=O)C(F)(F)F;;;Cl[Ti](Cl)(Cl)Cl
p856
g52
((lp857
g577
atp858
Rp859
sVCCN(CC)CC;;;c1ccncc1
p860
g52
((lp861
Vrx378
p862
atp863
Rp864
sVCc1ccc(cc1)S(O)(=O)=O
p865
g52
((lp866
Vrx94
p867
aVrx337
p868
aVrx305
p869
aVrx277
p870
aVrx92
p871
atp872
Rp873
sVCl;;;OS(=O)(=O)O
p874
g52
((lp875
Vrx21
p876
atp877
Rp878
sV-;;;-
p879
g52
((lp880
Vrx426
p881
aVrx409
p882
aVrx47
p883
aVrx170
p884
aVrx325
p885
aVrx150
p886
atp887
Rp888
sVCC(=O)O;;;CC(=O)O
p889
g52
((lp890
g677
atp891
Rp892
sVOc1c(Cl)c(Cl)c(O)c(C#N)c1C#N
p893
g52
((lp894
Vrx231
p895
atp896
Rp897
sV-;;;[La];;;CCN(CC)CC
p898
g52
((lp899
Vrx219
p900
atp901
Rp902
sVOC(=O)C(F)(F)F
p903
g52
((lp904
Vrx140
p905
atp906
Rp907
sV[Fe+3]
p908
g52
((lp909
Vrx427
p910
atp911
Rp912
sV-;;;Cl[Zn]Cl
p913
g52
((lp914
Vrx216
p915
atp916
Rp917
sVP(=O)(O)(O)O
p918
g52
((lp919
Vrx309
p920
aVrx211
p921
atp922
Rp923
sVC(F)(F)(F)S(=O)(=O)[O-]
p924
g52
((lp925
g674
ag671
ag676
ag672
atp926
Rp927
sV[Sc+3];;;CNC
p928
g52
((lp929
g674
ag671
ag676
ag672
atp930
Rp931
sVB(F)(F)F
p932
g52
((lp933
Vrx308
p934
atp935
Rp936
sVCCOCC;;;-
p937
g52
((lp938
g934
atp939
Rp940
ssValter
p941
(dp942
ssVredox
p943
g52
((lp944
tp945
Rp946
sVhasCat
p947
(dp948
(VC[Si](C)(C)c1cc2c(cc1OS(=O)(=O)C(F)(F)F)OCO2>>c1cc2c(cc#1)OCO2
p949
(VKM4417
p950
tp951
tp952
(V[F-]
p953
tp954
ssVinitSubstrates
p955
g52
((lp956
VC[Si](C)(C)c1cc2c(cc1OS(=O)(=O)C(F)(F)F)OCO2
p957
aVIC#Cc1ccccc1
p958
aVFC(F)(F)[Ag]
p959
atp960
Rp961
sVsmilesToGen
p962
(dp963
VIC#Cc1ccccc1
p964
I0
sVFC(F)(F)[Ag]
p965
I0
sVC[Si](C)(C)c1cc2c(cc1OS(=O)(=O)C(F)(F)F)OCO2
p966
I0
sV[F-]
p967
I0
sVc1cc2c(cc#1)OCO2
p968
I1
sVO=S(=O)([O-])C(F)(F)F
p969
I1
sVC[Si](C)(C)F
p970
I1
sVFC(F)(F)c1[c-]cc2c(c1)OCO2
p971
I2
sV[Ag+]
p972
I2
sVFC(F)(F)c1cc2c(cc1I)OCO2
p973
I3
sV[C-]#Cc1ccccc1
p974
I3
ssVgraph
p975
ccopy_reg
_reconstructor
p976
(cnetworkx.classes.digraph
DiGraph
p977
c__builtin__
object
p978
Ntp979
Rp980
(dp981
Vgraph_attr_dict_factory
p982
c__builtin__
dict
p983
sVnode_dict_factory
p984
g983
sVnode_attr_dict_factory
p985
g983
sVadjlist_outer_dict_factory
p986
g983
sVadjlist_inner_dict_factory
p987
g983
sVedge_attr_dict_factory
p988
g983
sg161
(dp989
sV_node
p990
(dp991
VFC(F)(F)c1[c-]cc2c(c1)OCO2
p992
(dp993
s(VFC(F)(F)c1[c-]cc2c(c1)OCO2.IC#Cc1ccccc1>>FC(F)(F)c1cc2c(cc1I)OCO2
p994
(VAW7188
p995
tp996
tp997
(dp998
sg964
(dp999
sg973
(dp1000
sg974
(dp1001
sVc1cc2c(cc#1)OCO2
p1002
(dp1003
s(Vc1cc2c(cc#1)OCO2.FC(F)(F)[Ag]>>FC(F)(F)c1[c-]cc2c(c1)OCO2
p1004
(VAW7187B
p1005
tp1006
tp1007
(dp1008
sg965
(dp1009
sg972
(dp1010
sg966
(dp1011
sg952
(dp1012
sg967
(dp1013
sg969
(dp1014
sg970
(dp1015
ssV_adj
p1016
(dp1017
g992
(dp1018
g997
(dp1019
ssg997
(dp1020
g973
(dp1021
sg974
(dp1022
ssg964
(dp1023
g997
(dp1024
ssg973
(dp1025
sg974
(dp1026
sg1002
(dp1027
g1007
(dp1028
ssg1007
(dp1029
g971
(dp1030
sg972
(dp1031
ssg965
(dp1032
g1007
(dp1033
ssg972
(dp1034
sg966
(dp1035
g952
(dp1036
ssg952
(dp1037
g968
(dp1038
sg969
(dp1039
sg970
(dp1040
ssg967
(dp1041
g952
(dp1042
ssg969
(dp1043
sg970
(dp1044
ssV_pred
p1045
(dp1046
g992
(dp1047
g1007
g1030
ssg997
(dp1048
g992
g1019
sg964
g1024
ssg964
(dp1049
sg973
(dp1050
g997
g1021
ssg974
(dp1051
g997
g1022
ssg1002
(dp1052
g952
g1038
ssg1007
(dp1053
g1002
g1028
sg965
g1033
ssg965
(dp1054
sg972
(dp1055
g1007
g1031
ssg966
(dp1056
sg952
(dp1057
g966
g1036
sg967
g1042
ssg967
(dp1058
sg969
(dp1059
g952
g1039
ssg970
(dp1060
g952
g1040
sssV_succ
p1061
g1017
sVnodes
p1062
g976
(cnetworkx.classes.reportviews
NodeView
p1063
g978
Ntp1064
Rp1065
(dp1066
V_nodes
p1067
g991
sbsbsssg975
g976
(g977
g978
Ntp1068
Rp1069
(dp1070
g982
g983
sg984
g983
sg985
g983
sg986
g983
sg987
g983
sg988
g983
sg161
(dp1071
sg990
(dp1072
I1
(dp1073
sVFC(F)(F)c1cc2c(cc1I)OCO2
p1074
(dp1075
sV[C-]#Cc1ccccc1
p1076
(dp1077
sVFC(F)(F)c1[c-]cc2c(c1)OCO2
p1078
(dp1079
sI4
(dp1080
sVIC#Cc1ccccc1
p1081
(dp1082
sI2
(dp1083
sV[Ag+]
p1084
(dp1085
sVc1cc2c(cc#1)OCO2
p1086
(dp1087
sVFC(F)(F)[Ag]
p1088
(dp1089
sI3
(dp1090
sVC[Si](C)(C)F
p1091
(dp1092
sVO=S(=O)([O-])C(F)(F)F
p1093
(dp1094
sV[Cs+]
p1095
(dp1096
sVCCCC[N+](CCCC)(CCCC)CCCC
p1097
(dp1098
sVC[Si](C)(C)c1cc2c(cc1OS(=O)(=O)C(F)(F)F)OCO2
p1099
(dp1100
sV[F-]
p1101
(dp1102
ssg1016
(dp1103
I1
(dp1104
g1074
(dp1105
sg1076
(dp1106
ssg1074
(dp1107
sg1076
(dp1108
sg1078
(dp1109
I1
(dp1110
sI4
(dp1111
ssI4
(dp1112
V[C-]#Cc1ccccc1
p1113
(dp1114
sVFC(F)(F)c1cc2c(cc1I)OCO2
p1115
(dp1116
ssg1081
(dp1117
I1
(dp1118
sI4
(dp1119
ssI2
(dp1120
VFC(F)(F)c1[c-]cc2c(c1)OCO2
p1121
(dp1122
sg1084
(dp1123
ssg1084
(dp1124
sg1086
(dp1125
I2
(dp1126
ssg1088
(dp1127
I2
(dp1128
ssI3
(dp1129
Vc1cc2c(cc#1)OCO2
p1130
(dp1131
sg1091
(dp1132
sg1093
(dp1133
sg1095
(dp1134
sg1097
(dp1135
ssg1091
(dp1136
sg1093
(dp1137
sg1095
(dp1138
sg1097
(dp1139
sg1099
(dp1140
I3
(dp1141
ssg1101
(dp1142
I3
(dp1143
sssg1045
(dp1144
I1
(dp1145
g1078
g1110
sg1081
g1118
ssg1074
(dp1146
I1
g1105
sI4
g1116
ssg1076
(dp1147
I1
g1106
sI4
g1114
ssg1078
(dp1148
I2
g1122
ssI4
(dp1149
g1078
g1111
sg1081
g1119
ssg1081
(dp1150
sI2
(dp1151
g1086
g1126
sg1088
g1128
ssg1084
(dp1152
I2
g1123
ssg1086
(dp1153
I3
g1131
ssg1088
(dp1154
sI3
(dp1155
g1099
g1141
sg1101
g1143
ssg1091
(dp1156
I3
g1132
ssg1093
(dp1157
I3
g1133
ssg1095
(dp1158
I3
g1134
ssg1097
(dp1159
I3
g1135
ssg1099
(dp1160
sg1101
(dp1161
ssg1061
g1103
sg1062
g976
(g1063
g978
Ntp1162
Rp1163
(dp1164
g1067
g1072
sbsbssI1
(dp1165
g4
(dp1166
g6
(dp1167
g8
(lp1168
sg10
(lp1169
(lp1170
a(lp1171
a(lp1172
(dp1173
g16
VFC(F)(F)c1[c-]cc2c(c1)OCO2.IC#Cc1ccccc1>>[C-]#Cc1ccccc1
p1174
sg18
(lp1175
g20
asg21
(lp1176
VFC(F)(F)c1cc2c(cc1I)OCO2
p1177
asg24
V[F:1][C:2]([F:3])([F:4])[c:24]1[c-:19][cH:20][c:21]2[c:22]([cH:23]1)[O:33][CH2:34][O:35]2.[I:6][C:7]#[C:8][c:9]1[cH:10][cH:11][cH:12][cH:13][cH:14]1>>[C-:7]#[C:8][c:9]1[cH:10][cH:11][cH:12][cH:13][cH:14]1.[F:1][C:2]([F:3])([F:4])[c:24]1[c:19]([I:6])[cH:20][c:21]2[c:22]([cH:23]1)[O:33][CH2:34][O:35]2
p1178
sg26
VAddition of aryl carbanion to propargyl halide
p1179
sg28
V10.1002/anie.201104858 and 10.1021/jo300072x
p1180
sg30
VKF, DME<BR> allow temp:L.rt.H, allow AB: B.WB.N
p1181
sg32
g33
sg34
g35
sg36
g37
sg38
(lp1182
sg40
VFC(F)(F)c1[c-]cc2c(c1)OCO2.IC#Cc1ccccc1>>[C-]#Cc1ccccc1.FC(F)(F)c1cc2c(cc1I)OCO2
p1183
sg42
I00
sg43
I00
sg44
F105.69967000000008
sg45
I00
saasVsmiMolMap
p1184
(dp1185
g1177
V\u000a     RDKit          2D\u000a\u000a 14 15  0  0  0  0  0  0  0  0999 V2000\u000a   -0.7864    2.1798    0.0000 F   0  0  0  0  0  0  0  0  0  0  0  0\u000a   -1.2858    1.3134    0.0000 C   0  0  0  0  0  0  0  0  0  0  0  0\u000a   -1.7864    2.1790    0.0000 F   0  0  0  0  0  0  0  0  0  0  0  0\u000a   -2.1514    0.8128    0.0000 F   0  0  0  0  0  0  0  0  0  0  0  0\u000a   -0.4194    0.8142    0.0000 C   0  0  0  0  0  0  0  0  0  0  0  0\u000a    0.4462    1.3148    0.0000 C   0  0  0  0  0  0  0  0  0  0  0  0\u000a    1.3126    0.8156    0.0000 C   0  0  0  0  0  0  0  0  0  0  0  0\u000a    1.3134   -0.1844    0.0000 C   0  0  0  0  0  0  0  0  0  0  0  0\u000a    0.4478   -0.6852    0.0000 C   0  0  0  0  0  0  0  0  0  0  0  0\u000a   -0.4186   -0.1858    0.0000 C   0  0  0  0  0  0  0  0  0  0  0  0\u000a   -1.2842   -0.6866    0.0000 I   0  0  0  0  0  0  0  0  0  0  0  0\u000a    2.2646   -0.4928    0.0000 O   0  0  0  0  0  0  0  0  0  0  0  0\u000a    2.8518    0.3168    0.0000 C   0  0  0  0  0  0  0  0  0  0  0  0\u000a    2.2634    1.1252    0.0000 O   0  0  0  0  0  0  0  0  0  0  0  0\u000a  1  2  1  0\u000a  2  3  1  0\u000a  2  4  1  0\u000a  2  5  1  0\u000a  5  6  2  0\u000a  6  7  1  0\u000a  7  8  2  0\u000a  8  9  1  0\u000a  9 10  2  0\u000a 10 11  1  0\u000a  8 12  1  0\u000a 12 13  1  0\u000a 13 14  1  0\u000a 10  5  1  0\u000a 14  7  1  0\u000aM  END\u000a
p1186
sVIC#Cc1ccccc1
p1187
V\u000a     RDKit          2D\u000a\u000a  9  9  0  0  0  0  0  0  0  0999 V2000\u000a   -3.0000   -0.0084    0.0000 I   0  0  0  0  0  0  0  0  0  0  0  0\u000a   -2.0000   -0.0056    0.0000 C   0  0  0  0  0  0  0  0  0  0  0  0\u000a   -1.0000   -0.0028    0.0000 C   0  0  0  0  0  0  0  0  0  0  0  0\u000a    0.0000    0.0000    0.0000 C   0  0  0  0  0  0  0  0  0  0  0  0\u000a    0.4976    0.8674    0.0000 C   0  0  0  0  0  0  0  0  0  0  0  0\u000a    1.4976    0.8702    0.0000 C   0  0  0  0  0  0  0  0  0  0  0  0\u000a    2.0000    0.0056    0.0000 C   0  0  0  0  0  0  0  0  0  0  0  0\u000a    1.5024   -0.8618    0.0000 C   0  0  0  0  0  0  0  0  0  0  0  0\u000a    0.5024   -0.8646    0.0000 C   0  0  0  0  0  0  0  0  0  0  0  0\u000a  1  2  1  0\u000a  2  3  3  0\u000a  3  4  1  0\u000a  4  5  2  0\u000a  5  6  1  0\u000a  6  7  2  0\u000a  7  8  1  0\u000a  8  9  2  0\u000a  9  4  1  0\u000aM  END\u000a
p1188
sV[C-]#Cc1ccccc1
p1189
V\u000a     RDKit          2D\u000a\u000a  8  8  0  0  0  0  0  0  0  0999 V2000\u000a   -1.8768   -0.8496    0.0000 C   0  0  0  0  0  3  0  0  0  0  0  0\u000a   -1.0076   -0.3550    0.0000 C   0  0  0  0  0  0  0  0  0  0  0  0\u000a   -0.1384    0.1394    0.0000 C   0  0  0  0  0  0  0  0  0  0  0  0\u000a    0.7244   -0.3662    0.0000 C   0  0  0  0  0  0  0  0  0  0  0  0\u000a    1.5936    0.1282    0.0000 C   0  0  0  0  0  0  0  0  0  0  0  0\u000a    1.6000    1.1282    0.0000 C   0  0  0  0  0  0  0  0  0  0  0  0\u000a    0.7372    1.6338    0.0000 C   0  0  0  0  0  0  0  0  0  0  0  0\u000a   -0.1320    1.1392    0.0000 C   0  0  0  0  0  0  0  0  0  0  0  0\u000a  1  2  3  0\u000a  2  3  1  0\u000a  3  4  2  0\u000a  4  5  1  0\u000a  5  6  2  0\u000a  6  7  1  0\u000a  7  8  2  0\u000a  8  3  1  0\u000aM  CHG  1   1  -1\u000aM  END\u000a
p1190
sVFC(F)(F)[Ag]
p1191
V\u000a     RDKit          2D\u000a\u000a  5  4  0  0  0  0  0  0  0  0999 V2000\u000a   -1.9992    1.0000    0.0000 F   0  0  0  0  0  0  0  0  0  0  0  0\u000a   -2.0000    0.0000    0.0000 C   0  0  0  0  0  0  0  0  0  0  0  0\u000a   -1.1344   -0.5006    0.0000 F   0  0  0  0  0  0  0  0  0  0  0  0\u000a   -2.8664   -0.4994    0.0000 F   0  0  0  0  0  0  0  0  0  0  0  0\u000a    0.0000    0.0000    0.0000 Ag  0  0  0  0  0  1  0  0  0  0  0  0\u000a  1  2  1  0\u000a  2  3  1  0\u000a  2  4  1  0\u000a  2  5  1  0\u000aM  END\u000a
p1192
sVFC(F)(F)c1[c-]cc2c(c1)OCO2
p1193
V\u000a     RDKit          2D\u000a\u000a 13 14  0  0  0  0  0  0  0  0999 V2000\u000a   -1.8660    0.4966    0.0000 F   0  0  0  0  0  0  0  0  0  0  0  0\u000a   -1.3668    1.3630    0.0000 C   0  0  0  0  0  0  0  0  0  0  0  0\u000a   -2.3668    1.3622    0.0000 F   0  0  0  0  0  0  0  0  0  0  0  0\u000a   -1.3676    2.3630    0.0000 F   0  0  0  0  0  0  0  0  0  0  0  0\u000a   -0.5004    0.8636    0.0000 C   0  0  0  0  0  0  0  0  0  0  0  0\u000a   -0.4996   -0.1364    0.0000 C   0  0  0  0  0  3  0  0  0  0  0  0\u000a    0.3668   -0.6356    0.0000 C   0  0  0  0  0  0  0  0  0  0  0  0\u000a    1.2324   -0.1350    0.0000 C   0  0  0  0  0  0  0  0  0  0  0  0\u000a    1.2316    0.8650    0.0000 C   0  0  0  0  0  0  0  0  0  0  0  0\u000a    0.3652    1.3644    0.0000 C   0  0  0  0  0  0  0  0  0  0  0  0\u000a    2.1824    1.1748    0.0000 O   0  0  0  0  0  0  0  0  0  0  0  0\u000a    2.7708    0.3662    0.0000 C   0  0  0  0  0  0  0  0  0  0  0  0\u000a    2.1836   -0.4432    0.0000 O   0  0  0  0  0  0  0  0  0  0  0  0\u000a  1  2  1  0\u000a  2  3  1  0\u000a  2  4  1  0\u000a  2  5  1  0\u000a  5  6  2  0\u000a  6  7  1  0\u000a  7  8  2  0\u000a  8  9  1  0\u000a  9 10  2  0\u000a  9 11  1  0\u000a 11 12  1  0\u000a 12 13  1  0\u000a 10  5  1  0\u000a 13  8  1  0\u000aM  CHG  1   6  -1\u000aM  END\u000a
p1194
sVc1cc2c(cc#1)OCO2
p1195
V\u000a     RDKit          2D\u000a\u000a  9 10  0  0  0  0  0  0  0  0999 V2000\u000a    2.0366    0.6962    0.0000 C   0  0  0  0  0  0  0  0  0  0  0  0\u000a    1.1702    1.1956    0.0000 C   0  0  0  0  0  0  0  0  0  0  0  0\u000a    0.3046    0.6948    0.0000 C   0  0  0  0  0  0  0  0  0  0  0  0\u000a    0.3054   -0.3052    0.0000 C   0  0  0  0  0  0  0  0  0  0  0  0\u000a    1.1718   -0.8044    0.0000 C   0  0  0  0  0  0  0  0  0  0  0  0\u000a    2.0374   -0.3038    0.0000 C   0  0  0  0  0  0  0  0  0  0  0  0\u000a   -0.6454   -0.6148    0.0000 O   0  0  0  0  0  0  0  0  0  0  0  0\u000a   -1.2338    0.1936    0.0000 C   0  0  0  0  0  0  0  0  0  0  0  0\u000a   -0.6466    1.0032    0.0000 O   0  0  0  0  0  0  0  0  0  0  0  0\u000a  1  2  1  0\u000a  2  3  2  0\u000a  3  4  1  0\u000a  4  5  2  0\u000a  5  6  1  0\u000a  4  7  1  0\u000a  7  8  1  0\u000a  8  9  1  0\u000a  6  1  3  0\u000a  9  3  1  0\u000aM  END\u000a
p1196
sssg30
(dp1197
g47
(lp1198
g49
ag50
ag51
asg30
g52
((lp1199
g57
ag55
ag56
ag54
atp1200
Rp1201
sg60
g52
((lp1202
g35
ag1189
ag1195
aVO=S(=O)([O-])C(F)(F)F
p1203
aV[F-]
p1204
ag1187
aVCCCC[N+](CCCC)(CCCC)CCCC
p1205
aVC[Si](C)(C)F
p1206
aV[Ag+]
p1207
ag1177
ag1191
aVC[Si](C)(C)c1cc2c(cc1OS(=O)(=O)C(F)(F)F)OCO2
p1208
aV[Cs+]
p1209
ag1193
atp1210
Rp1211
sVaddedSbs
p1212
g35
sVincompatMode
p1213
Vconservative
p1214
ssg65
(dp1215
(VFC(F)(F)c1[c-]cc2c(c1)OCO2.IC#Cc1ccccc1>>FC(F)(F)c1cc2c(cc1I)OCO2
p1216
(g68
tp1217
tp1218
(dp1219
g16
g1216
sg72
(dp1220
g74
F0.0
sg75
I0
sg76
I0
sg77
(lp1221
g68
asg79
(lp1222
((lp1223
V[F:10][C:11]([F:12])([F:13])[c:14]1[c-:15][cH:16][c:17]2[c:18]([cH:19]1)[O:20][CH2:21][O:22]2
p1224
aV[I:1][C:2]#[C:3][c:4]1[cH:5][cH:6][cH:7][cH:8][cH:9]1
p1225
a(lp1226
(V[I:1][c:15]1[c:14]([C:11]([F:10])([F:12])[F:13])[cH:19][c:18]2[c:17]([cH:16]1)[O:22][CH2:21][O:20]2
p1227
V[C-:2]#[C:3][c:4]1[cH:5][cH:6][cH:7][cH:8][cH:9]1
p1228
tp1229
atp1230
asg24
V[F:10][C:11]([F:12])([F:13])[c:14]1[c-:15][cH:16][c:17]2[c:18]([cH:19]1)[O:20][CH2:21][O:22]2.[I:1][C:2]#[C:3][c:4]1[cH:5][cH:6][cH:7][cH:8][cH:9]1>>[I:1][c:15]1[c:14]([C:11]([F:10])([F:12])[F:13])[cH:19][c:18]2[c:17]([cH:16]1)[O:22][CH2:21][O:20]2.[C-:2]#[C:3][c:4]1[cH:5][cH:6][cH:7][cH:8][cH:9]1
p1231
sg90
I-2
ssg18
(lp1232
g68
asg40
VFC(F)(F)c1[c-]cc2c(c1)OCO2.IC#Cc1ccccc1>>FC(F)(F)c1cc2c(cc1I)OCO2.[C-]#Cc1ccccc1
p1233
sg42
I00
sg43
I00
sg44
F105.69967000000008
sg45
I00
ss(Vc1cc2c(cc#1)OCO2.FC(F)(F)[Ag]>>FC(F)(F)c1[c-]cc2c(c1)OCO2
p1234
(g107
tp1235
tp1236
(dp1237
g16
g1234
sg72
(dp1238
g74
F0.0
sg75
I0
sg76
I0
sg77
(lp1239
g107
asg79
(lp1240
((lp1241
V[c:63]1[cH:64][c:65]2[c:66]([cH:67][c:68]#1)[O:69][CH2:70][O:71]2
p1242
aV[F:37][C:38]([F:39])([F:40])[Ag:41]
p1243
a(lp1244
(V[F:37][C:38]([F:39])([F:40])[c:68]1[c-:63][cH:64][c:65]2[c:66]([cH:67]1)[O:69][CH2:70][O:71]2
p1245
V[Ag+:41]
p1246
tp1247
atp1248
asg24
V[c:63]1[cH:64][c:65]2[c:66]([cH:67][c:68]#1)[O:69][CH2:70][O:71]2.[F:37][C:38]([F:39])([F:40])[Ag:41]>>[F:37][C:38]([F:39])([F:40])[c:68]1[c-:63][cH:64][c:65]2[c:66]([cH:67]1)[O:69][CH2:70][O:71]2.[Ag+:41]
p1249
sg90
I-2
ssg18
(lp1250
g107
asg40
Vc1cc2c(cc#1)OCO2.FC(F)(F)[Ag]>>FC(F)(F)c1[c-]cc2c(c1)OCO2.[Ag+]
p1251
sg42
I00
sg43
I00
sg44
F-171.48298000000005
sg45
I00
ss(VC[Si](C)(C)c1cc2c(cc1OS(=O)(=O)C(F)(F)F)OCO2>>c1cc2c(cc#1)OCO2
p1252
(g132
tp1253
tp1254
(dp1255
g16
g1252
sg72
(dp1256
g74
F0.0
sg75
I0
sg76
I0
sg77
(lp1257
g132
asg79
(lp1258
((lp1259
V[CH3:42][Si:43]([CH3:44])([CH3:45])[c:46]1[cH:47][c:48]2[c:49]([cH:50][c:51]1[O:52][S:53](=[O:54])(=[O:55])[C:56]([F:57])([F:58])[F:59])[O:60][CH2:61][O:62]2
p1260
aV[F-:63]
p1261
a(lp1262
(V[c:46]1[cH:47][c:48]2[c:49]([cH:50][c:51]#1)[O:60][CH2:61][O:62]2
p1263
V[O-:52][S:53](=[O:54])(=[O:55])[C:56]([F:57])([F:58])[F:59]
p1264
V[CH3:42][Si:43]([CH3:44])([CH3:45])[F:63]
p1265
tp1266
atp1267
asg24
V[CH3:42][Si:43]([CH3:44])([CH3:45])[c:46]1[cH:47][c:48]2[c:49]([cH:50][c:51]1[O:52][S:53](=[O:54])(=[O:55])[C:56]([F:57])([F:58])[F:59])[O:60][CH2:61][O:62]2.[F-:63]>>[c:46]1[cH:47][c:48]2[c:49]([cH:50][c:51]#1)[O:60][CH2:61][O:62]2.[O-:52][S:53](=[O:54])(=[O:55])[C:56]([F:57])([F:58])[F:59].[CH3:42][Si:43]([CH3:44])([CH3:45])[F:63]
p1268
sg90
I-2
ssg18
(lp1269
g132
asg40
VC[Si](C)(C)c1cc2c(cc1OS(=O)(=O)C(F)(F)F)OCO2.[F-]>>c1cc2c(cc#1)OCO2.O=S(=O)([O-])C(F)(F)F.C[Si](C)(C)F
p1270
sg42
I00
sg43
I00
sg44
F253.346
sg45
I00
ss(g1174
(g20
tp1271
tp1272
(dp1273
g16
g1174
sg72
(dp1274
g74
F0.0
sg75
I0
sg76
I0
sg77
(lp1275
g20
asg79
(lp1276
((lp1277
g1224
ag1225
a(lp1278
(g1228
g1227
tp1279
atp1280
asg24
V[F:10][C:11]([F:12])([F:13])[c:14]1[c-:15][cH:16][c:17]2[c:18]([cH:19]1)[O:20][CH2:21][O:22]2.[I:1][C:2]#[C:3][c:4]1[cH:5][cH:6][cH:7][cH:8][cH:9]1>>[C-:2]#[C:3][c:4]1[cH:5][cH:6][cH:7][cH:8][cH:9]1.[I:1][c:15]1[c:14]([C:11]([F:10])([F:12])[F:13])[cH:19][c:18]2[c:17]([cH:16]1)[O:22][CH2:21][O:20]2
p1281
sg90
I-2
ssg18
(lp1282
g20
asg40
g1183
ss(VFC(F)(F)c1[c-]cc2c(c1)OCO2>>FC(F)(F)c1ccc2c(c1)OCO2
p1283
(I1
tp1284
tp1285
(dp1286
g16
g1283
sg72
(dp1287
g74
I0
sg75
I0
sg76
I0
sg77
(lp1288
sg79
(lp1289
(lp1290
(lp1291
g1224
aa(lp1292
(lp1293
V[F:10][C:11]([F:12])([F:13])[c:14]1[cH:15][cH:16][c:17]2[c:18]([cH:19]1)[O:20][CH2:21][O:22]2
p1294
aaaasg24
V[F:10][C:11]([F:12])([F:13])[c:14]1[c-:15][cH:16][c:17]2[c:18]([cH:19]1)[O:20][CH2:21][O:22]2>>[F:10][C:11]([F:12])([F:13])[c:14]1[cH:15][cH:16][c:17]2[c:18]([cH:19]1)[O:20][CH2:21][O:22]2
p1295
sg90
I-2
ssg18
(lp1296
I1
asg40
g1283
sg42
I00
sg43
I00
sg44
F-203.12839999999994
sg45
I00
ss(VO=S(=O)([O-])C(F)(F)F>>O=S(=O)(O)C(F)(F)F
p1297
g1284
tp1298
(dp1299
g16
g1297
sg72
(dp1300
g74
I0
sg75
I0
sg76
I0
sg77
(lp1301
sg79
(lp1302
(lp1303
(lp1304
V[O:94]=[S:95](=[O:96])([O-:97])[C:98]([F:99])([F:100])[F:101]
p1305
aa(lp1306
(lp1307
V[O:94]=[S:95](=[O:96])([OH:97])[C:98]([F:99])([F:100])[F:101]
p1308
aaaasg24
V[O:94]=[S:95](=[O:96])([O-:97])[C:98]([F:99])([F:100])[F:101]>>[O:94]=[S:95](=[O:96])([OH:97])[C:98]([F:99])([F:100])[F:101]
p1309
sg90
I-2
ssg18
(lp1310
I1
asg40
g1297
sg42
I00
sg43
I00
sg44
F-290.9809399999999
sg45
I00
ss(V[C-]#Cc1ccccc1>>C#Cc1ccccc1
p1311
g1284
tp1312
(dp1313
g16
g1311
sg72
(dp1314
g74
I0
sg75
I0
sg76
I0
sg77
(lp1315
sg79
(lp1316
(lp1317
(lp1318
V[C-:104]#[C:105][c:106]1[cH:107][cH:108][cH:109][cH:110][cH:111]1
p1319
aa(lp1320
(lp1321
V[CH:104]#[C:105][c:106]1[cH:107][cH:108][cH:109][cH:110][cH:111]1
p1322
aaaasg24
V[C-:104]#[C:105][c:106]1[cH:107][cH:108][cH:109][cH:110][cH:111]1>>[CH:104]#[C:105][c:106]1[cH:107][cH:108][cH:109][cH:110][cH:111]1
p1323
sg90
I-2
ssg18
(lp1324
I1
asg40
g1311
sg42
I00
sg43
I00
sg44
F-296.13242
sg45
I00
sssg161
(lp1325
(I1
g1177
tp1326
a(I1
g1189
tp1327
a(g1193
I1
tp1328
a(g1193
I4
tp1329
a(g1193
I5
tp1330
a(g1187
I1
tp1331
a(g1187
I4
tp1332
a(I2
g1193
tp1333
a(I2
g1207
tp1334
a(g1195
I2
tp1335
a(g1191
I2
tp1336
a(I3
g1195
tp1337
a(I3
g1206
tp1338
a(I3
g1203
tp1339
a(I3
g1209
tp1340
a(I3
g1205
tp1341
a(g1208
I3
tp1342
a(g1189
I7
tp1343
a(g1203
I6
tp1344
a(g1204
I3
tp1345
a(I4
g1189
tp1346
a(I5
VFC(F)(F)c1ccc2c(c1)OCO2
p1347
tp1348
a(I6
VO=S(=O)(O)C(F)(F)F
p1349
tp1350
a(I7
VC#Cc1ccccc1
p1351
tp1352
asg186
(dp1353
((g1193
g1187
tp1354
g1177
g1217
tp1355
I1
s((g1191
g1195
tp1356
g1193
g1235
tp1357
I2
s((g1208
tp1358
g1195
g1253
tp1359
I3
s(g1354
g1189
g1271
tp1360
I4
s((g1193
tp1361
g1347
g1284
tp1362
I5
s((g1203
tp1363
g1349
g1284
tp1364
I6
s((g1189
tp1365
g1351
g1284
tp1366
I7
ssg196
(dp1367
g1191
(dp1368
g199
I0
sg200
(lp1369
sg202
g1192
sg204
g205
sg206
g1191
sg207
g208
ssg1187
(dp1370
g199
I0
sg200
(lp1371
sg202
g1188
sg204
g212
sg206
g1187
sg207
g208
ssg1208
(dp1372
g199
I0
sg200
(lp1373
sg202
V\u000a     RDKit          2D\u000a\u000a 21 22  0  0  0  0  0  0  0  0999 V2000\u000a   -0.3002   -2.7390    0.0000 C   0  0  0  0  0  0  0  0  0  0  0  0\u000a   -0.7996   -1.8726    0.0000 Si  0  0  0  0  0  4  0  0  0  0  0  0\u000a   -1.3002   -2.7382    0.0000 C   0  0  0  0  0  0  0  0  0  0  0  0\u000a   -1.6652   -1.3720    0.0000 C   0  0  0  0  0  0  0  0  0  0  0  0\u000a    0.0668   -1.3734    0.0000 C   0  0  0  0  0  0  0  0  0  0  0  0\u000a    0.9324   -1.8740    0.0000 C   0  0  0  0  0  0  0  0  0  0  0  0\u000a    1.7988   -1.3748    0.0000 C   0  0  0  0  0  0  0  0  0  0  0  0\u000a    1.7996   -0.3748    0.0000 C   0  0  0  0  0  0  0  0  0  0  0  0\u000a    0.9340    0.1260    0.0000 C   0  0  0  0  0  0  0  0  0  0  0  0\u000a    0.0676   -0.3734    0.0000 C   0  0  0  0  0  0  0  0  0  0  0  0\u000a   -0.7980    0.1274    0.0000 O   0  0  0  0  0  0  0  0  0  0  0  0\u000a   -0.7972    1.1274    0.0000 S   0  0  0  0  0  0  0  0  0  0  0  0\u000a    0.2028    1.1266    0.0000 O   0  0  0  0  0  0  0  0  0  0  0  0\u000a   -1.7972    1.1282    0.0000 O   0  0  0  0  0  0  0  0  0  0  0  0\u000a   -0.7964    2.1274    0.0000 C   0  0  0  0  0  0  0  0  0  0  0  0\u000a    0.2036    2.1266    0.0000 F   0  0  0  0  0  0  0  0  0  0  0  0\u000a   -0.2956    2.9930    0.0000 F   0  0  0  0  0  0  0  0  0  0  0  0\u000a   -1.6620    2.6280    0.0000 F   0  0  0  0  0  0  0  0  0  0  0  0\u000a    2.7510   -0.0664    0.0000 O   0  0  0  0  0  0  0  0  0  0  0  0\u000a    3.3380   -0.8760    0.0000 C   0  0  0  0  0  0  0  0  0  0  0  0\u000a    2.7496   -1.6844    0.0000 O   0  0  0  0  0  0  0  0  0  0  0  0\u000a  1  2  1  0\u000a  2  3  1  0\u000a  2  4  1  0\u000a  2  5  1  0\u000a  5  6  2  0\u000a  6  7  1  0\u000a  7  8  2  0\u000a  8  9  1  0\u000a  9 10  2  0\u000a 10 11  1  0\u000a 11 12  1  0\u000a 12 13  2  0\u000a 12 14  2  0\u000a 12 15  1  0\u000a 15 16  1  0\u000a 15 17  1  0\u000a 15 18  1  0\u000a  8 19  1  0\u000a 19 20  1  0\u000a 20 21  1  0\u000a 10  5  1  0\u000a 21  7  1  0\u000aM  END\u000a
p1374
sg204
g216
sg206
g1208
sg207
g208
ssg1177
(dp1375
g199
I3
sg200
(lp1376
g1193
ag1187
asg202
g1186
sg204
g220
sg221
g1177
sg207
g208
ssg1193
(dp1377
g199
I2
sg200
(lp1378
g1195
ag1191
asg202
g1194
sg204
VC8H4F3O2-
p1379
sg221
g1193
sg207
g208
ssg1195
(dp1380
g199
I1
sg200
(lp1381
g1208
ag1204
asg202
g1196
sg204
g229
sg221
g1195
sg207
g208
ssg1204
(dp1382
g199
I0
sg200
(lp1383
sg202
V\u000a     RDKit          2D\u000a\u000a  1  0  0  0  0  0  0  0  0  0999 V2000\u000a    0.0000    0.0000    0.0000 F   0  0  0  0  0 15  0  0  0  0  0  0\u000aM  CHG  1   1  -1\u000aM  END\u000a
p1384
sg204
VF-
p1385
sg207
g60
ssg1189
(dp1386
g199
I3
sg200
(lp1387
g1193
ag1187
asg204
VC8H5-
p1388
sg202
g1190
sg221
g1189
sg207
g238
sg239
(lp1389
(lp1390
g1193
ag1187
aassg1207
(dp1391
g199
I2
sg200
(lp1392
g1195
ag1191
asg204
VAg+
p1393
sg202
V\u000a     RDKit          2D\u000a\u000a  1  0  0  0  0  0  0  0  0  0999 V2000\u000a    0.0000    0.0000    0.0000 Ag  0  0  0  0  0 15  0  0  0  0  0  0\u000aM  CHG  1   1   1\u000aM  END\u000a
p1394
sg221
g1207
sg207
g238
ssg1209
(dp1395
g199
I1
sg200
(lp1396
g1208
ag1204
asg204
VCs+
p1397
sg202
V\u000a     RDKit          2D\u000a\u000a  1  0  0  0  0  0  0  0  0  0999 V2000\u000a    0.0000    0.0000    0.0000 Cs  0  0  0  0  0 15  0  0  0  0  0  0\u000aM  CHG  1   1   1\u000aM  END\u000a
p1398
sg221
g1209
sg207
g238
ssg1206
(dp1399
g199
I1
sg200
(lp1400
g1208
ag1204
asg204
g252
sg202
V\u000a     RDKit          2D\u000a\u000a  5  4  0  0  0  0  0  0  0  0999 V2000\u000a   -0.3712    0.6478    0.0000 C   0  0  0  0  0  0  0  0  0  0  0  0\u000a    0.1264   -0.2196    0.0000 Si  0  0  0  0  0  4  0  0  0  0  0  0\u000a    0.9910   -0.7220    0.0000 C   0  0  0  0  0  0  0  0  0  0  0  0\u000a   -0.7410   -0.7172    0.0000 C   0  0  0  0  0  0  0  0  0  0  0  0\u000a    0.6288    0.6450    0.0000 F   0  0  0  0  0  0  0  0  0  0  0  0\u000a  1  2  1  0\u000a  2  3  1  0\u000a  2  4  1  0\u000a  2  5  1  0\u000aM  END\u000a
p1401
sg221
g1206
sg207
g238
ssg1205
(dp1402
g199
I1
sg200
(lp1403
g1208
ag1204
asg204
VC16H36N+
p1404
sg202
V\u000a     RDKit          2D\u000a\u000a 17 16  0  0  0  0  0  0  0  0999 V2000\u000a   -1.2058    2.9352    0.0000 C   0  0  0  0  0  0  0  0  0  0  0  0\u000a   -1.7058    2.0692    0.0000 C   0  0  0  0  0  0  0  0  0  0  0  0\u000a   -1.2058    1.2032    0.0000 C   0  0  0  0  0  0  0  0  0  0  0  0\u000a   -1.7058    0.3372    0.0000 C   0  0  0  0  0  0  0  0  0  0  0  0\u000a   -1.2058   -0.5288    0.0000 N   0  0  0  0  0  4  0  0  0  0  0  0\u000a   -0.7058    0.3372    0.0000 C   0  0  0  0  0  0  0  0  0  0  0  0\u000a    0.2942    0.3372    0.0000 C   0  0  0  0  0  0  0  0  0  0  0  0\u000a    0.7942    1.2032    0.0000 C   0  0  0  0  0  0  0  0  0  0  0  0\u000a    1.7942    1.2032    0.0000 C   0  0  0  0  0  0  0  0  0  0  0  0\u000a   -2.0718   -1.0288    0.0000 C   0  0  0  0  0  0  0  0  0  0  0  0\u000a   -2.9378   -0.5288    0.0000 C   0  0  0  0  0  0  0  0  0  0  0  0\u000a   -3.8038   -1.0288    0.0000 C   0  0  0  0  0  0  0  0  0  0  0  0\u000a   -4.6698   -0.5288    0.0000 C   0  0  0  0  0  0  0  0  0  0  0  0\u000a   -0.3398   -1.0288    0.0000 C   0  0  0  0  0  0  0  0  0  0  0  0\u000a    0.5262   -0.5288    0.0000 C   0  0  0  0  0  0  0  0  0  0  0  0\u000a    1.3922   -1.0288    0.0000 C   0  0  0  0  0  0  0  0  0  0  0  0\u000a    2.2582   -0.5288    0.0000 C   0  0  0  0  0  0  0  0  0  0  0  0\u000a  1  2  1  0\u000a  2  3  1  0\u000a  3  4  1  0\u000a  4  5  1  0\u000a  5  6  1  0\u000a  6  7  1  0\u000a  7  8  1  0\u000a  8  9  1  0\u000a  5 10  1  0\u000a 10 11  1  0\u000a 11 12  1  0\u000a 12 13  1  0\u000a  5 14  1  0\u000a 14 15  1  0\u000a 15 16  1  0\u000a 16 17  1  0\u000aM  CHG  1   5   1\u000aM  END\u000a
p1405
sg221
g1205
sg207
g238
ssg1203
(dp1406
g199
I1
sg200
(lp1407
g1208
ag1204
asg204
VCF3O3S-
p1408
sg202
V\u000a     RDKit          2D\u000a\u000a  8  7  0  0  0  0  0  0  0  0999 V2000\u000a   -0.6242    0.5340    0.0000 O   0  0  0  0  0  0  0  0  0  0  0  0\u000a   -0.6250   -0.4660    0.0000 S   0  0  0  0  0  0  0  0  0  0  0  0\u000a   -0.6258   -1.4660    0.0000 O   0  0  0  0  0  0  0  0  0  0  0  0\u000a   -1.6250   -0.4652    0.0000 O   0  0  0  0  0  1  0  0  0  0  0  0\u000a    0.3750   -0.4668    0.0000 C   0  0  0  0  0  0  0  0  0  0  0  0\u000a    0.3742   -1.4668    0.0000 F   0  0  0  0  0  0  0  0  0  0  0  0\u000a    1.2406   -0.9676    0.0000 F   0  0  0  0  0  0  0  0  0  0  0  0\u000a    0.8758    0.3988    0.0000 F   0  0  0  0  0  0  0  0  0  0  0  0\u000a  1  2  2  0\u000a  2  3  2  0\u000a  2  4  1  0\u000a  2  5  1  0\u000a  5  6  1  0\u000a  5  7  1  0\u000a  5  8  1  0\u000aM  CHG  1   4  -1\u000aM  END\u000a
p1409
sg221
g1203
sg207
g238
ssg1347
(dp1410
g199
I3
sg207
VsideCompeting
p1411
sg202
V\u000a     RDKit          2D\u000a\u000a 13 14  0  0  0  0  0  0  0  0999 V2000\u000a   -1.8660    0.4966    0.0000 F   0  0  0  0  0  0  0  0  0  0  0  0\u000a   -1.3668    1.3630    0.0000 C   0  0  0  0  0  0  0  0  0  0  0  0\u000a   -2.3668    1.3622    0.0000 F   0  0  0  0  0  0  0  0  0  0  0  0\u000a   -1.3676    2.3630    0.0000 F   0  0  0  0  0  0  0  0  0  0  0  0\u000a   -0.5004    0.8636    0.0000 C   0  0  0  0  0  0  0  0  0  0  0  0\u000a   -0.4996   -0.1364    0.0000 C   0  0  0  0  0  0  0  0  0  0  0  0\u000a    0.3668   -0.6356    0.0000 C   0  0  0  0  0  0  0  0  0  0  0  0\u000a    1.2324   -0.1350    0.0000 C   0  0  0  0  0  0  0  0  0  0  0  0\u000a    1.2316    0.8650    0.0000 C   0  0  0  0  0  0  0  0  0  0  0  0\u000a    0.3652    1.3644    0.0000 C   0  0  0  0  0  0  0  0  0  0  0  0\u000a    2.1824    1.1748    0.0000 O   0  0  0  0  0  0  0  0  0  0  0  0\u000a    2.7708    0.3662    0.0000 C   0  0  0  0  0  0  0  0  0  0  0  0\u000a    2.1836   -0.4432    0.0000 O   0  0  0  0  0  0  0  0  0  0  0  0\u000a  1  2  1  0\u000a  2  3  1  0\u000a  2  4  1  0\u000a  2  5  1  0\u000a  5  6  2  0\u000a  6  7  1  0\u000a  7  8  2  0\u000a  8  9  1  0\u000a  9 10  2  0\u000a  9 11  1  0\u000a 11 12  1  0\u000a 12 13  1  0\u000a 10  5  1  0\u000a 13  8  1  0\u000aM  END\u000a
p1412
sg204
VC8H5F3O2
p1413
sVnoIsoSmiles
p1414
g1347
sVdHrx
p1415
(lp1416
I0
asg200
(lp1417
g1193
assg1349
(dp1418
g199
I2
sg207
g1411
sg202
V\u000a     RDKit          2D\u000a\u000a  8  7  0  0  0  0  0  0  0  0999 V2000\u000a   -0.6242    0.5340    0.0000 O   0  0  0  0  0  0  0  0  0  0  0  0\u000a   -0.6250   -0.4660    0.0000 S   0  0  0  0  0  0  0  0  0  0  0  0\u000a   -0.6258   -1.4660    0.0000 O   0  0  0  0  0  0  0  0  0  0  0  0\u000a   -1.6250   -0.4652    0.0000 O   0  0  0  0  0  0  0  0  0  0  0  0\u000a    0.3750   -0.4668    0.0000 C   0  0  0  0  0  0  0  0  0  0  0  0\u000a    0.3742   -1.4668    0.0000 F   0  0  0  0  0  0  0  0  0  0  0  0\u000a    1.2406   -0.9676    0.0000 F   0  0  0  0  0  0  0  0  0  0  0  0\u000a    0.8758    0.3988    0.0000 F   0  0  0  0  0  0  0  0  0  0  0  0\u000a  1  2  2  0\u000a  2  3  2  0\u000a  2  4  1  0\u000a  2  5  1  0\u000a  5  6  1  0\u000a  5  7  1  0\u000a  5  8  1  0\u000aM  END\u000a
p1419
sg204
VCHF3O3S
p1420
sg1414
g1349
sg1415
(lp1421
I0
asg200
(lp1422
g1203
assg1351
(dp1423
g199
I4
sg207
g1411
sg202
V\u000a     RDKit          2D\u000a\u000a  8  8  0  0  0  0  0  0  0  0999 V2000\u000a   -1.8768   -0.8496    0.0000 C   0  0  0  0  0  0  0  0  0  0  0  0\u000a   -1.0076   -0.3550    0.0000 C   0  0  0  0  0  0  0  0  0  0  0  0\u000a   -0.1384    0.1394    0.0000 C   0  0  0  0  0  0  0  0  0  0  0  0\u000a    0.7244   -0.3662    0.0000 C   0  0  0  0  0  0  0  0  0  0  0  0\u000a    1.5936    0.1282    0.0000 C   0  0  0  0  0  0  0  0  0  0  0  0\u000a    1.6000    1.1282    0.0000 C   0  0  0  0  0  0  0  0  0  0  0  0\u000a    0.7372    1.6338    0.0000 C   0  0  0  0  0  0  0  0  0  0  0  0\u000a   -0.1320    1.1392    0.0000 C   0  0  0  0  0  0  0  0  0  0  0  0\u000a  1  2  3  0\u000a  2  3  1  0\u000a  3  4  2  0\u000a  4  5  1  0\u000a  5  6  2  0\u000a  6  7  1  0\u000a  7  8  2  0\u000a  8  3  1  0\u000aM  END\u000a
p1424
sg204
VC8H6
p1425
sg1414
g1351
sg1415
(lp1426
I0
asg200
(lp1427
g1189
asssg262
(dp1428
g1355
(dp1429
g265
g266
ssg1357
(dp1430
g265
g266
ssg1359
(dp1431
g265
g266
ssg1360
(dp1432
g265
g270
ssg1362
(dp1433
g279
g266
ssg1364
(dp1434
g279
g266
ssg1366
(dp1435
g279
g266
sssg271
(dp1436
(g1193
g1189
g1179
tp1437
(lp1438
(dp1439
g276
g1189
sg277
g1193
sg26
g1179
sg278
g1233
sg30
g1181
sg36
g37
sg279
g266
sa(dp1440
g276
g1189
sg277
g1193
sg26
g1179
sg30
g1181
sg36
g37
sg279
g270
sas(g1187
g1189
g1179
tp1441
(lp1442
(dp1443
g276
g1189
sg277
g1187
sg26
g1179
sg278
g1233
sg30
g1181
sg36
g37
sg279
g266
sa(dp1444
g276
g1189
sg277
g1187
sg26
g1179
sg30
g1181
sg36
g37
sg279
g270
sas(g1193
g1177
g1179
tp1445
(lp1446
(dp1447
g276
g1177
sg277
g1193
sg26
g1179
sg278
g1233
sg30
g1181
sg36
g37
sg279
g266
sas(g1187
g1177
g1179
tp1448
(lp1449
(dp1450
g276
g1177
sg277
g1187
sg26
g1179
sg278
g1233
sg30
g1181
sg36
g37
sg279
g266
sas(g1195
g1207
VAddition of trifluoromethylsilver to aryne
p1451
tp1452
(lp1453
(dp1454
g276
g1207
sg277
g1195
sg26
g1451
sg278
g1251
sg30
VCsF, MeCN<BR> allow temp:L.rt.H, allow AB: B.WB.N
p1455
sg36
g296
sg279
g266
sas(g1191
g1207
g1451
tp1456
(lp1457
(dp1458
g276
g1207
sg277
g1191
sg26
g1451
sg278
g1251
sg30
g1455
sg36
g296
sg279
g266
sas(g1195
g1193
g1451
tp1459
(lp1460
(dp1461
g276
g1193
sg277
g1195
sg26
g1451
sg278
g1251
sg30
g1455
sg36
g296
sg279
g266
sas(g1191
g1193
g1451
tp1462
(lp1463
(dp1464
g276
g1193
sg277
g1191
sg26
g1451
sg278
g1251
sg30
g1455
sg36
g296
sg279
g266
sas(g1208
g1209
VAryne generation
p1465
tp1466
(lp1467
(dp1468
g276
g1209
sg277
g1208
sg26
g1465
sg278
VC[Si](C)(C)c1cc2c(cc1OS(=O)(=O)C(F)(F)F)OCO2.[F-]>>c1cc2c(cc#1)OCO2.CCCC[N+](CCCC)(CCCC)CCCC.[Cs+].C[Si](C)(C)F.O=S(=O)([O-])C(F)(F)F
p1469
sg30
VTBAF, THF or CsF,  ACN<BR> allow temp:rt.H, allow AB: N.WB.B.SB
p1470
sg36
g296
sg279
g266
sas(g1204
g1209
g1465
tp1471
(lp1472
(dp1473
g276
g1209
sg277
g1204
sg26
g1465
sg278
g1469
sg30
g1470
sg36
g296
sg279
g266
sas(g1208
g1206
g1465
tp1474
(lp1475
(dp1476
g276
g1206
sg277
g1208
sg26
g1465
sg278
g1469
sg30
g1470
sg36
g296
sg279
g266
sas(g1204
g1206
g1465
tp1477
(lp1478
(dp1479
g276
g1206
sg277
g1204
sg26
g1465
sg278
g1469
sg30
g1470
sg36
g296
sg279
g266
sas(g1208
g1205
g1465
tp1480
(lp1481
(dp1482
g276
g1205
sg277
g1208
sg26
g1465
sg278
g1469
sg30
g1470
sg36
g296
sg279
g266
sas(g1204
g1205
g1465
tp1483
(lp1484
(dp1485
g276
g1205
sg277
g1204
sg26
g1465
sg278
g1469
sg30
g1470
sg36
g296
sg279
g266
sas(g1208
g1203
g1465
tp1486
(lp1487
(dp1488
g276
g1203
sg277
g1208
sg26
g1465
sg278
g1469
sg30
g1470
sg36
g296
sg279
g266
sas(g1204
g1203
g1465
tp1489
(lp1490
(dp1491
g276
g1203
sg277
g1204
sg26
g1465
sg278
g1469
sg30
g1470
sg36
g296
sg279
g266
sas(g1208
g1195
g1465
tp1492
(lp1493
(dp1494
g276
g1195
sg277
g1208
sg26
g1465
sg278
g1469
sg30
g1470
sg36
g296
sg279
g266
sas(g1204
g1195
g1465
tp1495
(lp1496
(dp1497
g276
g1195
sg277
g1204
sg26
g1465
sg278
g1469
sg30
g1470
sg36
g296
sg279
g266
sas(g1193
g1347
Vcondition changes
p1498
tp1499
(lp1500
(dp1501
g277
g1193
sg276
g1347
sg279
g266
sg278
g1283
sg26
g1498
sg30
g35
sg36
Vany
p1502
sas(g1203
g1349
g1498
tp1503
(lp1504
(dp1505
g277
g1203
sg276
g1349
sg279
g266
sg278
g1297
sg26
g1498
sg30
g35
sg36
g1502
sas(g1189
g1351
g1498
tp1506
(lp1507
(dp1508
g277
g1189
sg276
g1351
sg279
g266
sg278
g1311
sg26
g1498
sg30
g35
sg36
g1502
sassg339
g1177
sg340
(dp1509
I1
(dp1510
g16
g1216
sg72
(dp1511
g74
F0.0
sg75
I0
sg76
I0
sg77
(lp1512
g68
asg79
(lp1513
((lp1514
g1224
ag1225
a(lp1515
g1229
atp1516
asg24
g1231
sg90
I-2
ssg18
(lp1517
g68
asg40
g1233
sg42
I00
sg43
I00
sg44
F105.69967000000008
sg45
I00
ssI2
(dp1518
g16
g1234
sg72
(dp1519
g74
F0.0
sg75
I0
sg76
I0
sg77
(lp1520
g107
asg79
(lp1521
((lp1522
g1242
ag1243
a(lp1523
g1247
atp1524
asg24
g1249
sg90
I-2
ssg18
(lp1525
g107
asg40
g1251
sg42
I00
sg43
I00
sg44
F-171.48298000000005
sg45
I00
ssI3
(dp1526
g16
g1252
sg72
(dp1527
g74
F0.0
sg75
I0
sg76
I0
sg77
(lp1528
g132
asg79
(lp1529
((lp1530
g1260
ag1261
a(lp1531
g1266
atp1532
asg24
g1268
sg90
I-2
ssg18
(lp1533
g132
asg40
g1270
sg42
I00
sg43
I00
sg44
F253.346
sg45
I00
ssI4
(dp1534
g16
g1174
sg18
(lp1535
g20
asg21
(lp1536
g1177
asg24
g1178
sg26
g1179
sg28
g1180
sg30
g1181
sg32
g33
sg34
g35
sg36
g37
sg38
(lp1537
sg40
g1183
sg42
I00
sg43
I00
sg44
F105.69967000000008
sg45
I00
ssI5
(dp1538
g16
g1283
sg72
(dp1539
g74
I0
sg75
I0
sg76
I0
sg77
(lp1540
sg79
(lp1541
(lp1542
(lp1543
g1224
aa(lp1544
(lp1545
g1294
aaaasg24
g1295
sg90
I-2
ssg18
(lp1546
I1
asg40
g1283
sg42
I00
sg43
I00
sg44
F-203.12839999999994
sg45
I00
ssI6
(dp1547
g16
g1297
sg72
(dp1548
g74
I0
sg75
I0
sg76
I0
sg77
(lp1549
sg79
(lp1550
(lp1551
(lp1552
g1305
aa(lp1553
(lp1554
g1308
aaaasg24
g1309
sg90
I-2
ssg18
(lp1555
I1
asg40
g1297
sg42
I00
sg43
I00
sg44
F-290.9809399999999
sg45
I00
ssI7
(dp1556
g16
g1311
sg72
(dp1557
g74
I0
sg75
I0
sg76
I0
sg77
(lp1558
sg79
(lp1559
(lp1560
(lp1561
g1319
aa(lp1562
(lp1563
g1322
aaaasg24
g1323
sg90
I-2
ssg18
(lp1564
I1
asg40
g1311
sg42
I00
sg43
I00
sg44
F-296.13242
sg45
I00
sssg392
(dp1565
g394
g52
((lp1566
g1189
ag1203
ag1193
atp1567
Rp1568
ssg398
(dp1569
g400
(dp1570
sg402
(dp1571
sssg975
g976
(g977
g978
Ntp1572
Rp1573
(dp1574
g982
g983
sg984
g983
sg985
g983
sg986
g983
sg987
g983
sg988
g983
sg161
(dp1575
sg990
(dp1576
I1
(dp1577
sVFC(F)(F)c1cc2c(cc1I)OCO2
p1578
(dp1579
sV[C-]#Cc1ccccc1
p1580
(dp1581
sVFC(F)(F)c1[c-]cc2c(c1)OCO2
p1582
(dp1583
sI4
(dp1584
sI5
(dp1585
sVIC#Cc1ccccc1
p1586
(dp1587
sI2
(dp1588
sV[Ag+]
p1589
(dp1590
sVc1cc2c(cc#1)OCO2
p1591
(dp1592
sVFC(F)(F)[Ag]
p1593
(dp1594
sI3
(dp1595
sVC[Si](C)(C)F
p1596
(dp1597
sVO=S(=O)([O-])C(F)(F)F
p1598
(dp1599
sV[Cs+]
p1600
(dp1601
sVCCCC[N+](CCCC)(CCCC)CCCC
p1602
(dp1603
sVC[Si](C)(C)c1cc2c(cc1OS(=O)(=O)C(F)(F)F)OCO2
p1604
(dp1605
sI7
(dp1606
sI6
(dp1607
sV[F-]
p1608
(dp1609
sVFC(F)(F)c1ccc2c(c1)OCO2
p1610
(dp1611
sVO=S(=O)(O)C(F)(F)F
p1612
(dp1613
sVC#Cc1ccccc1
p1614
(dp1615
ssg1016
(dp1616
I1
(dp1617
g1578
(dp1618
sg1580
(dp1619
ssg1578
(dp1620
sg1580
(dp1621
I7
(dp1622
ssg1582
(dp1623
I1
(dp1624
sI4
(dp1625
sI5
(dp1626
ssI4
(dp1627
V[C-]#Cc1ccccc1
p1628
(dp1629
sVFC(F)(F)c1cc2c(cc1I)OCO2
p1630
(dp1631
ssI5
(dp1632
g1610
(dp1633
ssg1586
(dp1634
I1
(dp1635
sI4
(dp1636
ssI2
(dp1637
VFC(F)(F)c1[c-]cc2c(c1)OCO2
p1638
(dp1639
sg1589
(dp1640
ssg1589
(dp1641
sg1591
(dp1642
I2
(dp1643
ssg1593
(dp1644
I2
(dp1645
ssI3
(dp1646
Vc1cc2c(cc#1)OCO2
p1647
(dp1648
sg1596
(dp1649
sg1598
(dp1650
sg1600
(dp1651
sg1602
(dp1652
ssg1596
(dp1653
sg1598
(dp1654
I6
(dp1655
ssg1600
(dp1656
sg1602
(dp1657
sg1604
(dp1658
I3
(dp1659
ssI7
(dp1660
g1614
(dp1661
ssI6
(dp1662
g1612
(dp1663
ssg1608
(dp1664
I3
(dp1665
ssg1610
(dp1666
sg1612
(dp1667
sg1614
(dp1668
ssg1045
(dp1669
I1
(dp1670
g1582
g1624
sg1586
g1635
ssg1578
(dp1671
I1
g1618
sI4
g1631
ssg1580
(dp1672
I1
g1619
sI4
g1629
ssg1582
(dp1673
I2
g1639
ssI4
(dp1674
g1582
g1625
sg1586
g1636
ssI5
(dp1675
g1582
g1626
ssg1586
(dp1676
sI2
(dp1677
g1591
g1643
sg1593
g1645
ssg1589
(dp1678
I2
g1640
ssg1591
(dp1679
I3
g1648
ssg1593
(dp1680
sI3
(dp1681
g1604
g1659
sg1608
g1665
ssg1596
(dp1682
I3
g1649
ssg1598
(dp1683
I3
g1650
ssg1600
(dp1684
I3
g1651
ssg1602
(dp1685
I3
g1652
ssg1604
(dp1686
sI7
(dp1687
g1580
g1622
ssI6
(dp1688
g1598
g1655
ssg1608
(dp1689
sg1610
(dp1690
I5
g1633
ssg1612
(dp1691
I6
g1663
ssg1614
(dp1692
I7
g1661
sssg1061
g1616
sg1062
g976
(g1063
g978
Ntp1693
Rp1694
(dp1695
g1067
g1576
sbsbssI2
(dp1696
g4
(dp1697
g6
(dp1698
g8
(lp1699
sg10
(lp1700
(lp1701
a(lp1702
a(lp1703
(dp1704
g16
VFC(F)(F)c1[c-]cc2c(c1)OCO2.IC#Cc1ccccc1>>[C-]#Cc1ccccc1
p1705
sg18
(lp1706
g20
asg21
(lp1707
VFC(F)(F)c1cc2c(cc1I)OCO2
p1708
asg24
V[F:1][C:2]([F:3])([F:4])[c:24]1[c-:19][cH:20][c:21]2[c:22]([cH:23]1)[O:33][CH2:34][O:35]2.[I:6][C:7]#[C:8][c:9]1[cH:10][cH:11][cH:12][cH:13][cH:14]1>>[C-:7]#[C:8][c:9]1[cH:10][cH:11][cH:12][cH:13][cH:14]1.[F:1][C:2]([F:3])([F:4])[c:24]1[c:19]([I:6])[cH:20][c:21]2[c:22]([cH:23]1)[O:33][CH2:34][O:35]2
p1709
sg26
VAddition of aryl carbanion to propargyl halide
p1710
sg28
V10.1002/anie.201104858 and 10.1021/jo300072x
p1711
sg30
VKF, DME<BR> allow temp:L.rt.H, allow AB: B.WB.N
p1712
sg32
g33
sg34
g35
sg36
g37
sg38
(lp1713
sg40
VFC(F)(F)c1[c-]cc2c(c1)OCO2.IC#Cc1ccccc1>>[C-]#Cc1ccccc1.FC(F)(F)c1cc2c(cc1I)OCO2
p1714
sg42
I00
sg43
I00
sg44
F105.69967000000008
sg45
I00
saasg1184
(dp1715
g1708
V\u000a     RDKit          2D\u000a\u000a 14 15  0  0  0  0  0  0  0  0999 V2000\u000a   -0.7864    2.1798    0.0000 F   0  0  0  0  0  0  0  0  0  0  0  0\u000a   -1.2858    1.3134    0.0000 C   0  0  0  0  0  0  0  0  0  0  0  0\u000a   -1.7864    2.1790    0.0000 F   0  0  0  0  0  0  0  0  0  0  0  0\u000a   -2.1514    0.8128    0.0000 F   0  0  0  0  0  0  0  0  0  0  0  0\u000a   -0.4194    0.8142    0.0000 C   0  0  0  0  0  0  0  0  0  0  0  0\u000a    0.4462    1.3148    0.0000 C   0  0  0  0  0  0  0  0  0  0  0  0\u000a    1.3126    0.8156    0.0000 C   0  0  0  0  0  0  0  0  0  0  0  0\u000a    1.3134   -0.1844    0.0000 C   0  0  0  0  0  0  0  0  0  0  0  0\u000a    0.4478   -0.6852    0.0000 C   0  0  0  0  0  0  0  0  0  0  0  0\u000a   -0.4186   -0.1858    0.0000 C   0  0  0  0  0  0  0  0  0  0  0  0\u000a   -1.2842   -0.6866    0.0000 I   0  0  0  0  0  0  0  0  0  0  0  0\u000a    2.2646   -0.4928    0.0000 O   0  0  0  0  0  0  0  0  0  0  0  0\u000a    2.8518    0.3168    0.0000 C   0  0  0  0  0  0  0  0  0  0  0  0\u000a    2.2634    1.1252    0.0000 O   0  0  0  0  0  0  0  0  0  0  0  0\u000a  1  2  1  0\u000a  2  3  1  0\u000a  2  4  1  0\u000a  2  5  1  0\u000a  5  6  2  0\u000a  6  7  1  0\u000a  7  8  2  0\u000a  8  9  1  0\u000a  9 10  2  0\u000a 10 11  1  0\u000a  8 12  1  0\u000a 12 13  1  0\u000a 13 14  1  0\u000a 10  5  1  0\u000a 14  7  1  0\u000aM  END\u000a
p1716
sVIC#Cc1ccccc1
p1717
V\u000a     RDKit          2D\u000a\u000a  9  9  0  0  0  0  0  0  0  0999 V2000\u000a   -3.0000   -0.0084    0.0000 I   0  0  0  0  0  0  0  0  0  0  0  0\u000a   -2.0000   -0.0056    0.0000 C   0  0  0  0  0  0  0  0  0  0  0  0\u000a   -1.0000   -0.0028    0.0000 C   0  0  0  0  0  0  0  0  0  0  0  0\u000a    0.0000    0.0000    0.0000 C   0  0  0  0  0  0  0  0  0  0  0  0\u000a    0.4976    0.8674    0.0000 C   0  0  0  0  0  0  0  0  0  0  0  0\u000a    1.4976    0.8702    0.0000 C   0  0  0  0  0  0  0  0  0  0  0  0\u000a    2.0000    0.0056    0.0000 C   0  0  0  0  0  0  0  0  0  0  0  0\u000a    1.5024   -0.8618    0.0000 C   0  0  0  0  0  0  0  0  0  0  0  0\u000a    0.5024   -0.8646    0.0000 C   0  0  0  0  0  0  0  0  0  0  0  0\u000a  1  2  1  0\u000a  2  3  3  0\u000a  3  4  1  0\u000a  4  5  2  0\u000a  5  6  1  0\u000a  6  7  2  0\u000a  7  8  1  0\u000a  8  9  2  0\u000a  9  4  1  0\u000aM  END\u000a
p1718
sV[C-]#Cc1ccccc1
p1719
V\u000a     RDKit          2D\u000a\u000a  8  8  0  0  0  0  0  0  0  0999 V2000\u000a   -1.8768   -0.8496    0.0000 C   0  0  0  0  0  3  0  0  0  0  0  0\u000a   -1.0076   -0.3550    0.0000 C   0  0  0  0  0  0  0  0  0  0  0  0\u000a   -0.1384    0.1394    0.0000 C   0  0  0  0  0  0  0  0  0  0  0  0\u000a    0.7244   -0.3662    0.0000 C   0  0  0  0  0  0  0  0  0  0  0  0\u000a    1.5936    0.1282    0.0000 C   0  0  0  0  0  0  0  0  0  0  0  0\u000a    1.6000    1.1282    0.0000 C   0  0  0  0  0  0  0  0  0  0  0  0\u000a    0.7372    1.6338    0.0000 C   0  0  0  0  0  0  0  0  0  0  0  0\u000a   -0.1320    1.1392    0.0000 C   0  0  0  0  0  0  0  0  0  0  0  0\u000a  1  2  3  0\u000a  2  3  1  0\u000a  3  4  2  0\u000a  4  5  1  0\u000a  5  6  2  0\u000a  6  7  1  0\u000a  7  8  2  0\u000a  8  3  1  0\u000aM  CHG  1   1  -1\u000aM  END\u000a
p1720
sVFC(F)(F)[Ag]
p1721
V\u000a     RDKit          2D\u000a\u000a  5  4  0  0  0  0  0  0  0  0999 V2000\u000a   -1.9992    1.0000    0.0000 F   0  0  0  0  0  0  0  0  0  0  0  0\u000a   -2.0000    0.0000    0.0000 C   0  0  0  0  0  0  0  0  0  0  0  0\u000a   -1.1344   -0.5006    0.0000 F   0  0  0  0  0  0  0  0  0  0  0  0\u000a   -2.8664   -0.4994    0.0000 F   0  0  0  0  0  0  0  0  0  0  0  0\u000a    0.0000    0.0000    0.0000 Ag  0  0  0  0  0  1  0  0  0  0  0  0\u000a  1  2  1  0\u000a  2  3  1  0\u000a  2  4  1  0\u000a  2  5  1  0\u000aM  END\u000a
p1722
sVFC(F)(F)c1[c-]cc2c(c1)OCO2
p1723
V\u000a     RDKit          2D\u000a\u000a 13 14  0  0  0  0  0  0  0  0999 V2000\u000a   -1.8660    0.4966    0.0000 F   0  0  0  0  0  0  0  0  0  0  0  0\u000a   -1.3668    1.3630    0.0000 C   0  0  0  0  0  0  0  0  0  0  0  0\u000a   -2.3668    1.3622    0.0000 F   0  0  0  0  0  0  0  0  0  0  0  0\u000a   -1.3676    2.3630    0.0000 F   0  0  0  0  0  0  0  0  0  0  0  0\u000a   -0.5004    0.8636    0.0000 C   0  0  0  0  0  0  0  0  0  0  0  0\u000a   -0.4996   -0.1364    0.0000 C   0  0  0  0  0  3  0  0  0  0  0  0\u000a    0.3668   -0.6356    0.0000 C   0  0  0  0  0  0  0  0  0  0  0  0\u000a    1.2324   -0.1350    0.0000 C   0  0  0  0  0  0  0  0  0  0  0  0\u000a    1.2316    0.8650    0.0000 C   0  0  0  0  0  0  0  0  0  0  0  0\u000a    0.3652    1.3644    0.0000 C   0  0  0  0  0  0  0  0  0  0  0  0\u000a    2.1824    1.1748    0.0000 O   0  0  0  0  0  0  0  0  0  0  0  0\u000a    2.7708    0.3662    0.0000 C   0  0  0  0  0  0  0  0  0  0  0  0\u000a    2.1836   -0.4432    0.0000 O   0  0  0  0  0  0  0  0  0  0  0  0\u000a  1  2  1  0\u000a  2  3  1  0\u000a  2  4  1  0\u000a  2  5  1  0\u000a  5  6  2  0\u000a  6  7  1  0\u000a  7  8  2  0\u000a  8  9  1  0\u000a  9 10  2  0\u000a  9 11  1  0\u000a 11 12  1  0\u000a 12 13  1  0\u000a 10  5  1  0\u000a 13  8  1  0\u000aM  CHG  1   6  -1\u000aM  END\u000a
p1724
sVc1cc2c(cc#1)OCO2
p1725
V\u000a     RDKit          2D\u000a\u000a  9 10  0  0  0  0  0  0  0  0999 V2000\u000a    2.0366    0.6962    0.0000 C   0  0  0  0  0  0  0  0  0  0  0  0\u000a    1.1702    1.1956    0.0000 C   0  0  0  0  0  0  0  0  0  0  0  0\u000a    0.3046    0.6948    0.0000 C   0  0  0  0  0  0  0  0  0  0  0  0\u000a    0.3054   -0.3052    0.0000 C   0  0  0  0  0  0  0  0  0  0  0  0\u000a    1.1718   -0.8044    0.0000 C   0  0  0  0  0  0  0  0  0  0  0  0\u000a    2.0374   -0.3038    0.0000 C   0  0  0  0  0  0  0  0  0  0  0  0\u000a   -0.6454   -0.6148    0.0000 O   0  0  0  0  0  0  0  0  0  0  0  0\u000a   -1.2338    0.1936    0.0000 C   0  0  0  0  0  0  0  0  0  0  0  0\u000a   -0.6466    1.0032    0.0000 O   0  0  0  0  0  0  0  0  0  0  0  0\u000a  1  2  1  0\u000a  2  3  2  0\u000a  3  4  1  0\u000a  4  5  2  0\u000a  5  6  1  0\u000a  4  7  1  0\u000a  7  8  1  0\u000a  8  9  1  0\u000a  6  1  3  0\u000a  9  3  1  0\u000aM  END\u000a
p1726
sssg30
(dp1727
g47
(lp1728
g49
ag50
ag51
asg30
g52
((lp1729
g57
ag55
ag56
ag54
atp1730
Rp1731
sg60
g52
((lp1732
g35
ag1725
aVO=S(=O)([O-])C(F)(F)F
p1733
aV[F-]
p1734
ag1717
aVCCCC[N+](CCCC)(CCCC)CCCC
p1735
ag1719
aVC#Cc1ccccc1
p1736
aVC[Si](C)(C)F
p1737
aV[Ag+]
p1738
ag1708
ag1721
aVC[Si](C)(C)c1cc2c(cc1OS(=O)(=O)C(F)(F)F)OCO2
p1739
aVFC(F)(F)c1ccc2c(c1)OCO2
p1740
aV[Cs+]
p1741
aVO=S(=O)(O)C(F)(F)F
p1742
ag1723
atp1743
Rp1744
sg1212
g35
sg1213
g1214
ssg65
(dp1745
(VFC(F)(F)c1[c-]cc2c(c1)OCO2.IC#Cc1ccccc1>>FC(F)(F)c1cc2c(cc1I)OCO2
p1746
(g68
tp1747
tp1748
(dp1749
g16
g1746
sg72
(dp1750
g74
F0.0
sg75
I0
sg76
I0
sg77
(lp1751
g68
asg79
(lp1752
((lp1753
V[F:59][C:60]([F:61])([F:62])[c:63]1[c-:64][cH:65][c:66]2[c:67]([cH:68]1)[O:69][CH2:70][O:71]2
p1754
aV[I:20][C:21]#[C:22][c:23]1[cH:24][cH:25][cH:26][cH:27][cH:28]1
p1755
a(lp1756
(V[I:20][c:64]1[c:63]([C:60]([F:59])([F:61])[F:62])[cH:68][c:67]2[c:66]([cH:65]1)[O:71][CH2:70][O:69]2
p1757
V[C-:21]#[C:22][c:23]1[cH:24][cH:25][cH:26][cH:27][cH:28]1
p1758
tp1759
atp1760
asg24
V[F:59][C:60]([F:61])([F:62])[c:63]1[c-:64][cH:65][c:66]2[c:67]([cH:68]1)[O:69][CH2:70][O:71]2.[I:20][C:21]#[C:22][c:23]1[cH:24][cH:25][cH:26][cH:27][cH:28]1>>[I:20][c:64]1[c:63]([C:60]([F:59])([F:61])[F:62])[cH:68][c:67]2[c:66]([cH:65]1)[O:71][CH2:70][O:69]2.[C-:21]#[C:22][c:23]1[cH:24][cH:25][cH:26][cH:27][cH:28]1
p1761
sg90
I-2
ssg18
(lp1762
g68
asg40
VFC(F)(F)c1[c-]cc2c(c1)OCO2.IC#Cc1ccccc1>>FC(F)(F)c1cc2c(cc1I)OCO2.[C-]#Cc1ccccc1
p1763
sg42
I00
sg43
I00
sg44
F105.69967000000008
sg45
I00
ss(Vc1cc2c(cc#1)OCO2.FC(F)(F)[Ag]>>FC(F)(F)c1[c-]cc2c(c1)OCO2
p1764
(g107
tp1765
tp1766
(dp1767
g16
g1764
sg72
(dp1768
g74
F0.0
sg75
I0
sg76
I0
sg77
(lp1769
g107
asg79
(lp1770
((lp1771
V[c:50]1[cH:51][c:52]2[c:53]([cH:54][c:55]#1)[O:56][CH2:57][O:58]2
p1772
aV[F:15][C:16]([F:17])([F:18])[Ag:19]
p1773
a(lp1774
(V[F:15][C:16]([F:17])([F:18])[c:55]1[c-:50][cH:51][c:52]2[c:53]([cH:54]1)[O:56][CH2:57][O:58]2
p1775
V[Ag+:19]
p1776
tp1777
atp1778
asg24
V[c:50]1[cH:51][c:52]2[c:53]([cH:54][c:55]#1)[O:56][CH2:57][O:58]2.[F:15][C:16]([F:17])([F:18])[Ag:19]>>[F:15][C:16]([F:17])([F:18])[c:55]1[c-:50][cH:51][c:52]2[c:53]([cH:54]1)[O:56][CH2:57][O:58]2.[Ag+:19]
p1779
sg90
I-2
ssg18
(lp1780
g107
asg40
Vc1cc2c(cc#1)OCO2.FC(F)(F)[Ag]>>FC(F)(F)c1[c-]cc2c(c1)OCO2.[Ag+]
p1781
sg42
I00
sg43
I00
sg44
F-171.48298000000005
sg45
I00
ss(VC[Si](C)(C)c1cc2c(cc1OS(=O)(=O)C(F)(F)F)OCO2>>c1cc2c(cc#1)OCO2
p1782
(g132
tp1783
tp1784
(dp1785
g16
g1782
sg72
(dp1786
g74
F0.0
sg75
I0
sg76
I0
sg77
(lp1787
g132
asg79
(lp1788
((lp1789
V[CH3:29][Si:30]([CH3:31])([CH3:32])[c:33]1[cH:34][c:35]2[c:36]([cH:37][c:38]1[O:39][S:40](=[O:41])(=[O:42])[C:43]([F:44])([F:45])[F:46])[O:47][CH2:48][O:49]2
p1790
aV[F-:50]
p1791
a(lp1792
(V[c:33]1[cH:34][c:35]2[c:36]([cH:37][c:38]#1)[O:47][CH2:48][O:49]2
p1793
V[O-:39][S:40](=[O:41])(=[O:42])[C:43]([F:44])([F:45])[F:46]
p1794
V[CH3:29][Si:30]([CH3:31])([CH3:32])[F:50]
p1795
tp1796
atp1797
asg24
V[CH3:29][Si:30]([CH3:31])([CH3:32])[c:33]1[cH:34][c:35]2[c:36]([cH:37][c:38]1[O:39][S:40](=[O:41])(=[O:42])[C:43]([F:44])([F:45])[F:46])[O:47][CH2:48][O:49]2.[F-:50]>>[c:33]1[cH:34][c:35]2[c:36]([cH:37][c:38]#1)[O:47][CH2:48][O:49]2.[O-:39][S:40](=[O:41])(=[O:42])[C:43]([F:44])([F:45])[F:46].[CH3:29][Si:30]([CH3:31])([CH3:32])[F:50]
p1798
sg90
I-2
ssg18
(lp1799
g132
asg40
VC[Si](C)(C)c1cc2c(cc1OS(=O)(=O)C(F)(F)F)OCO2.[F-]>>c1cc2c(cc#1)OCO2.O=S(=O)([O-])C(F)(F)F.C[Si](C)(C)F
p1800
sg42
I00
sg43
I00
sg44
F253.346
sg45
I00
ss(g1705
(g20
tp1801
tp1802
(dp1803
g16
g1705
sg72
(dp1804
g74
F0.0
sg75
I0
sg76
I0
sg77
(lp1805
g20
asg79
(lp1806
((lp1807
g1754
ag1755
a(lp1808
(g1758
g1757
tp1809
atp1810
asg24
V[F:59][C:60]([F:61])([F:62])[c:63]1[c-:64][cH:65][c:66]2[c:67]([cH:68]1)[O:69][CH2:70][O:71]2.[I:20][C:21]#[C:22][c:23]1[cH:24][cH:25][cH:26][cH:27][cH:28]1>>[C-:21]#[C:22][c:23]1[cH:24][cH:25][cH:26][cH:27][cH:28]1.[I:20][c:64]1[c:63]([C:60]([F:59])([F:61])[F:62])[cH:68][c:67]2[c:66]([cH:65]1)[O:71][CH2:70][O:69]2
p1811
sg90
I-2
ssg18
(lp1812
g20
asg40
g1714
ss(VFC(F)(F)c1[c-]cc2c(c1)OCO2>>FC(F)(F)c1ccc2c(c1)OCO2
p1813
(I1
tp1814
tp1815
(dp1816
g16
g1813
sg72
(dp1817
g74
I0
sg75
I0
sg76
I0
sg77
(lp1818
Nasg79
(lp1819
(lp1820
(g1775
tp1821
a(lp1822
(V[F:15][C:16]([F:17])([F:18])[c:55]1[cH:50][cH:51][c:52]2[c:53]([cH:54]1)[O:56][CH2:57][O:58]2
p1823
tp1824
aaasg24
V[F:15][C:16]([F:17])([F:18])[c:55]1[c-:50][cH:51][c:52]2[c:53]([cH:54]1)[O:56][CH2:57][O:58]2>>[F:15][C:16]([F:17])([F:18])[c:55]1[cH:50][cH:51][c:52]2[c:53]([cH:54]1)[O:56][CH2:57][O:58]2
p1825
sg90
I-2
ssg18
(lp1826
I1
asg40
g1813
sg42
I00
sg43
I00
sg44
F-203.12839999999994
sg45
I00
ss(VO=S(=O)([O-])C(F)(F)F>>O=S(=O)(O)C(F)(F)F
p1827
g1814
tp1828
(dp1829
g16
g1827
sg72
(dp1830
g74
I0
sg75
I0
sg76
I0
sg77
(lp1831
sg79
(lp1832
(lp1833
(lp1834
V[O:94]=[S:95](=[O:96])([O-:97])[C:98]([F:99])([F:100])[F:101]
p1835
aa(lp1836
(lp1837
V[O:94]=[S:95](=[O:96])([OH:97])[C:98]([F:99])([F:100])[F:101]
p1838
aaaasg24
V[O:94]=[S:95](=[O:96])([O-:97])[C:98]([F:99])([F:100])[F:101]>>[O:94]=[S:95](=[O:96])([OH:97])[C:98]([F:99])([F:100])[F:101]
p1839
sg90
I-2
ssg18
(lp1840
I1
asg40
g1827
sg42
I00
sg43
I00
sg44
F-290.9809399999999
sg45
I00
ss(V[C-]#Cc1ccccc1>>C#Cc1ccccc1
p1841
g1814
tp1842
(dp1843
g16
g1841
sg72
(dp1844
g74
I0
sg75
I0
sg76
I0
sg77
(lp1845
Nasg79
(lp1846
(lp1847
(g1758
tp1848
a(lp1849
(V[CH:21]#[C:22][c:23]1[cH:24][cH:25][cH:26][cH:27][cH:28]1
p1850
tp1851
aaasg24
V[C-:21]#[C:22][c:23]1[cH:24][cH:25][cH:26][cH:27][cH:28]1>>[CH:21]#[C:22][c:23]1[cH:24][cH:25][cH:26][cH:27][cH:28]1
p1852
sg90
I-2
ssg18
(lp1853
I1
asg40
g1841
sg42
I00
sg43
I00
sg44
F-296.13242
sg45
I00
sssg161
(lp1854
(I1
g1708
tp1855
a(I1
g1719
tp1856
a(g1723
I1
tp1857
a(g1723
I4
tp1858
a(g1723
I5
tp1859
a(g1717
I1
tp1860
a(g1717
I4
tp1861
a(I2
g1723
tp1862
a(I2
g1738
tp1863
a(g1725
I2
tp1864
a(g1721
I2
tp1865
a(I3
g1725
tp1866
a(I3
g1737
tp1867
a(I3
g1733
tp1868
a(I3
g1741
tp1869
a(I3
g1735
tp1870
a(g1739
I3
tp1871
a(g1719
I7
tp1872
a(g1733
I6
tp1873
a(g1734
I3
tp1874
a(I4
g1719
tp1875
a(I5
g1740
tp1876
a(I6
g1742
tp1877
a(I7
g1736
tp1878
asg186
(dp1879
((g1723
g1717
tp1880
g1708
g1747
tp1881
I1
s((g1721
g1725
tp1882
g1723
g1765
tp1883
I2
s((g1739
tp1884
g1725
g1783
tp1885
I3
s(g1880
g1719
g1801
tp1886
I4
s((g1723
tp1887
g1740
g1814
tp1888
I5
s((g1733
tp1889
g1742
g1814
tp1890
I6
s((g1719
tp1891
g1736
g1814
tp1892
I7
ssg196
(dp1893
g1721
(dp1894
g199
I0
sg200
(lp1895
sg202
g1722
sg204
g205
sg206
g1721
sg207
g208
ssg1717
(dp1896
g199
I0
sg200
(lp1897
sg202
g1718
sg204
g212
sg206
g1717
sg207
g208
ssg1739
(dp1898
g199
I0
sg200
(lp1899
sg202
V\u000a     RDKit          2D\u000a\u000a 21 22  0  0  0  0  0  0  0  0999 V2000\u000a   -0.3002   -2.7390    0.0000 C   0  0  0  0  0  0  0  0  0  0  0  0\u000a   -0.7996   -1.8726    0.0000 Si  0  0  0  0  0  4  0  0  0  0  0  0\u000a   -1.3002   -2.7382    0.0000 C   0  0  0  0  0  0  0  0  0  0  0  0\u000a   -1.6652   -1.3720    0.0000 C   0  0  0  0  0  0  0  0  0  0  0  0\u000a    0.0668   -1.3734    0.0000 C   0  0  0  0  0  0  0  0  0  0  0  0\u000a    0.9324   -1.8740    0.0000 C   0  0  0  0  0  0  0  0  0  0  0  0\u000a    1.7988   -1.3748    0.0000 C   0  0  0  0  0  0  0  0  0  0  0  0\u000a    1.7996   -0.3748    0.0000 C   0  0  0  0  0  0  0  0  0  0  0  0\u000a    0.9340    0.1260    0.0000 C   0  0  0  0  0  0  0  0  0  0  0  0\u000a    0.0676   -0.3734    0.0000 C   0  0  0  0  0  0  0  0  0  0  0  0\u000a   -0.7980    0.1274    0.0000 O   0  0  0  0  0  0  0  0  0  0  0  0\u000a   -0.7972    1.1274    0.0000 S   0  0  0  0  0  0  0  0  0  0  0  0\u000a    0.2028    1.1266    0.0000 O   0  0  0  0  0  0  0  0  0  0  0  0\u000a   -1.7972    1.1282    0.0000 O   0  0  0  0  0  0  0  0  0  0  0  0\u000a   -0.7964    2.1274    0.0000 C   0  0  0  0  0  0  0  0  0  0  0  0\u000a    0.2036    2.1266    0.0000 F   0  0  0  0  0  0  0  0  0  0  0  0\u000a   -0.2956    2.9930    0.0000 F   0  0  0  0  0  0  0  0  0  0  0  0\u000a   -1.6620    2.6280    0.0000 F   0  0  0  0  0  0  0  0  0  0  0  0\u000a    2.7510   -0.0664    0.0000 O   0  0  0  0  0  0  0  0  0  0  0  0\u000a    3.3380   -0.8760    0.0000 C   0  0  0  0  0  0  0  0  0  0  0  0\u000a    2.7496   -1.6844    0.0000 O   0  0  0  0  0  0  0  0  0  0  0  0\u000a  1  2  1  0\u000a  2  3  1  0\u000a  2  4  1  0\u000a  2  5  1  0\u000a  5  6  2  0\u000a  6  7  1  0\u000a  7  8  2  0\u000a  8  9  1  0\u000a  9 10  2  0\u000a 10 11  1  0\u000a 11 12  1  0\u000a 12 13  2  0\u000a 12 14  2  0\u000a 12 15  1  0\u000a 15 16  1  0\u000a 15 17  1  0\u000a 15 18  1  0\u000a  8 19  1  0\u000a 19 20  1  0\u000a 20 21  1  0\u000a 10  5  1  0\u000a 21  7  1  0\u000aM  END\u000a
p1900
sg204
g216
sg206
g1739
sg207
g208
ssg1708
(dp1901
g199
I3
sg200
(lp1902
g1723
ag1717
asg202
g1716
sg204
g220
sg221
g1708
sg207
g208
ssg1723
(dp1903
g199
I2
sg200
(lp1904
g1725
ag1721
asg202
g1724
sg204
VC8H4F3O2-
p1905
sg221
g1723
sg207
g208
ssg1725
(dp1906
g199
I1
sg200
(lp1907
g1739
ag1734
asg202
g1726
sg204
g229
sg221
g1725
sg207
g208
ssg1734
(dp1908
g199
I0
sg200
(lp1909
sg202
V\u000a     RDKit          2D\u000a\u000a  1  0  0  0  0  0  0  0  0  0999 V2000\u000a    0.0000    0.0000    0.0000 F   0  0  0  0  0 15  0  0  0  0  0  0\u000aM  CHG  1   1  -1\u000aM  END\u000a
p1910
sg204
VF-
p1911
sg207
g60
ssg1719
(dp1912
g199
I3
sg200
(lp1913
g1723
ag1717
asg204
VC8H5-
p1914
sg202
g1720
sg221
g1719
sg207
g238
sg239
(lp1915
(lp1916
g1723
ag1717
aassg1738
(dp1917
g199
I2
sg200
(lp1918
g1725
ag1721
asg204
VAg+
p1919
sg202
V\u000a     RDKit          2D\u000a\u000a  1  0  0  0  0  0  0  0  0  0999 V2000\u000a    0.0000    0.0000    0.0000 Ag  0  0  0  0  0 15  0  0  0  0  0  0\u000aM  CHG  1   1   1\u000aM  END\u000a
p1920
sg221
g1738
sg207
g238
ssg1741
(dp1921
g199
I1
sg200
(lp1922
g1739
ag1734
asg204
VCs+
p1923
sg202
V\u000a     RDKit          2D\u000a\u000a  1  0  0  0  0  0  0  0  0  0999 V2000\u000a    0.0000    0.0000    0.0000 Cs  0  0  0  0  0 15  0  0  0  0  0  0\u000aM  CHG  1   1   1\u000aM  END\u000a
p1924
sg221
g1741
sg207
g238
ssg1737
(dp1925
g199
I1
sg200
(lp1926
g1739
ag1734
asg204
g252
sg202
V\u000a     RDKit          2D\u000a\u000a  5  4  0  0  0  0  0  0  0  0999 V2000\u000a   -0.3712    0.6478    0.0000 C   0  0  0  0  0  0  0  0  0  0  0  0\u000a    0.1264   -0.2196    0.0000 Si  0  0  0  0  0  4  0  0  0  0  0  0\u000a    0.9910   -0.7220    0.0000 C   0  0  0  0  0  0  0  0  0  0  0  0\u000a   -0.7410   -0.7172    0.0000 C   0  0  0  0  0  0  0  0  0  0  0  0\u000a    0.6288    0.6450    0.0000 F   0  0  0  0  0  0  0  0  0  0  0  0\u000a  1  2  1  0\u000a  2  3  1  0\u000a  2  4  1  0\u000a  2  5  1  0\u000aM  END\u000a
p1927
sg221
g1737
sg207
g238
ssg1735
(dp1928
g199
I1
sg200
(lp1929
g1739
ag1734
asg204
VC16H36N+
p1930
sg202
V\u000a     RDKit          2D\u000a\u000a 17 16  0  0  0  0  0  0  0  0999 V2000\u000a   -1.2058    2.9352    0.0000 C   0  0  0  0  0  0  0  0  0  0  0  0\u000a   -1.7058    2.0692    0.0000 C   0  0  0  0  0  0  0  0  0  0  0  0\u000a   -1.2058    1.2032    0.0000 C   0  0  0  0  0  0  0  0  0  0  0  0\u000a   -1.7058    0.3372    0.0000 C   0  0  0  0  0  0  0  0  0  0  0  0\u000a   -1.2058   -0.5288    0.0000 N   0  0  0  0  0  4  0  0  0  0  0  0\u000a   -0.7058    0.3372    0.0000 C   0  0  0  0  0  0  0  0  0  0  0  0\u000a    0.2942    0.3372    0.0000 C   0  0  0  0  0  0  0  0  0  0  0  0\u000a    0.7942    1.2032    0.0000 C   0  0  0  0  0  0  0  0  0  0  0  0\u000a    1.7942    1.2032    0.0000 C   0  0  0  0  0  0  0  0  0  0  0  0\u000a   -2.0718   -1.0288    0.0000 C   0  0  0  0  0  0  0  0  0  0  0  0\u000a   -2.9378   -0.5288    0.0000 C   0  0  0  0  0  0  0  0  0  0  0  0\u000a   -3.8038   -1.0288    0.0000 C   0  0  0  0  0  0  0  0  0  0  0  0\u000a   -4.6698   -0.5288    0.0000 C   0  0  0  0  0  0  0  0  0  0  0  0\u000a   -0.3398   -1.0288    0.0000 C   0  0  0  0  0  0  0  0  0  0  0  0\u000a    0.5262   -0.5288    0.0000 C   0  0  0  0  0  0  0  0  0  0  0  0\u000a    1.3922   -1.0288    0.0000 C   0  0  0  0  0  0  0  0  0  0  0  0\u000a    2.2582   -0.5288    0.0000 C   0  0  0  0  0  0  0  0  0  0  0  0\u000a  1  2  1  0\u000a  2  3  1  0\u000a  3  4  1  0\u000a  4  5  1  0\u000a  5  6  1  0\u000a  6  7  1  0\u000a  7  8  1  0\u000a  8  9  1  0\u000a  5 10  1  0\u000a 10 11  1  0\u000a 11 12  1  0\u000a 12 13  1  0\u000a  5 14  1  0\u000a 14 15  1  0\u000a 15 16  1  0\u000a 16 17  1  0\u000aM  CHG  1   5   1\u000aM  END\u000a
p1931
sg221
g1735
sg207
g238
ssg1733
(dp1932
g199
I1
sg200
(lp1933
g1739
ag1734
asg204
VCF3O3S-
p1934
sg202
V\u000a     RDKit          2D\u000a\u000a  8  7  0  0  0  0  0  0  0  0999 V2000\u000a   -0.6242    0.5340    0.0000 O   0  0  0  0  0  0  0  0  0  0  0  0\u000a   -0.6250   -0.4660    0.0000 S   0  0  0  0  0  0  0  0  0  0  0  0\u000a   -0.6258   -1.4660    0.0000 O   0  0  0  0  0  0  0  0  0  0  0  0\u000a   -1.6250   -0.4652    0.0000 O   0  0  0  0  0  1  0  0  0  0  0  0\u000a    0.3750   -0.4668    0.0000 C   0  0  0  0  0  0  0  0  0  0  0  0\u000a    0.3742   -1.4668    0.0000 F   0  0  0  0  0  0  0  0  0  0  0  0\u000a    1.2406   -0.9676    0.0000 F   0  0  0  0  0  0  0  0  0  0  0  0\u000a    0.8758    0.3988    0.0000 F   0  0  0  0  0  0  0  0  0  0  0  0\u000a  1  2  2  0\u000a  2  3  2  0\u000a  2  4  1  0\u000a  2  5  1  0\u000a  5  6  1  0\u000a  5  7  1  0\u000a  5  8  1  0\u000aM  CHG  1   4  -1\u000aM  END\u000a
p1935
sg221
g1733
sg207
g238
ssg1740
(dp1936
g199
I3
sg207
g1411
sg202
V\u000a     RDKit          2D\u000a\u000a 13 14  0  0  0  0  0  0  0  0999 V2000\u000a   -1.8660    0.4966    0.0000 F   0  0  0  0  0  0  0  0  0  0  0  0\u000a   -1.3668    1.3630    0.0000 C   0  0  0  0  0  0  0  0  0  0  0  0\u000a   -2.3668    1.3622    0.0000 F   0  0  0  0  0  0  0  0  0  0  0  0\u000a   -1.3676    2.3630    0.0000 F   0  0  0  0  0  0  0  0  0  0  0  0\u000a   -0.5004    0.8636    0.0000 C   0  0  0  0  0  0  0  0  0  0  0  0\u000a   -0.4996   -0.1364    0.0000 C   0  0  0  0  0  0  0  0  0  0  0  0\u000a    0.3668   -0.6356    0.0000 C   0  0  0  0  0  0  0  0  0  0  0  0\u000a    1.2324   -0.1350    0.0000 C   0  0  0  0  0  0  0  0  0  0  0  0\u000a    1.2316    0.8650    0.0000 C   0  0  0  0  0  0  0  0  0  0  0  0\u000a    0.3652    1.3644    0.0000 C   0  0  0  0  0  0  0  0  0  0  0  0\u000a    2.1824    1.1748    0.0000 O   0  0  0  0  0  0  0  0  0  0  0  0\u000a    2.7708    0.3662    0.0000 C   0  0  0  0  0  0  0  0  0  0  0  0\u000a    2.1836   -0.4432    0.0000 O   0  0  0  0  0  0  0  0  0  0  0  0\u000a  1  2  1  0\u000a  2  3  1  0\u000a  2  4  1  0\u000a  2  5  1  0\u000a  5  6  2  0\u000a  6  7  1  0\u000a  7  8  2  0\u000a  8  9  1  0\u000a  9 10  2  0\u000a  9 11  1  0\u000a 11 12  1  0\u000a 12 13  1  0\u000a 10  5  1  0\u000a 13  8  1  0\u000aM  END\u000a
p1937
sg204
g1413
sg1414
g1740
sg1415
(lp1938
I0
asg200
(lp1939
g1723
assg1742
(dp1940
g199
I2
sg207
g1411
sg202
V\u000a     RDKit          2D\u000a\u000a  8  7  0  0  0  0  0  0  0  0999 V2000\u000a   -0.6242    0.5340    0.0000 O   0  0  0  0  0  0  0  0  0  0  0  0\u000a   -0.6250   -0.4660    0.0000 S   0  0  0  0  0  0  0  0  0  0  0  0\u000a   -0.6258   -1.4660    0.0000 O   0  0  0  0  0  0  0  0  0  0  0  0\u000a   -1.6250   -0.4652    0.0000 O   0  0  0  0  0  0  0  0  0  0  0  0\u000a    0.3750   -0.4668    0.0000 C   0  0  0  0  0  0  0  0  0  0  0  0\u000a    0.3742   -1.4668    0.0000 F   0  0  0  0  0  0  0  0  0  0  0  0\u000a    1.2406   -0.9676    0.0000 F   0  0  0  0  0  0  0  0  0  0  0  0\u000a    0.8758    0.3988    0.0000 F   0  0  0  0  0  0  0  0  0  0  0  0\u000a  1  2  2  0\u000a  2  3  2  0\u000a  2  4  1  0\u000a  2  5  1  0\u000a  5  6  1  0\u000a  5  7  1  0\u000a  5  8  1  0\u000aM  END\u000a
p1941
sg204
g1420
sg1414
g1742
sg1415
(lp1942
I0
asg200
(lp1943
g1733
assg1736
(dp1944
g199
I4
sg207
g1411
sg202
V\u000a     RDKit          2D\u000a\u000a  8  8  0  0  0  0  0  0  0  0999 V2000\u000a   -1.8768   -0.8496    0.0000 C   0  0  0  0  0  0  0  0  0  0  0  0\u000a   -1.0076   -0.3550    0.0000 C   0  0  0  0  0  0  0  0  0  0  0  0\u000a   -0.1384    0.1394    0.0000 C   0  0  0  0  0  0  0  0  0  0  0  0\u000a    0.7244   -0.3662    0.0000 C   0  0  0  0  0  0  0  0  0  0  0  0\u000a    1.5936    0.1282    0.0000 C   0  0  0  0  0  0  0  0  0  0  0  0\u000a    1.6000    1.1282    0.0000 C   0  0  0  0  0  0  0  0  0  0  0  0\u000a    0.7372    1.6338    0.0000 C   0  0  0  0  0  0  0  0  0  0  0  0\u000a   -0.1320    1.1392    0.0000 C   0  0  0  0  0  0  0  0  0  0  0  0\u000a  1  2  3  0\u000a  2  3  1  0\u000a  3  4  2  0\u000a  4  5  1  0\u000a  5  6  2  0\u000a  6  7  1  0\u000a  7  8  2  0\u000a  8  3  1  0\u000aM  END\u000a
p1945
sg204
g1425
sg1414
g1736
sg1415
(lp1946
I0
asg200
(lp1947
g1719
asssg262
(dp1948
g1881
(dp1949
g265
g266
ssg1883
(dp1950
g265
g266
ssg1885
(dp1951
g265
g266
ssg1886
(dp1952
g265
g270
ssg1888
(dp1953
g279
g266
ssg1890
(dp1954
g279
g266
ssg1892
(dp1955
g279
g266
sssg271
(dp1956
(g1723
g1719
g1710
tp1957
(lp1958
(dp1959
g276
g1719
sg277
g1723
sg26
g1710
sg278
g1763
sg30
g1712
sg36
g37
sg279
g266
sa(dp1960
g276
g1719
sg277
g1723
sg26
g1710
sg30
g1712
sg36
g37
sg279
g270
sas(g1717
g1719
g1710
tp1961
(lp1962
(dp1963
g276
g1719
sg277
g1717
sg26
g1710
sg278
g1763
sg30
g1712
sg36
g37
sg279
g266
sa(dp1964
g276
g1719
sg277
g1717
sg26
g1710
sg30
g1712
sg36
g37
sg279
g270
sas(g1723
g1708
g1710
tp1965
(lp1966
(dp1967
g276
g1708
sg277
g1723
sg26
g1710
sg278
g1763
sg30
g1712
sg36
g37
sg279
g266
sas(g1717
g1708
g1710
tp1968
(lp1969
(dp1970
g276
g1708
sg277
g1717
sg26
g1710
sg278
g1763
sg30
g1712
sg36
g37
sg279
g266
sas(g1725
g1738
VAddition of trifluoromethylsilver to aryne
p1971
tp1972
(lp1973
(dp1974
g276
g1738
sg277
g1725
sg26
g1971
sg278
g1781
sg30
VCsF, MeCN<BR> allow temp:L.rt.H, allow AB: B.WB.N
p1975
sg36
g296
sg279
g266
sas(g1721
g1738
g1971
tp1976
(lp1977
(dp1978
g276
g1738
sg277
g1721
sg26
g1971
sg278
g1781
sg30
g1975
sg36
g296
sg279
g266
sas(g1725
g1723
g1971
tp1979
(lp1980
(dp1981
g276
g1723
sg277
g1725
sg26
g1971
sg278
g1781
sg30
g1975
sg36
g296
sg279
g266
sas(g1721
g1723
g1971
tp1982
(lp1983
(dp1984
g276
g1723
sg277
g1721
sg26
g1971
sg278
g1781
sg30
g1975
sg36
g296
sg279
g266
sas(g1739
g1741
VAryne generation
p1985
tp1986
(lp1987
(dp1988
g276
g1741
sg277
g1739
sg26
g1985
sg278
VC[Si](C)(C)c1cc2c(cc1OS(=O)(=O)C(F)(F)F)OCO2.[F-]>>c1cc2c(cc#1)OCO2.CCCC[N+](CCCC)(CCCC)CCCC.[Cs+].C[Si](C)(C)F.O=S(=O)([O-])C(F)(F)F
p1989
sg30
VTBAF, THF or CsF,  ACN<BR> allow temp:rt.H, allow AB: N.WB.B.SB
p1990
sg36
g296
sg279
g266
sas(g1734
g1741
g1985
tp1991
(lp1992
(dp1993
g276
g1741
sg277
g1734
sg26
g1985
sg278
g1989
sg30
g1990
sg36
g296
sg279
g266
sas(g1739
g1737
g1985
tp1994
(lp1995
(dp1996
g276
g1737
sg277
g1739
sg26
g1985
sg278
g1989
sg30
g1990
sg36
g296
sg279
g266
sas(g1734
g1737
g1985
tp1997
(lp1998
(dp1999
g276
g1737
sg277
g1734
sg26
g1985
sg278
g1989
sg30
g1990
sg36
g296
sg279
g266
sas(g1739
g1735
g1985
tp2000
(lp2001
(dp2002
g276
g1735
sg277
g1739
sg26
g1985
sg278
g1989
sg30
g1990
sg36
g296
sg279
g266
sas(g1734
g1735
g1985
tp2003
(lp2004
(dp2005
g276
g1735
sg277
g1734
sg26
g1985
sg278
g1989
sg30
g1990
sg36
g296
sg279
g266
sas(g1739
g1733
g1985
tp2006
(lp2007
(dp2008
g276
g1733
sg277
g1739
sg26
g1985
sg278
g1989
sg30
g1990
sg36
g296
sg279
g266
sas(g1734
g1733
g1985
tp2009
(lp2010
(dp2011
g276
g1733
sg277
g1734
sg26
g1985
sg278
g1989
sg30
g1990
sg36
g296
sg279
g266
sas(g1739
g1725
g1985
tp2012
(lp2013
(dp2014
g276
g1725
sg277
g1739
sg26
g1985
sg278
g1989
sg30
g1990
sg36
g296
sg279
g266
sas(g1734
g1725
g1985
tp2015
(lp2016
(dp2017
g276
g1725
sg277
g1734
sg26
g1985
sg278
g1989
sg30
g1990
sg36
g296
sg279
g266
sas(g1723
g1740
Vcondition changes
p2018
tp2019
(lp2020
(dp2021
g277
g1723
sg276
g1740
sg279
g266
sg278
g1813
sg26
g2018
sg30
g35
sg36
g1502
sas(g1733
g1742
g2018
tp2022
(lp2023
(dp2024
g277
g1733
sg276
g1742
sg279
g266
sg278
g1827
sg26
g2018
sg30
g35
sg36
g1502
sas(g1719
g1736
g2018
tp2025
(lp2026
(dp2027
g277
g1719
sg276
g1736
sg279
g266
sg278
g1841
sg26
g2018
sg30
g35
sg36
g1502
sassg339
g1708
sg340
(dp2028
I1
(dp2029
g16
g1746
sg72
(dp2030
g74
F0.0
sg75
I0
sg76
I0
sg77
(lp2031
g68
asg79
(lp2032
((lp2033
g1754
ag1755
a(lp2034
g1759
atp2035
asg24
g1761
sg90
I-2
ssg18
(lp2036
g68
asg40
g1763
sg42
I00
sg43
I00
sg44
F105.69967000000008
sg45
I00
ssI2
(dp2037
g16
g1764
sg72
(dp2038
g74
F0.0
sg75
I0
sg76
I0
sg77
(lp2039
g107
asg79
(lp2040
((lp2041
g1772
ag1773
a(lp2042
g1777
atp2043
asg24
g1779
sg90
I-2
ssg18
(lp2044
g107
asg40
g1781
sg42
I00
sg43
I00
sg44
F-171.48298000000005
sg45
I00
ssI3
(dp2045
g16
g1782
sg72
(dp2046
g74
F0.0
sg75
I0
sg76
I0
sg77
(lp2047
g132
asg79
(lp2048
((lp2049
g1790
ag1791
a(lp2050
g1796
atp2051
asg24
g1798
sg90
I-2
ssg18
(lp2052
g132
asg40
g1800
sg42
I00
sg43
I00
sg44
F253.346
sg45
I00
ssI4
(dp2053
g16
g1705
sg18
(lp2054
g20
asg21
(lp2055
g1708
asg24
g1709
sg26
g1710
sg28
g1711
sg30
g1712
sg32
g33
sg34
g35
sg36
g37
sg38
(lp2056
sg40
g1714
sg42
I00
sg43
I00
sg44
F105.69967000000008
sg45
I00
ssI5
(dp2057
g16
g1813
sg72
(dp2058
g74
I0
sg75
I0
sg76
I0
sg77
(lp2059
Nasg79
(lp2060
(lp2061
g1821
a(lp2062
g1824
aaasg24
g1825
sg90
I-2
ssg18
(lp2063
I1
asg40
g1813
sg42
I00
sg43
I00
sg44
F-203.12839999999994
sg45
I00
ssI6
(dp2064
g16
g1827
sg72
(dp2065
g74
I0
sg75
I0
sg76
I0
sg77
(lp2066
sg79
(lp2067
(lp2068
(lp2069
g1835
aa(lp2070
(lp2071
g1838
aaaasg24
g1839
sg90
I-2
ssg18
(lp2072
I1
asg40
g1827
sg42
I00
sg43
I00
sg44
F-290.9809399999999
sg45
I00
ssI7
(dp2073
g16
g1841
sg72
(dp2074
g74
I0
sg75
I0
sg76
I0
sg77
(lp2075
Nasg79
(lp2076
(lp2077
g1848
a(lp2078
g1851
aaasg24
g1852
sg90
I-2
ssg18
(lp2079
I1
asg40
g1841
sg42
I00
sg43
I00
sg44
F-296.13242
sg45
I00
sssg392
(dp2080
g394
g52
((lp2081
g1719
ag1733
ag1723
atp2082
Rp2083
ssg398
(dp2084
g400
(dp2085
sg402
(dp2086
sssg975
g976
(g977
g978
Ntp2087
Rp2088
(dp2089
g982
g983
sg984
g983
sg985
g983
sg986
g983
sg987
g983
sg988
g983
sg161
(dp2090
sg990
(dp2091
I1
(dp2092
sVFC(F)(F)c1cc2c(cc1I)OCO2
p2093
(dp2094
sV[C-]#Cc1ccccc1
p2095
(dp2096
sVFC(F)(F)c1[c-]cc2c(c1)OCO2
p2097
(dp2098
sI4
(dp2099
sI5
(dp2100
sVIC#Cc1ccccc1
p2101
(dp2102
sI2
(dp2103
sV[Ag+]
p2104
(dp2105
sVc1cc2c(cc#1)OCO2
p2106
(dp2107
sVFC(F)(F)[Ag]
p2108
(dp2109
sI3
(dp2110
sVC[Si](C)(C)F
p2111
(dp2112
sVO=S(=O)([O-])C(F)(F)F
p2113
(dp2114
sV[Cs+]
p2115
(dp2116
sVCCCC[N+](CCCC)(CCCC)CCCC
p2117
(dp2118
sVC[Si](C)(C)c1cc2c(cc1OS(=O)(=O)C(F)(F)F)OCO2
p2119
(dp2120
sI7
(dp2121
sI6
(dp2122
sV[F-]
p2123
(dp2124
sVFC(F)(F)c1ccc2c(c1)OCO2
p2125
(dp2126
sVO=S(=O)(O)C(F)(F)F
p2127
(dp2128
sVC#Cc1ccccc1
p2129
(dp2130
ssg1016
(dp2131
I1
(dp2132
g2093
(dp2133
sg2095
(dp2134
ssg2093
(dp2135
sg2095
(dp2136
I7
(dp2137
ssg2097
(dp2138
I1
(dp2139
sI4
(dp2140
sI5
(dp2141
ssI4
(dp2142
V[C-]#Cc1ccccc1
p2143
(dp2144
sVFC(F)(F)c1cc2c(cc1I)OCO2
p2145
(dp2146
ssI5
(dp2147
g2125
(dp2148
ssg2101
(dp2149
I1
(dp2150
sI4
(dp2151
ssI2
(dp2152
VFC(F)(F)c1[c-]cc2c(c1)OCO2
p2153
(dp2154
sg2104
(dp2155
ssg2104
(dp2156
sg2106
(dp2157
I2
(dp2158
ssg2108
(dp2159
I2
(dp2160
ssI3
(dp2161
Vc1cc2c(cc#1)OCO2
p2162
(dp2163
sg2111
(dp2164
sg2113
(dp2165
sg2115
(dp2166
sg2117
(dp2167
ssg2111
(dp2168
sg2113
(dp2169
I6
(dp2170
ssg2115
(dp2171
sg2117
(dp2172
sg2119
(dp2173
I3
(dp2174
ssI7
(dp2175
g2129
(dp2176
ssI6
(dp2177
g2127
(dp2178
ssg2123
(dp2179
I3
(dp2180
ssg2125
(dp2181
sg2127
(dp2182
sg2129
(dp2183
ssg1045
(dp2184
I1
(dp2185
g2097
g2139
sg2101
g2150
ssg2093
(dp2186
I1
g2133
sI4
g2146
ssg2095
(dp2187
I1
g2134
sI4
g2144
ssg2097
(dp2188
I2
g2154
ssI4
(dp2189
g2097
g2140
sg2101
g2151
ssI5
(dp2190
g2097
g2141
ssg2101
(dp2191
sI2
(dp2192
g2106
g2158
sg2108
g2160
ssg2104
(dp2193
I2
g2155
ssg2106
(dp2194
I3
g2163
ssg2108
(dp2195
sI3
(dp2196
g2119
g2174
sg2123
g2180
ssg2111
(dp2197
I3
g2164
ssg2113
(dp2198
I3
g2165
ssg2115
(dp2199
I3
g2166
ssg2117
(dp2200
I3
g2167
ssg2119
(dp2201
sI7
(dp2202
g2095
g2137
ssI6
(dp2203
g2113
g2170
ssg2123
(dp2204
sg2125
(dp2205
I5
g2148
ssg2127
(dp2206
I6
g2178
ssg2129
(dp2207
I7
g2176
sssg1061
g2131
sg1062
g976
(g1063
g978
Ntp2208
Rp2209
(dp2210
g1067
g2091
sbsbsssVinitC
p2211
(dp2212
g1088
I100
sg1081
I100
sg1099
I100
sg1101
I100
ss.